TN:
SF:/home/lolo/Documents/fishnet/app/sda-workflow/shared/filters/ApproxAreaFilter.hpp
FN:23,23,_ZN16ApproxAreaFilterC2Ed
FN:25,31,_ZNK16ApproxAreaFilterclIN7fishnet8geometry13SimplePolygonIdEEEEbRKT_
FN:33,35,_ZN16ApproxAreaFilter4typeEv
FNDA:1,_ZN16ApproxAreaFilterC2Ed
FNDA:1,_ZNK16ApproxAreaFilterclIN7fishnet8geometry13SimplePolygonIdEEEEbRKT_
FNDA:1,_ZN16ApproxAreaFilter4typeEv
FNF:3
FNH:3
DA:23,1
DA:25,1
DA:26,1
DA:27,1
DA:28,1
DA:29,1
DA:30,1
DA:33,1
DA:34,1
LF:9
LH:9
end_of_record
TN:
SF:/home/lolo/Documents/fishnet/app/sda-workflow/shared/filters/InsidePolygonFilter.hpp
FN:15,17,_ZN19InsidePolygonFilterclIN7fishnet8geometry13SimplePolygonIdEES4_EEbRKT_RKT0_
FNDA:3,_ZN19InsidePolygonFilterclIN7fishnet8geometry13SimplePolygonIdEES4_EEbRKT_RKT0_
FNF:1
FNH:1
DA:15,3
DA:16,3
LF:2
LH:2
end_of_record
TN:
SF:/home/lolo/Documents/fishnet/app/sda-workflow/shared/filters/ProjectedAreaFilter.hpp
FN:14,14,_ZN19ProjectedAreaFilterC2Ed
FN:16,18,_ZNK19ProjectedAreaFilterclIN7fishnet8geometry13SimplePolygonIdEEEEbRKT_
FN:20,22,_ZN19ProjectedAreaFilter4typeEv
FNDA:1,_ZN19ProjectedAreaFilterC2Ed
FNDA:1,_ZNK19ProjectedAreaFilterclIN7fishnet8geometry13SimplePolygonIdEEEEbRKT_
FNDA:1,_ZN19ProjectedAreaFilter4typeEv
FNF:3
FNH:3
DA:14,1
DA:16,1
DA:17,1
DA:20,1
DA:21,1
LF:5
LH:5
end_of_record
TN:
SF:/home/lolo/Documents/fishnet/app/sda-workflow/shared/job/Job.hpp
FN:29,31,_Zlt7JobTypeS_
FN:44,44,_ZN3JobC2Ev
FN:45,45,_ZN3JobC2EmNSt10filesystem7__cxx114pathE7JobType8JobState
FN:54,56,_ZNK3JobeqERKS_
FN:8,27,_ZL9jobTypeId7JobType
FNDA:0,_Zlt7JobTypeS_
FNDA:176,_ZN3JobC2Ev
FNDA:77,_ZN3JobC2EmNSt10filesystem7__cxx114pathE7JobType8JobState
FNDA:27,_ZNK3JobeqERKS_
FNDA:0,_ZL9jobTypeId7JobType
FNF:5
FNH:3
DA:8,0
DA:9,0
DA:10,0
DA:11,0
DA:12,0
DA:13,0
DA:14,0
DA:15,0
DA:16,0
DA:17,0
DA:18,0
DA:19,0
DA:20,0
DA:21,0
DA:22,0
DA:23,0
DA:24,0
DA:25,0
DA:29,0
DA:30,0
DA:44,176
DA:45,77
DA:54,27
DA:55,27
LF:24
LH:4
end_of_record
TN:
SF:/home/lolo/Documents/fishnet/app/sda-workflow/shared/job/JobAdjacency.hpp
FN:102,106,_ZNK12JobAdjacency12addAdjacencyERK3JobS2_
FN:108,113,_ZNK12JobAdjacency14addAdjacenciesIRSt6vectorISt4pairI3JobS3_ESaIS4_EEEEbOT_
FN:109,109,_ZZNK12JobAdjacency14addAdjacenciesIRSt6vectorISt4pairI3JobS3_ESaIS4_EEEEbOT_ENKUlbS9_E_clIRS4_EEDabS9_
FN:115,117,_ZNK12JobAdjacency7addNodeERK3Job
FN:119,123,_ZNK12JobAdjacency8addNodesIRSt6vectorI3JobSaIS2_EEEEbOT_
FN:120,120,_ZZNK12JobAdjacency8addNodesIRSt6vectorI3JobSaIS2_EEEEbOT_ENKUlbS7_E_clIRS2_EEDabS7_
FN:129,131,_ZNK12JobAdjacency10removeNodeERK3Job
FN:139,146,_ZNK12JobAdjacency15removeAdjacencyERK3JobS2_
FN:148,153,_ZNK12JobAdjacency17removeAdjacenciesIRSt6vectorISt4pairI3JobS3_ESaIS4_EEEEbOT_
FN:149,149,_ZZNK12JobAdjacency17removeAdjacenciesIRSt6vectorISt4pairI3JobS3_ESaIS4_EEEEbOT_ENKUlbS9_E_clIRS4_EEDabS9_
FN:155,157,_ZNK12JobAdjacency5clearEv
FN:159,166,_ZNK12JobAdjacency8containsERK3Job
FN:168,181,_ZNK12JobAdjacency12hasAdjacencyERK3JobS2_
FN:183,198,_ZNK12JobAdjacency9adjacencyERK3Job
FN:200,214,_ZNK12JobAdjacency5nodesEv
FN:216,231,_ZNK12JobAdjacency17getAdjacencyPairsEv
FN:24,31,_ZNK12JobAdjacency27createConstraintsAndIndexesEv
FN:37,60,_ZNK12JobAdjacency8queryJobERK3JobNS_9QueryTypeESt17basic_string_viewIcSt11char_traitsIcEE
FN:62,64,_ZN12JobAdjacency11asJobIdTypeEl
FN:66,79,_ZNK12JobAdjacency15fromQueryResultERKN2mg9ConstNodeE
FN:82,89,_ZN12JobAdjacencyC2EO18MemgraphConnection
FN:91,91,_ZN12JobAdjacencyC2EOS_
FN:93,96,_ZN12JobAdjacencyaSEOS_
FNDA:31,_ZNK12JobAdjacency12addAdjacencyERK3JobS2_
FNDA:1,_ZNK12JobAdjacency14addAdjacenciesIRSt6vectorISt4pairI3JobS3_ESaIS4_EEEEbOT_
FNDA:2,_ZZNK12JobAdjacency14addAdjacenciesIRSt6vectorISt4pairI3JobS3_ESaIS4_EEEEbOT_ENKUlbS9_E_clIRS4_EEDabS9_
FNDA:46,_ZNK12JobAdjacency7addNodeERK3Job
FNDA:1,_ZNK12JobAdjacency8addNodesIRSt6vectorI3JobSaIS2_EEEEbOT_
FNDA:2,_ZZNK12JobAdjacency8addNodesIRSt6vectorI3JobSaIS2_EEEEbOT_ENKUlbS7_E_clIRS2_EEDabS7_
FNDA:1,_ZNK12JobAdjacency10removeNodeERK3Job
FNDA:4,_ZNK12JobAdjacency15removeAdjacencyERK3JobS2_
FNDA:1,_ZNK12JobAdjacency17removeAdjacenciesIRSt6vectorISt4pairI3JobS3_ESaIS4_EEEEbOT_
FNDA:2,_ZZNK12JobAdjacency17removeAdjacenciesIRSt6vectorISt4pairI3JobS3_ESaIS4_EEEEbOT_ENKUlbS9_E_clIRS4_EEDabS9_
FNDA:15,_ZNK12JobAdjacency5clearEv
FNDA:6,_ZNK12JobAdjacency8containsERK3Job
FNDA:9,_ZNK12JobAdjacency12hasAdjacencyERK3JobS2_
FNDA:4,_ZNK12JobAdjacency9adjacencyERK3Job
FNDA:23,_ZNK12JobAdjacency5nodesEv
FNDA:22,_ZNK12JobAdjacency17getAdjacencyPairsEv
FNDA:15,_ZNK12JobAdjacency27createConstraintsAndIndexesEv
FNDA:119,_ZNK12JobAdjacency8queryJobERK3JobNS_9QueryTypeESt17basic_string_viewIcSt11char_traitsIcEE
FNDA:174,_ZN12JobAdjacency11asJobIdTypeEl
FNDA:174,_ZNK12JobAdjacency15fromQueryResultERKN2mg9ConstNodeE
FNDA:15,_ZN12JobAdjacencyC2EO18MemgraphConnection
FNDA:16,_ZN12JobAdjacencyC2EOS_
FNDA:0,_ZN12JobAdjacencyaSEOS_
FNF:23
FNH:22
DA:24,15
DA:25,15
DA:26,30
DA:27,30
DA:28,30
DA:29,30
DA:30,30
DA:37,119
DA:38,119
DA:39,119
DA:40,108
DA:45,108
DA:46,216
DA:47,216
DA:48,432
DA:49,432
DA:50,432
DA:51,324
DA:52,11
DA:53,11
DA:54,22
DA:55,22
DA:56,33
DA:57,0
DA:58,0
DA:60,119
DA:62,174
DA:63,174
DA:66,174
DA:67,174
DA:68,870
DA:69,696
DA:70,174
DA:71,696
DA:72,174
DA:73,696
DA:74,174
DA:75,696
DA:76,174
DA:78,174
DA:82,15
DA:83,15
DA:84,0
DA:86,15
DA:87,0
DA:89,15
DA:91,16
DA:93,0
DA:94,0
DA:95,0
DA:102,31
DA:103,62
DA:104,31
DA:105,31
DA:108,1
DA:109,1
DA:110,2
DA:111,2
DA:112,1
DA:115,46
DA:116,46
DA:119,1
DA:120,1
DA:121,2
DA:122,1
DA:129,1
DA:130,1
DA:139,4
DA:140,8
DA:141,4
DA:142,4
DA:143,8
DA:144,4
DA:145,4
DA:148,1
DA:149,1
DA:150,2
DA:151,2
DA:152,1
DA:155,15
DA:156,15
DA:159,6
DA:160,6
DA:161,6
DA:162,6
DA:163,6
DA:164,6
DA:165,0
DA:166,6
DA:168,9
DA:169,9
DA:170,18
DA:171,9
DA:172,9
DA:173,9
DA:174,9
DA:175,9
DA:177,9
DA:178,9
DA:179,9
DA:180,0
DA:183,4
DA:184,4
DA:185,8
DA:186,4
DA:187,4
DA:188,4
DA:190,4
DA:191,5
DA:192,1
DA:193,6
DA:194,4
DA:195,4
DA:196,0
DA:197,0
DA:200,23
DA:201,23
DA:202,46
DA:203,23
DA:204,23
DA:206,23
DA:207,116
DA:208,93
DA:209,209
DA:210,23
DA:211,23
DA:212,0
DA:213,0
DA:216,22
DA:217,22
DA:218,22
DA:219,44
DA:220,22
DA:221,22
DA:223,62
DA:224,40
DA:225,102
DA:226,22
DA:229,0
DA:230,0
LF:140
LH:125
end_of_record
TN:
SF:/home/lolo/Documents/fishnet/app/sda-workflow/shared/memgraph/CachingMemgraphAdjacency.hpp
FN:105,114,_ZN24CachingMemgraphAdjacencyI11ExampleNodeE17removeAdjacenciesIRNSt6ranges11filter_viewINS3_8ref_viewISt6vectorISt4pairIS0_S0_ESaIS8_EEEEZN35MemgraphTest_removeAdjacencies_Test8TestBodyEvEUlRKT_E_EEEEbOSD_
FN:107,107,_ZZN24CachingMemgraphAdjacencyI11ExampleNodeE17removeAdjacenciesIRNSt6ranges11filter_viewINS3_8ref_viewISt6vectorISt4pairIS0_S0_ESaIS8_EEEEZN35MemgraphTest_removeAdjacencies_Test8TestBodyEvEUlRKT_E_EEEEbOSD_ENKUlSF_E_clIS8_EEDaSF_
FN:11,15,_ZN24CachingMemgraphAdjacencyI11ExampleNodeE9loadEdgesEv
FN:116,118,_ZNK24CachingMemgraphAdjacencyI11ExampleNodeE8containsERKS0_
FN:120,122,_ZNK24CachingMemgraphAdjacencyI11ExampleNodeE12hasAdjacencyERKS0_S3_
FN:124,128,_ZNK24CachingMemgraphAdjacencyI11ExampleNodeE9adjacencyERKS0_
FN:125,125,_ZZNK24CachingMemgraphAdjacencyI11ExampleNodeE9adjacencyERKS0_ENKUlT_E_clImEEDaS4_
FN:130,132,_ZNK24CachingMemgraphAdjacencyI11ExampleNodeE5nodesEv
FN:134,139,_ZNK24CachingMemgraphAdjacencyI11ExampleNodeE17getAdjacencyPairsEv
FN:135,135,_ZZNK24CachingMemgraphAdjacencyI11ExampleNodeE17getAdjacencyPairsEvENKUlRKT_E_clISt4pairImmEEEDaS4_
FN:141,144,_ZN24CachingMemgraphAdjacencyI11ExampleNodeE5clearEv
FN:18,20,_ZN24CachingMemgraphAdjacencyI11ExampleNodeEC2EO14MemgraphClient
FN:22,28,_ZN24CachingMemgraphAdjacencyI11ExampleNodeE12addAdjacencyERKS0_S3_
FN:30,38,_ZN24CachingMemgraphAdjacencyI11ExampleNodeE12addAdjacencyEOS0_S2_
FN:40,51,_ZN24CachingMemgraphAdjacencyI11ExampleNodeE14addAdjacenciesIRSt6vectorISt4pairIS0_S0_ESaIS5_EEEEbOT_
FN:53,56,_ZN24CachingMemgraphAdjacencyI11ExampleNodeE7addNodeERKS0_
FN:58,65,_ZN24CachingMemgraphAdjacencyI11ExampleNodeE7addNodeEOS0_
FN:67,78,_ZN24CachingMemgraphAdjacencyI11ExampleNodeE8addNodesIRNSt6ranges14transform_viewINS3_9iota_viewImjEEZN26MemgraphTest_addNodes_Test8TestBodyEvEUlmE_EEEEbOT_
FN:67,78,_ZN24CachingMemgraphAdjacencyI11ExampleNodeE8addNodesIRNSt6ranges14transform_viewINS3_9iota_viewImjEEZN29MemgraphTest_removeNodes_Test8TestBodyEvEUlmE_EEEEbOT_
FN:80,86,_ZN24CachingMemgraphAdjacencyI11ExampleNodeE10removeNodeERKS0_
FN:88,94,_ZN24CachingMemgraphAdjacencyI11ExampleNodeE11removeNodesIRNSt6ranges9take_viewINS3_14transform_viewINS3_9iota_viewImjEEZN29MemgraphTest_removeNodes_Test8TestBodyEvEUlmE_EEEEEEbOT_
FN:88,94,_ZN24CachingMemgraphAdjacencyI11ExampleNodeE11removeNodesIRSt6vectorIS0_SaIS0_EEEEbOT_
FN:90,90,_ZZN24CachingMemgraphAdjacencyI11ExampleNodeE11removeNodesIRNSt6ranges9take_viewINS3_14transform_viewINS3_9iota_viewImjEEZN29MemgraphTest_removeNodes_Test8TestBodyEvEUlmE_EEEEEEbOT_ENKUlRKSD_E_clIS0_EEDaSG_
FN:90,90,_ZZN24CachingMemgraphAdjacencyI11ExampleNodeE11removeNodesIRSt6vectorIS0_SaIS0_EEEEbOT_ENKUlRKS7_E_clIS0_EEDaSA_
FN:97,103,_ZN24CachingMemgraphAdjacencyI11ExampleNodeE15removeAdjacencyERKS0_S3_
FNDA:1,_ZN24CachingMemgraphAdjacencyI11ExampleNodeE17removeAdjacenciesIRNSt6ranges11filter_viewINS3_8ref_viewISt6vectorISt4pairIS0_S0_ESaIS8_EEEEZN35MemgraphTest_removeAdjacencies_Test8TestBodyEvEUlRKT_E_EEEEbOSD_
FNDA:99,_ZZN24CachingMemgraphAdjacencyI11ExampleNodeE17removeAdjacenciesIRNSt6ranges11filter_viewINS3_8ref_viewISt6vectorISt4pairIS0_S0_ESaIS8_EEEEZN35MemgraphTest_removeAdjacencies_Test8TestBodyEvEUlRKT_E_EEEEbOSD_ENKUlSF_E_clIS8_EEDaSF_
FNDA:16,_ZN24CachingMemgraphAdjacencyI11ExampleNodeE9loadEdgesEv
FNDA:1513,_ZNK24CachingMemgraphAdjacencyI11ExampleNodeE8containsERKS0_
FNDA:309,_ZNK24CachingMemgraphAdjacencyI11ExampleNodeE12hasAdjacencyERKS0_S3_
FNDA:6,_ZNK24CachingMemgraphAdjacencyI11ExampleNodeE9adjacencyERKS0_
FNDA:4,_ZZNK24CachingMemgraphAdjacencyI11ExampleNodeE9adjacencyERKS0_ENKUlT_E_clImEEDaS4_
FNDA:9,_ZNK24CachingMemgraphAdjacencyI11ExampleNodeE5nodesEv
FNDA:2,_ZNK24CachingMemgraphAdjacencyI11ExampleNodeE17getAdjacencyPairsEv
FNDA:9,_ZZNK24CachingMemgraphAdjacencyI11ExampleNodeE17getAdjacencyPairsEvENKUlRKT_E_clISt4pairImmEEEDaS4_
FNDA:1,_ZN24CachingMemgraphAdjacencyI11ExampleNodeE5clearEv
FNDA:16,_ZN24CachingMemgraphAdjacencyI11ExampleNodeEC2EO14MemgraphClient
FNDA:14,_ZN24CachingMemgraphAdjacencyI11ExampleNodeE12addAdjacencyERKS0_S3_
FNDA:1,_ZN24CachingMemgraphAdjacencyI11ExampleNodeE12addAdjacencyEOS0_S2_
FNDA:2,_ZN24CachingMemgraphAdjacencyI11ExampleNodeE14addAdjacenciesIRSt6vectorISt4pairIS0_S0_ESaIS5_EEEEbOT_
FNDA:5,_ZN24CachingMemgraphAdjacencyI11ExampleNodeE7addNodeERKS0_
FNDA:5,_ZN24CachingMemgraphAdjacencyI11ExampleNodeE7addNodeEOS0_
FNDA:1,_ZN24CachingMemgraphAdjacencyI11ExampleNodeE8addNodesIRNSt6ranges14transform_viewINS3_9iota_viewImjEEZN26MemgraphTest_addNodes_Test8TestBodyEvEUlmE_EEEEbOT_
FNDA:1,_ZN24CachingMemgraphAdjacencyI11ExampleNodeE8addNodesIRNSt6ranges14transform_viewINS3_9iota_viewImjEEZN29MemgraphTest_removeNodes_Test8TestBodyEvEUlmE_EEEEbOT_
FNDA:1,_ZN24CachingMemgraphAdjacencyI11ExampleNodeE10removeNodeERKS0_
FNDA:1,_ZN24CachingMemgraphAdjacencyI11ExampleNodeE11removeNodesIRNSt6ranges9take_viewINS3_14transform_viewINS3_9iota_viewImjEEZN29MemgraphTest_removeNodes_Test8TestBodyEvEUlmE_EEEEEEbOT_
FNDA:1,_ZN24CachingMemgraphAdjacencyI11ExampleNodeE11removeNodesIRSt6vectorIS0_SaIS0_EEEEbOT_
FNDA:125,_ZZN24CachingMemgraphAdjacencyI11ExampleNodeE11removeNodesIRNSt6ranges9take_viewINS3_14transform_viewINS3_9iota_viewImjEEZN29MemgraphTest_removeNodes_Test8TestBodyEvEUlmE_EEEEEEbOT_ENKUlRKSD_E_clIS0_EEDaSG_
FNDA:2,_ZZN24CachingMemgraphAdjacencyI11ExampleNodeE11removeNodesIRSt6vectorIS0_SaIS0_EEEEbOT_ENKUlRKS7_E_clIS0_EEDaSA_
FNDA:3,_ZN24CachingMemgraphAdjacencyI11ExampleNodeE15removeAdjacencyERKS0_S3_
FNF:25
FNH:25
DA:11,16
DA:12,16
DA:13,0
DA:15,16
DA:18,16
DA:19,16
DA:20,16
DA:22,14
DA:23,14
DA:24,14
DA:25,14
DA:27,14
DA:30,1
DA:31,1
DA:32,1
DA:33,1
DA:34,1
DA:35,1
DA:37,0
DA:40,2
DA:41,2
DA:42,2
DA:43,202
DA:44,200
DA:46,2
DA:47,2
DA:48,2
DA:50,0
DA:51,2
DA:53,5
DA:54,5
DA:55,5
DA:58,5
DA:59,5
DA:60,5
DA:61,4
DA:62,4
DA:64,1
DA:67,2
DA:68,2
DA:69,2
DA:70,1252
DA:71,1250
DA:73,2
DA:74,2
DA:75,2
DA:77,0
DA:78,2
DA:80,1
DA:81,1
DA:82,1
DA:83,1
DA:85,0
DA:88,2
DA:89,2
DA:90,129
DA:91,2
DA:93,0
DA:97,3
DA:98,3
DA:99,3
DA:100,3
DA:102,0
DA:105,1
DA:106,1
DA:107,1
DA:108,99
DA:109,99
DA:111,1
DA:113,0
DA:116,1513
DA:117,1513
DA:120,309
DA:121,309
DA:124,6
DA:125,12
DA:126,4
DA:127,6
DA:130,9
DA:131,9
DA:134,2
DA:135,2
DA:136,9
DA:137,18
DA:138,2
DA:141,1
DA:142,1
DA:143,1
DA:144,1
LF:89
LH:81
end_of_record
TN:
SF:/home/lolo/Documents/fishnet/app/sda-workflow/shared/memgraph/MemgraphAdjacency.hpp
FN:104,113,_ZN17MemgraphAdjacencyI11ExampleNodeE7addNodeEOS0_
FN:115,125,_ZN17MemgraphAdjacencyI11ExampleNodeE8addNodesIRNSt6ranges14transform_viewINS3_9iota_viewImjEEZN26MemgraphTest_addNodes_Test8TestBodyEvEUlmE_EEEEbOT_
FN:115,125,_ZN17MemgraphAdjacencyI11ExampleNodeE8addNodesIRNSt6ranges14transform_viewINS3_9iota_viewImjEEZN29MemgraphTest_removeNodes_Test8TestBodyEvEUlmE_EEEEbOT_
FN:117,117,_ZZN17MemgraphAdjacencyI11ExampleNodeE8addNodesIRNSt6ranges14transform_viewINS3_9iota_viewImjEEZN26MemgraphTest_addNodes_Test8TestBodyEvEUlmE_EEEEbOT_ENKUlRKSB_E_clIS0_EEDaSE_
FN:117,117,_ZZN17MemgraphAdjacencyI11ExampleNodeE8addNodesIRNSt6ranges14transform_viewINS3_9iota_viewImjEEZN29MemgraphTest_removeNodes_Test8TestBodyEvEUlmE_EEEEbOT_ENKUlRKSB_E_clIS0_EEDaSE_
FN:118,118,_ZZN17MemgraphAdjacencyI11ExampleNodeE8addNodesIRNSt6ranges14transform_viewINS3_9iota_viewImjEEZN26MemgraphTest_addNodes_Test8TestBodyEvEUlmE_EEEEbOT_ENKUlRKSB_E0_clIS0_EEDaSE_
FN:118,118,_ZZN17MemgraphAdjacencyI11ExampleNodeE8addNodesIRNSt6ranges14transform_viewINS3_9iota_viewImjEEZN29MemgraphTest_removeNodes_Test8TestBodyEvEUlmE_EEEEbOT_ENKUlRKSB_E0_clIS0_EEDaSE_
FN:120,120,_ZZN17MemgraphAdjacencyI11ExampleNodeE8addNodesIRNSt6ranges14transform_viewINS3_9iota_viewImjEEZN26MemgraphTest_addNodes_Test8TestBodyEvEUlmE_EEEEbOT_ENKUlRKSB_E1_clIS0_EEDaSE_
FN:120,120,_ZZN17MemgraphAdjacencyI11ExampleNodeE8addNodesIRNSt6ranges14transform_viewINS3_9iota_viewImjEEZN29MemgraphTest_removeNodes_Test8TestBodyEvEUlmE_EEEEbOT_ENKUlRKSB_E1_clIS0_EEDaSE_
FN:127,133,_ZN17MemgraphAdjacencyI11ExampleNodeE10removeNodeERKS0_
FN:135,143,_ZN17MemgraphAdjacencyI11ExampleNodeE11removeNodesIRNSt6ranges9take_viewINS3_14transform_viewINS3_9iota_viewImjEEZN29MemgraphTest_removeNodes_Test8TestBodyEvEUlmE_EEEEEEbOT_
FN:135,143,_ZN17MemgraphAdjacencyI11ExampleNodeE11removeNodesIRSt6vectorIS0_SaIS0_EEEEbOT_
FN:137,137,_ZZN17MemgraphAdjacencyI11ExampleNodeE11removeNodesIRNSt6ranges9take_viewINS3_14transform_viewINS3_9iota_viewImjEEZN29MemgraphTest_removeNodes_Test8TestBodyEvEUlmE_EEEEEEbOT_ENKUlRKSD_E_clIS0_EEDaSG_
FN:137,137,_ZZN17MemgraphAdjacencyI11ExampleNodeE11removeNodesIRSt6vectorIS0_SaIS0_EEEEbOT_ENKUlRKS7_E_clIS0_EEDaSA_
FN:139,139,_ZZN17MemgraphAdjacencyI11ExampleNodeE11removeNodesIRNSt6ranges9take_viewINS3_14transform_viewINS3_9iota_viewImjEEZN29MemgraphTest_removeNodes_Test8TestBodyEvEUlmE_EEEEEEbOT_ENKUlRKSD_E0_clIS0_EEDaSG_
FN:139,139,_ZZN17MemgraphAdjacencyI11ExampleNodeE11removeNodesIRSt6vectorIS0_SaIS0_EEEEbOT_ENKUlRKS7_E0_clIS0_EEDaSA_
FN:145,147,_ZN17MemgraphAdjacencyI11ExampleNodeE15removeAdjacencyERKS0_S3_
FN:149,153,_ZN17MemgraphAdjacencyI11ExampleNodeE17removeAdjacenciesIRNSt6ranges11filter_viewINS3_8ref_viewISt6vectorISt4pairIS0_S0_ESaIS8_EEEEZN35MemgraphTest_removeAdjacencies_Test8TestBodyEvEUlRKT_E_EEEEbOSD_
FN:151,151,_ZZN17MemgraphAdjacencyI11ExampleNodeE17removeAdjacenciesIRNSt6ranges11filter_viewINS3_8ref_viewISt6vectorISt4pairIS0_S0_ESaIS8_EEEEZN35MemgraphTest_removeAdjacencies_Test8TestBodyEvEUlRKT_E_EEEEbOSD_ENKUlSF_E_clIS8_EEDaSF_
FN:155,159,_ZNK17MemgraphAdjacencyI11ExampleNodeE8containsERKS0_
FN:161,163,_ZNK17MemgraphAdjacencyI11ExampleNodeE12hasAdjacencyERKS0_S3_
FN:165,170,_ZNK17MemgraphAdjacencyI11ExampleNodeE9adjacencyERKS0_
FN:168,168,_ZZNK17MemgraphAdjacencyI11ExampleNodeE9adjacencyERKS0_ENKUlRKT_E_clISt4pairIKmS0_EEEDaS6_
FN:169,169,_ZZNK17MemgraphAdjacencyI11ExampleNodeE9adjacencyERKS0_ENKUlRKT_E0_clISt4pairIKmS0_EEEDaS6_
FN:172,174,_ZNK17MemgraphAdjacencyI11ExampleNodeE5nodesEv
FN:177,190,_ZNK17MemgraphAdjacencyI11ExampleNodeE17getAdjacencyPairsEv
FN:179,179,_ZZNK17MemgraphAdjacencyI11ExampleNodeE17getAdjacencyPairsEvENKUlmE_clEm
FN:181,181,_ZZNK17MemgraphAdjacencyI11ExampleNodeE17getAdjacencyPairsEvENKUlRKT_E_clISt4pairIKmS0_EEEDaS4_
FN:184,184,_ZZZNK17MemgraphAdjacencyI11ExampleNodeE17getAdjacencyPairsEvENKUlRKT_E_clISt4pairIKmS0_EEEDaS4_ENKUlmE_clEm
FN:185,185,_ZZZNK17MemgraphAdjacencyI11ExampleNodeE17getAdjacencyPairsEvENKUlRKT_E_clISt4pairIKmS0_EEEDaS4_ENKUlmE0_clEm
FN:192,194,_ZNK17MemgraphAdjacencyI11ExampleNodeE21getDatabaseConnectionEv
FN:196,199,_ZN17MemgraphAdjacencyI11ExampleNodeE5clearEv
FN:197,197,_ZZN17MemgraphAdjacencyI11ExampleNodeE5clearEvENKUlmE_clEm
FN:47,49,_ZN17MemgraphAdjacencyI11ExampleNodeE19createNodeReferenceERKS0_
FN:51,53,_ZN17MemgraphAdjacencyI11ExampleNodeE17storeInKeyNodeMapERKS0_
FN:55,57,_ZN17MemgraphAdjacencyI11ExampleNodeE17storeInKeyNodeMapEOS0_
FN:59,61,_ZN17MemgraphAdjacencyI11ExampleNodeE20removeFromKeyNodeMapERKS0_
FN:64,64,_ZN17MemgraphAdjacencyI11ExampleNodeEC2EO14MemgraphClient
FN:70,74,_ZN17MemgraphAdjacencyI11ExampleNodeE12addAdjacencyERKS0_S3_
FN:76,85,_ZN17MemgraphAdjacencyI11ExampleNodeE12addAdjacencyEOS0_S2_
FN:87,97,_ZN17MemgraphAdjacencyI11ExampleNodeE14addAdjacenciesISt6vectorISt4pairIS0_S0_ESaIS5_EEEEbOT_
FN:88,88,_ZZN17MemgraphAdjacencyI11ExampleNodeE14addAdjacenciesISt6vectorISt4pairIS0_S0_ESaIS5_EEEEbOT_ENKUlRKS8_E_clIS5_EEDaSB_
FNDA:5,_ZN17MemgraphAdjacencyI11ExampleNodeE7addNodeEOS0_
FNDA:1,_ZN17MemgraphAdjacencyI11ExampleNodeE8addNodesIRNSt6ranges14transform_viewINS3_9iota_viewImjEEZN26MemgraphTest_addNodes_Test8TestBodyEvEUlmE_EEEEbOT_
FNDA:1,_ZN17MemgraphAdjacencyI11ExampleNodeE8addNodesIRNSt6ranges14transform_viewINS3_9iota_viewImjEEZN29MemgraphTest_removeNodes_Test8TestBodyEvEUlmE_EEEEbOT_
FNDA:1000,_ZZN17MemgraphAdjacencyI11ExampleNodeE8addNodesIRNSt6ranges14transform_viewINS3_9iota_viewImjEEZN26MemgraphTest_addNodes_Test8TestBodyEvEUlmE_EEEEbOT_ENKUlRKSB_E_clIS0_EEDaSE_
FNDA:250,_ZZN17MemgraphAdjacencyI11ExampleNodeE8addNodesIRNSt6ranges14transform_viewINS3_9iota_viewImjEEZN29MemgraphTest_removeNodes_Test8TestBodyEvEUlmE_EEEEbOT_ENKUlRKSB_E_clIS0_EEDaSE_
FNDA:1000,_ZZN17MemgraphAdjacencyI11ExampleNodeE8addNodesIRNSt6ranges14transform_viewINS3_9iota_viewImjEEZN26MemgraphTest_addNodes_Test8TestBodyEvEUlmE_EEEEbOT_ENKUlRKSB_E0_clIS0_EEDaSE_
FNDA:250,_ZZN17MemgraphAdjacencyI11ExampleNodeE8addNodesIRNSt6ranges14transform_viewINS3_9iota_viewImjEEZN29MemgraphTest_removeNodes_Test8TestBodyEvEUlmE_EEEEbOT_ENKUlRKSB_E0_clIS0_EEDaSE_
FNDA:1000,_ZZN17MemgraphAdjacencyI11ExampleNodeE8addNodesIRNSt6ranges14transform_viewINS3_9iota_viewImjEEZN26MemgraphTest_addNodes_Test8TestBodyEvEUlmE_EEEEbOT_ENKUlRKSB_E1_clIS0_EEDaSE_
FNDA:250,_ZZN17MemgraphAdjacencyI11ExampleNodeE8addNodesIRNSt6ranges14transform_viewINS3_9iota_viewImjEEZN29MemgraphTest_removeNodes_Test8TestBodyEvEUlmE_EEEEbOT_ENKUlRKSB_E1_clIS0_EEDaSE_
FNDA:1,_ZN17MemgraphAdjacencyI11ExampleNodeE10removeNodeERKS0_
FNDA:1,_ZN17MemgraphAdjacencyI11ExampleNodeE11removeNodesIRNSt6ranges9take_viewINS3_14transform_viewINS3_9iota_viewImjEEZN29MemgraphTest_removeNodes_Test8TestBodyEvEUlmE_EEEEEEbOT_
FNDA:1,_ZN17MemgraphAdjacencyI11ExampleNodeE11removeNodesIRSt6vectorIS0_SaIS0_EEEEbOT_
FNDA:125,_ZZN17MemgraphAdjacencyI11ExampleNodeE11removeNodesIRNSt6ranges9take_viewINS3_14transform_viewINS3_9iota_viewImjEEZN29MemgraphTest_removeNodes_Test8TestBodyEvEUlmE_EEEEEEbOT_ENKUlRKSD_E_clIS0_EEDaSG_
FNDA:2,_ZZN17MemgraphAdjacencyI11ExampleNodeE11removeNodesIRSt6vectorIS0_SaIS0_EEEEbOT_ENKUlRKS7_E_clIS0_EEDaSA_
FNDA:125,_ZZN17MemgraphAdjacencyI11ExampleNodeE11removeNodesIRNSt6ranges9take_viewINS3_14transform_viewINS3_9iota_viewImjEEZN29MemgraphTest_removeNodes_Test8TestBodyEvEUlmE_EEEEEEbOT_ENKUlRKSD_E0_clIS0_EEDaSG_
FNDA:2,_ZZN17MemgraphAdjacencyI11ExampleNodeE11removeNodesIRSt6vectorIS0_SaIS0_EEEEbOT_ENKUlRKS7_E0_clIS0_EEDaSA_
FNDA:3,_ZN17MemgraphAdjacencyI11ExampleNodeE15removeAdjacencyERKS0_S3_
FNDA:1,_ZN17MemgraphAdjacencyI11ExampleNodeE17removeAdjacenciesIRNSt6ranges11filter_viewINS3_8ref_viewISt6vectorISt4pairIS0_S0_ESaIS8_EEEEZN35MemgraphTest_removeAdjacencies_Test8TestBodyEvEUlRKT_E_EEEEbOSD_
FNDA:99,_ZZN17MemgraphAdjacencyI11ExampleNodeE17removeAdjacenciesIRNSt6ranges11filter_viewINS3_8ref_viewISt6vectorISt4pairIS0_S0_ESaIS8_EEEEZN35MemgraphTest_removeAdjacencies_Test8TestBodyEvEUlRKT_E_EEEEbOSD_ENKUlSF_E_clIS8_EEDaSF_
FNDA:5,_ZNK17MemgraphAdjacencyI11ExampleNodeE8containsERKS0_
FNDA:18,_ZNK17MemgraphAdjacencyI11ExampleNodeE12hasAdjacencyERKS0_S3_
FNDA:1,_ZNK17MemgraphAdjacencyI11ExampleNodeE9adjacencyERKS0_
FNDA:2,_ZZNK17MemgraphAdjacencyI11ExampleNodeE9adjacencyERKS0_ENKUlRKT_E_clISt4pairIKmS0_EEEDaS6_
FNDA:1,_ZZNK17MemgraphAdjacencyI11ExampleNodeE9adjacencyERKS0_ENKUlRKT_E0_clISt4pairIKmS0_EEEDaS6_
FNDA:9,_ZNK17MemgraphAdjacencyI11ExampleNodeE5nodesEv
FNDA:16,_ZNK17MemgraphAdjacencyI11ExampleNodeE17getAdjacencyPairsEv
FNDA:0,_ZZNK17MemgraphAdjacencyI11ExampleNodeE17getAdjacencyPairsEvENKUlmE_clEm
FNDA:0,_ZZNK17MemgraphAdjacencyI11ExampleNodeE17getAdjacencyPairsEvENKUlRKT_E_clISt4pairIKmS0_EEEDaS4_
FNDA:0,_ZZZNK17MemgraphAdjacencyI11ExampleNodeE17getAdjacencyPairsEvENKUlRKT_E_clISt4pairIKmS0_EEEDaS4_ENKUlmE_clEm
FNDA:0,_ZZZNK17MemgraphAdjacencyI11ExampleNodeE17getAdjacencyPairsEvENKUlRKT_E_clISt4pairIKmS0_EEEDaS4_ENKUlmE0_clEm
FNDA:32,_ZNK17MemgraphAdjacencyI11ExampleNodeE21getDatabaseConnectionEv
FNDA:1,_ZN17MemgraphAdjacencyI11ExampleNodeE5clearEv
FNDA:4,_ZZN17MemgraphAdjacencyI11ExampleNodeE5clearEvENKUlmE_clEm
FNDA:2021,_ZN17MemgraphAdjacencyI11ExampleNodeE19createNodeReferenceERKS0_
FNDA:1650,_ZN17MemgraphAdjacencyI11ExampleNodeE17storeInKeyNodeMapERKS0_
FNDA:38,_ZN17MemgraphAdjacencyI11ExampleNodeE17storeInKeyNodeMapEOS0_
FNDA:127,_ZN17MemgraphAdjacencyI11ExampleNodeE20removeFromKeyNodeMapERKS0_
FNDA:17,_ZN17MemgraphAdjacencyI11ExampleNodeEC2EO14MemgraphClient
FNDA:16,_ZN17MemgraphAdjacencyI11ExampleNodeE12addAdjacencyERKS0_S3_
FNDA:17,_ZN17MemgraphAdjacencyI11ExampleNodeE12addAdjacencyEOS0_S2_
FNDA:2,_ZN17MemgraphAdjacencyI11ExampleNodeE14addAdjacenciesISt6vectorISt4pairIS0_S0_ESaIS5_EEEEbOT_
FNDA:200,_ZZN17MemgraphAdjacencyI11ExampleNodeE14addAdjacenciesISt6vectorISt4pairIS0_S0_ESaIS5_EEEEbOT_ENKUlRKS8_E_clIS5_EEDaSB_
FNF:42
FNH:38
DA:47,2021
DA:48,2021
DA:51,1650
DA:52,1650
DA:53,1650
DA:55,38
DA:56,38
DA:57,38
DA:59,127
DA:60,127
DA:61,127
DA:64,17
DA:70,16
DA:71,16
DA:72,16
DA:73,16
DA:76,17
DA:77,17
DA:78,0
DA:79,17
DA:80,17
DA:81,17
DA:82,17
DA:84,0
DA:87,2
DA:88,202
DA:89,2
DA:90,202
DA:91,200
DA:92,200
DA:94,2
DA:96,0
DA:104,5
DA:105,5
DA:106,1
DA:108,4
DA:109,4
DA:110,4
DA:112,0
DA:115,2
DA:116,2
DA:117,1252
DA:118,1254
DA:120,1252
DA:121,2
DA:123,0
DA:127,1
DA:128,1
DA:129,1
DA:130,1
DA:132,0
DA:135,2
DA:136,2
DA:137,131
DA:139,129
DA:140,2
DA:142,0
DA:145,3
DA:146,3
DA:149,1
DA:150,1
DA:151,101
DA:152,2
DA:155,5
DA:156,5
DA:157,1
DA:158,4
DA:161,18
DA:162,18
DA:165,1
DA:166,1
DA:167,1
DA:168,4
DA:169,4
DA:170,1
DA:172,9
DA:173,9
DA:177,16
DA:178,16
DA:179,0
DA:180,16
DA:181,0
DA:182,0
DA:184,0
DA:185,0
DA:186,0
DA:187,0
DA:189,32
DA:190,16
DA:192,32
DA:193,32
DA:196,1
DA:197,5
DA:198,1
DA:199,1
LF:95
LH:81
end_of_record
TN:
SF:/home/lolo/Documents/fishnet/app/sda-workflow/shared/memgraph/MemgraphClient.hpp
FN:108,122,_ZNK14MemgraphClient10insertEdgeERK13NodeReferenceS2_
FN:128,149,_ZNK14MemgraphClient11insertEdgesIRNSt6ranges14transform_viewINS1_8ref_viewISt6vectorISt4pairI11ExampleNodeS6_ESaIS7_EEEEZN17MemgraphAdjacencyIS6_E14addAdjacenciesIS9_EEbOT_EUlRKSE_E_EEEEbSF_
FN:151,159,_ZNK14MemgraphClient10insertNodeERK13NodeReference
FN:161,176,_ZNK14MemgraphClient11insertNodesINSt6ranges14transform_viewINS1_11filter_viewINS2_INS1_9iota_viewImjEEZN26MemgraphTest_addNodes_Test8TestBodyEvEUlmE_EEZN17MemgraphAdjacencyI11ExampleNodeE8addNodesIRS8_EEbOT_EUlRKSE_E_EEZNSC_ISD_EEbSF_EUlSH_E0_EEEEbSF_
FN:161,176,_ZNK14MemgraphClient11insertNodesINSt6ranges14transform_viewINS1_11filter_viewINS2_INS1_9iota_viewImjEEZN29MemgraphTest_removeNodes_Test8TestBodyEvEUlmE_EEZN17MemgraphAdjacencyI11ExampleNodeE8addNodesIRS8_EEbOT_EUlRKSE_E_EEZNSC_ISD_EEbSF_EUlSH_E0_EEEEbSF_
FN:178,184,_ZNK14MemgraphClient10removeNodeERK13NodeReference
FN:186,199,_ZNK14MemgraphClient11removeNodesINSt6ranges14transform_viewINS1_13elements_viewINS1_8ref_viewISt13unordered_mapIm11ExampleNodeSt4hashImESt8equal_toImESaISt4pairIKmS6_EEEEELm0EEEZN17MemgraphAdjacencyIS6_E5clearEvEUlmE_EEEEbOT_
FN:186,199,_ZNK14MemgraphClient11removeNodesINSt6ranges14transform_viewINS1_8ref_viewISt6vectorI11ExampleNodeSaIS5_EEEEZN17MemgraphAdjacencyIS5_E11removeNodesIRS7_EEbOT_EUlRKSD_E_EEEEbSE_
FN:186,199,_ZNK14MemgraphClient11removeNodesINSt6ranges14transform_viewINS1_9take_viewINS2_INS1_9iota_viewImjEEZN29MemgraphTest_removeNodes_Test8TestBodyEvEUlmE_EEEEZN17MemgraphAdjacencyI11ExampleNodeE11removeNodesIRS9_EEbOT_EUlRKSF_E_EEEEbSG_
FN:201,208,_ZNK14MemgraphClient10removeEdgeERK13NodeReferenceS2_
FN:210,224,_ZNK14MemgraphClient11removeEdgesINSt6ranges14transform_viewINS1_11filter_viewINS1_8ref_viewISt6vectorISt4pairI11ExampleNodeS7_ESaIS8_EEEEZN35MemgraphTest_removeAdjacencies_Test8TestBodyEvEUlRKT_E_EEZN17MemgraphAdjacencyIS7_E17removeAdjacenciesIRSH_EEbOSD_EUlSF_E_EEEEbSM_
FN:284,290,_ZNK14MemgraphClient12containsNodeEm
FN:292,305,_ZNK14MemgraphClient12containsEdgeEmm
FN:307,325,_ZNK14MemgraphClient9adjacencyERK13NodeReference
FN:327,345,_ZNK14MemgraphClient5edgesEv
FN:385,387,_ZNK14MemgraphClient8clearAllEv
FN:44,46,_ZN14MemgraphClient5asIntEm
FN:48,50,_ZN14MemgraphClient12asNodeIdTypeEl
FN:52,56,_ZN14MemgraphClientC2EO18MemgraphConnection
FN:68,72,_ZNK14MemgraphClient17createConstraintsEv
FN:74,81,_ZNK14MemgraphClient13createIndexesEv
FN:89,106,_ZNK14MemgraphClient16addFileReferenceERKNSt10filesystem7__cxx114pathE
FNDA:17,_ZNK14MemgraphClient10insertEdgeERK13NodeReferenceS2_
FNDA:2,_ZNK14MemgraphClient11insertEdgesIRNSt6ranges14transform_viewINS1_8ref_viewISt6vectorISt4pairI11ExampleNodeS6_ESaIS7_EEEEZN17MemgraphAdjacencyIS6_E14addAdjacenciesIS9_EEbOT_EUlRKSE_E_EEEEbSF_
FNDA:4,_ZNK14MemgraphClient10insertNodeERK13NodeReference
FNDA:1,_ZNK14MemgraphClient11insertNodesINSt6ranges14transform_viewINS1_11filter_viewINS2_INS1_9iota_viewImjEEZN26MemgraphTest_addNodes_Test8TestBodyEvEUlmE_EEZN17MemgraphAdjacencyI11ExampleNodeE8addNodesIRS8_EEbOT_EUlRKSE_E_EEZNSC_ISD_EEbSF_EUlSH_E0_EEEEbSF_
FNDA:1,_ZNK14MemgraphClient11insertNodesINSt6ranges14transform_viewINS1_11filter_viewINS2_INS1_9iota_viewImjEEZN29MemgraphTest_removeNodes_Test8TestBodyEvEUlmE_EEZN17MemgraphAdjacencyI11ExampleNodeE8addNodesIRS8_EEbOT_EUlRKSE_E_EEZNSC_ISD_EEbSF_EUlSH_E0_EEEEbSF_
FNDA:1,_ZNK14MemgraphClient10removeNodeERK13NodeReference
FNDA:1,_ZNK14MemgraphClient11removeNodesINSt6ranges14transform_viewINS1_13elements_viewINS1_8ref_viewISt13unordered_mapIm11ExampleNodeSt4hashImESt8equal_toImESaISt4pairIKmS6_EEEEELm0EEEZN17MemgraphAdjacencyIS6_E5clearEvEUlmE_EEEEbOT_
FNDA:1,_ZNK14MemgraphClient11removeNodesINSt6ranges14transform_viewINS1_8ref_viewISt6vectorI11ExampleNodeSaIS5_EEEEZN17MemgraphAdjacencyIS5_E11removeNodesIRS7_EEbOT_EUlRKSD_E_EEEEbSE_
FNDA:1,_ZNK14MemgraphClient11removeNodesINSt6ranges14transform_viewINS1_9take_viewINS2_INS1_9iota_viewImjEEZN29MemgraphTest_removeNodes_Test8TestBodyEvEUlmE_EEEEZN17MemgraphAdjacencyI11ExampleNodeE11removeNodesIRS9_EEbOT_EUlRKSF_E_EEEEbSG_
FNDA:3,_ZNK14MemgraphClient10removeEdgeERK13NodeReferenceS2_
FNDA:1,_ZNK14MemgraphClient11removeEdgesINSt6ranges14transform_viewINS1_11filter_viewINS1_8ref_viewISt6vectorISt4pairI11ExampleNodeS7_ESaIS8_EEEEZN35MemgraphTest_removeAdjacencies_Test8TestBodyEvEUlRKT_E_EEZN17MemgraphAdjacencyIS7_E17removeAdjacenciesIRSH_EEbOSD_EUlSF_E_EEEEbSM_
FNDA:4,_ZNK14MemgraphClient12containsNodeEm
FNDA:18,_ZNK14MemgraphClient12containsEdgeEmm
FNDA:1,_ZNK14MemgraphClient9adjacencyERK13NodeReference
FNDA:16,_ZNK14MemgraphClient5edgesEv
FNDA:16,_ZNK14MemgraphClient8clearAllEv
FNDA:3629,_ZN14MemgraphClient5asIntEm
FNDA:1,_ZN14MemgraphClient12asNodeIdTypeEl
FNDA:17,_ZN14MemgraphClientC2EO18MemgraphConnection
FNDA:17,_ZNK14MemgraphClient17createConstraintsEv
FNDA:17,_ZNK14MemgraphClient13createIndexesEv
FNDA:16,_ZNK14MemgraphClient16addFileReferenceERKNSt10filesystem7__cxx114pathE
FNF:22
FNH:22
DA:44,3629
DA:45,3629
DA:48,1
DA:49,1
DA:52,17
DA:53,17
DA:54,0
DA:56,17
DA:68,17
DA:69,17
DA:70,34
DA:71,34
DA:74,17
DA:75,17
DA:76,34
DA:77,34
DA:78,34
DA:79,34
DA:80,34
DA:89,16
DA:90,16
DA:91,16
DA:92,0
DA:94,16
DA:95,16
DA:96,16
DA:97,16
DA:98,16
DA:99,0
DA:101,16
DA:102,16
DA:103,16
DA:105,0
DA:106,16
DA:108,17
DA:109,34
DA:110,17
DA:111,17
DA:112,17
DA:113,17
DA:114,17
DA:115,17
DA:116,17
DA:117,34
DA:118,17
DA:119,17
DA:120,17
DA:121,17
DA:128,2
DA:129,2
DA:130,2
DA:131,2
DA:132,2
DA:133,2
DA:134,2
DA:135,2
DA:136,2
DA:137,2
DA:138,2
DA:139,202
DA:140,200
DA:141,200
DA:142,200
DA:143,200
DA:144,200
DA:145,200
DA:147,2
DA:148,2
DA:149,2
DA:151,4
DA:152,8
DA:153,4
DA:154,4
DA:155,4
DA:156,8
DA:157,4
DA:158,4
DA:161,2
DA:162,2
DA:163,2
DA:164,2
DA:165,2
DA:166,2
DA:167,2
DA:168,1252
DA:169,1250
DA:170,1250
DA:171,1250
DA:172,1250
DA:174,2
DA:175,2
DA:176,2
DA:178,1
DA:179,2
DA:180,1
DA:181,2
DA:182,1
DA:183,1
DA:186,3
DA:187,3
DA:188,3
DA:189,3
DA:190,3
DA:191,3
DA:192,134
DA:193,131
DA:194,131
DA:195,131
DA:197,3
DA:198,3
DA:199,3
DA:201,3
DA:202,6
DA:203,3
DA:204,3
DA:205,6
DA:206,3
DA:207,3
DA:210,1
DA:211,1
DA:212,1
DA:213,1
DA:214,1
DA:215,1
DA:216,100
DA:217,99
DA:218,99
DA:219,99
DA:220,99
DA:222,1
DA:223,1
DA:224,1
DA:284,4
DA:285,4
DA:286,4
DA:287,4
DA:288,4
DA:289,0
DA:292,18
DA:293,18
DA:294,36
DA:295,18
DA:296,18
DA:297,18
DA:298,18
DA:299,18
DA:301,18
DA:302,18
DA:303,18
DA:304,0
DA:307,1
DA:308,1
DA:309,2
DA:310,1
DA:311,1
DA:312,1
DA:313,1
DA:315,1
DA:316,2
DA:317,1
DA:318,1
DA:319,1
DA:321,3
DA:322,1
DA:323,1
DA:324,0
DA:327,16
DA:328,16
DA:329,32
DA:330,16
DA:331,16
DA:332,16
DA:334,16
DA:335,16
DA:336,0
DA:337,0
DA:338,0
DA:339,0
DA:340,0
DA:341,16
DA:342,16
DA:343,16
DA:344,0
DA:385,16
DA:386,16
LF:185
LH:172
end_of_record
TN:
SF:/home/lolo/Documents/fishnet/app/sda-workflow/shared/memgraph/MemgraphConnection.hpp
FN:100,103,_ZN5Query6appendIRA10_KcEERS_OT_
FN:100,103,_ZN5Query6appendIRA14_KcEERS_OT_
FN:100,103,_ZN5Query6appendIRA22_KcEERS_OT_
FN:100,103,_ZN5Query6appendIRA25_KcEERS_OT_
FN:100,103,_ZN5Query6appendIRA26_KcEERS_OT_
FN:100,103,_ZN5Query6appendIRA27_KcEERS_OT_
FN:100,103,_ZN5Query6appendIRA29_KcEERS_OT_
FN:100,103,_ZN5Query6appendIRA30_KcEERS_OT_
FN:100,103,_ZN5Query6appendIRA31_KcEERS_OT_
FN:100,103,_ZN5Query6appendIRA33_KcEERS_OT_
FN:100,103,_ZN5Query6appendIRA51_KcEERS_OT_
FN:100,103,_ZN5Query6appendIRA52_KcEERS_OT_
FN:106,109,_ZN5Query4lineIRA11_KcEERS_OT_
FN:106,109,_ZN5Query4lineIRA16_KcEERS_OT_
FN:106,109,_ZN5Query4lineIRA17_KcEERS_OT_
FN:106,109,_ZN5Query4lineIRA32_KcEERS_OT_
FN:106,109,_ZN5Query4lineIRA9_KcEERS_OT_
FN:124,129,_ZN5Query7executeERK18MemgraphConnection
FN:131,136,_ZN5Query17executeAndDiscardERK18MemgraphConnection
FN:148,148,_ZN18ParameterizedQueryC2Ev
FN:15,16,_ZN18MemgraphConnectionC2EOSt10unique_ptrIN2mg6ClientESt14default_deleteIS2_EERKNS2_6ParamsE
FN:153,156,_ZN18ParameterizedQueryC2ERKS_
FN:168,179,_ZN18ParameterizedQueryplERKS_
FN:18,20,_ZN18MemgraphConnectionC2EOS_
FN:187,190,_ZN18ParameterizedQuery6appendIRA13_KcEERS_OT_
FN:187,190,_ZN18ParameterizedQuery6appendIRA28_KcEERS_OT_
FN:193,196,_ZN18ParameterizedQuery4lineINSt7__cxx1112basic_stringIcSt11char_traitsIcESaIcEEEEERS_OT_
FN:193,196,_ZN18ParameterizedQuery4lineIRA12_KcEERS_OT_
FN:193,196,_ZN18ParameterizedQuery4lineIRA13_KcEERS_OT_
FN:193,196,_ZN18ParameterizedQuery4lineIRA16_KcEERS_OT_
FN:193,196,_ZN18ParameterizedQuery4lineIRA17_KcEERS_OT_
FN:193,196,_ZN18ParameterizedQuery4lineIRA21_KcEERS_OT_
FN:193,196,_ZN18ParameterizedQuery4lineIRA22_KcEERS_OT_
FN:193,196,_ZN18ParameterizedQuery4lineIRA24_KcEERS_OT_
FN:193,196,_ZN18ParameterizedQuery4lineIRA25_KcEERS_OT_
FN:193,196,_ZN18ParameterizedQuery4lineIRA26_KcEERS_OT_
FN:193,196,_ZN18ParameterizedQuery4lineIRA28_KcEERS_OT_
FN:193,196,_ZN18ParameterizedQuery4lineIRA29_KcEERS_OT_
FN:193,196,_ZN18ParameterizedQuery4lineIRA30_KcEERS_OT_
FN:193,196,_ZN18ParameterizedQuery4lineIRA32_KcEERS_OT_
FN:193,196,_ZN18ParameterizedQuery4lineIRA37_KcEERS_OT_
FN:193,196,_ZN18ParameterizedQuery4lineIRA39_KcEERS_OT_
FN:193,196,_ZN18ParameterizedQuery4lineIRA40_KcEERS_OT_
FN:193,196,_ZN18ParameterizedQuery4lineIRA41_KcEERS_OT_
FN:193,196,_ZN18ParameterizedQuery4lineIRA43_KcEERS_OT_
FN:193,196,_ZN18ParameterizedQuery4lineIRA51_KcEERS_OT_
FN:193,196,_ZN18ParameterizedQuery4lineIRA52_KcEERS_OT_
FN:193,196,_ZN18ParameterizedQuery4lineIRA54_KcEERS_OT_
FN:193,196,_ZN18ParameterizedQuery4lineIRA57_KcEERS_OT_
FN:193,196,_ZN18ParameterizedQuery4lineIRA59_KcEERS_OT_
FN:193,196,_ZN18ParameterizedQuery4lineIRA9_KcEERS_OT_
FN:202,205,_ZN18ParameterizedQuery3setESt17basic_string_viewIcSt11char_traitsIcEEON2mg5ValueE
FN:207,210,_ZN18ParameterizedQuery6setIntESt17basic_string_viewIcSt11char_traitsIcEEl
FN:212,215,_ZN18ParameterizedQuery6setIntESt17basic_string_viewIcSt11char_traitsIcEEm
FN:22,25,_ZN18MemgraphConnectionaSEOS_
FN:221,223,_ZNK18ParameterizedQuery8getQueryB5cxx11Ev
FN:225,227,_ZN18ParameterizedQuery8getQueryB5cxx11Ev
FN:234,248,_ZN18ParameterizedQuery7executeERK18MemgraphConnection
FN:250,255,_ZN18ParameterizedQuery17executeAndDiscardERK18MemgraphConnection
FN:27,30,_ZNK18MemgraphConnection5retryEv
FN:37,48,_ZN18MemgraphConnection6createB5cxx11ERKN2mg6Client6ParamsE
FN:57,63,_ZN18MemgraphConnection6createENSt7__cxx1112basic_stringIcSt11char_traitsIcESaIcEEEt
FN:69,71,_ZNK18MemgraphConnection11isConnectedEv
FN:73,75,_ZNK18MemgraphConnectionptEv
FN:77,80,_ZN18MemgraphConnectionD2Ev
FN:93,95,_ZN5QueryC2IRA10_KcEEOT_
FN:93,95,_ZN5QueryC2IRA14_KcEEOT_
FN:93,95,_ZN5QueryC2IRA22_KcEEOT_
FN:93,95,_ZN5QueryC2IRA25_KcEEOT_
FN:93,95,_ZN5QueryC2IRA26_KcEEOT_
FN:93,95,_ZN5QueryC2IRA27_KcEEOT_
FN:93,95,_ZN5QueryC2IRA29_KcEEOT_
FN:93,95,_ZN5QueryC2IRA30_KcEEOT_
FN:93,95,_ZN5QueryC2IRA31_KcEEOT_
FN:93,95,_ZN5QueryC2IRA33_KcEEOT_
FN:93,95,_ZN5QueryC2IRA51_KcEEOT_
FN:93,95,_ZN5QueryC2IRA52_KcEEOT_
FN:97,97,_ZN5QueryC2Ev
FNDA:16,_ZN5Query6appendIRA10_KcEERS_OT_
FNDA:23,_ZN5Query6appendIRA14_KcEERS_OT_
FNDA:17,_ZN5Query6appendIRA22_KcEERS_OT_
FNDA:15,_ZN5Query6appendIRA25_KcEERS_OT_
FNDA:34,_ZN5Query6appendIRA26_KcEERS_OT_
FNDA:17,_ZN5Query6appendIRA27_KcEERS_OT_
FNDA:32,_ZN5Query6appendIRA29_KcEERS_OT_
FNDA:17,_ZN5Query6appendIRA30_KcEERS_OT_
FNDA:15,_ZN5Query6appendIRA31_KcEERS_OT_
FNDA:22,_ZN5Query6appendIRA33_KcEERS_OT_
FNDA:45,_ZN5Query6appendIRA51_KcEERS_OT_
FNDA:66,_ZN5Query6appendIRA52_KcEERS_OT_
FNDA:22,_ZN5Query4lineIRA11_KcEERS_OT_
FNDA:16,_ZN5Query4lineIRA16_KcEERS_OT_
FNDA:16,_ZN5Query4lineIRA17_KcEERS_OT_
FNDA:16,_ZN5Query4lineIRA32_KcEERS_OT_
FNDA:23,_ZN5Query4lineIRA9_KcEERS_OT_
FNDA:61,_ZN5Query7executeERK18MemgraphConnection
FNDA:274,_ZN5Query17executeAndDiscardERK18MemgraphConnection
FNDA:235,_ZN18ParameterizedQueryC2Ev
FNDA:32,_ZN18MemgraphConnectionC2EOSt10unique_ptrIN2mg6ClientESt14default_deleteIS2_EERKNS2_6ParamsE
FNDA:119,_ZN18ParameterizedQueryC2ERKS_
FNDA:31,_ZN18ParameterizedQueryplERKS_
FNDA:114,_ZN18MemgraphConnectionC2EOS_
FNDA:16,_ZN18ParameterizedQuery6appendIRA13_KcEERS_OT_
FNDA:16,_ZN18ParameterizedQuery6appendIRA28_KcEERS_OT_
FNDA:181,_ZN18ParameterizedQuery4lineINSt7__cxx1112basic_stringIcSt11char_traitsIcESaIcEEEEERS_OT_
FNDA:1,_ZN18ParameterizedQuery4lineIRA12_KcEERS_OT_
FNDA:37,_ZN18ParameterizedQuery4lineIRA13_KcEERS_OT_
FNDA:12,_ZN18ParameterizedQuery4lineIRA16_KcEERS_OT_
FNDA:1,_ZN18ParameterizedQuery4lineIRA17_KcEERS_OT_
FNDA:8,_ZN18ParameterizedQuery4lineIRA21_KcEERS_OT_
FNDA:19,_ZN18ParameterizedQuery4lineIRA22_KcEERS_OT_
FNDA:22,_ZN18ParameterizedQuery4lineIRA24_KcEERS_OT_
FNDA:41,_ZN18ParameterizedQuery4lineIRA25_KcEERS_OT_
FNDA:55,_ZN18ParameterizedQuery4lineIRA26_KcEERS_OT_
FNDA:7,_ZN18ParameterizedQuery4lineIRA28_KcEERS_OT_
FNDA:4,_ZN18ParameterizedQuery4lineIRA29_KcEERS_OT_
FNDA:2,_ZN18ParameterizedQuery4lineIRA30_KcEERS_OT_
FNDA:4,_ZN18ParameterizedQuery4lineIRA32_KcEERS_OT_
FNDA:17,_ZN18ParameterizedQuery4lineIRA37_KcEERS_OT_
FNDA:17,_ZN18ParameterizedQuery4lineIRA39_KcEERS_OT_
FNDA:1,_ZN18ParameterizedQuery4lineIRA40_KcEERS_OT_
FNDA:4,_ZN18ParameterizedQuery4lineIRA41_KcEERS_OT_
FNDA:2,_ZN18ParameterizedQuery4lineIRA43_KcEERS_OT_
FNDA:18,_ZN18ParameterizedQuery4lineIRA51_KcEERS_OT_
FNDA:9,_ZN18ParameterizedQuery4lineIRA52_KcEERS_OT_
FNDA:4,_ZN18ParameterizedQuery4lineIRA54_KcEERS_OT_
FNDA:3,_ZN18ParameterizedQuery4lineIRA57_KcEERS_OT_
FNDA:1,_ZN18ParameterizedQuery4lineIRA59_KcEERS_OT_
FNDA:4,_ZN18ParameterizedQuery4lineIRA9_KcEERS_OT_
FNDA:348,_ZN18ParameterizedQuery3setESt17basic_string_viewIcSt11char_traitsIcEEON2mg5ValueE
FNDA:38,_ZN18ParameterizedQuery6setIntESt17basic_string_viewIcSt11char_traitsIcEEl
FNDA:231,_ZN18ParameterizedQuery6setIntESt17basic_string_viewIcSt11char_traitsIcEEm
FNDA:0,_ZN18MemgraphConnectionaSEOS_
FNDA:150,_ZNK18ParameterizedQuery8getQueryB5cxx11Ev
FNDA:31,_ZN18ParameterizedQuery8getQueryB5cxx11Ev
FNDA:173,_ZN18ParameterizedQuery7executeERK18MemgraphConnection
FNDA:115,_ZN18ParameterizedQuery17executeAndDiscardERK18MemgraphConnection
FNDA:0,_ZNK18MemgraphConnection5retryEv
FNDA:33,_ZN18MemgraphConnection6createB5cxx11ERKN2mg6Client6ParamsE
FNDA:33,_ZN18MemgraphConnection6createENSt7__cxx1112basic_stringIcSt11char_traitsIcESaIcEEEt
FNDA:15,_ZNK18MemgraphConnection11isConnectedEv
FNDA:1151,_ZNK18MemgraphConnectionptEv
FNDA:146,_ZN18MemgraphConnectionD2Ev
FNDA:16,_ZN5QueryC2IRA10_KcEEOT_
FNDA:23,_ZN5QueryC2IRA14_KcEEOT_
FNDA:17,_ZN5QueryC2IRA22_KcEEOT_
FNDA:15,_ZN5QueryC2IRA25_KcEEOT_
FNDA:34,_ZN5QueryC2IRA26_KcEEOT_
FNDA:17,_ZN5QueryC2IRA27_KcEEOT_
FNDA:32,_ZN5QueryC2IRA29_KcEEOT_
FNDA:17,_ZN5QueryC2IRA30_KcEEOT_
FNDA:15,_ZN5QueryC2IRA31_KcEEOT_
FNDA:22,_ZN5QueryC2IRA33_KcEEOT_
FNDA:45,_ZN5QueryC2IRA51_KcEEOT_
FNDA:66,_ZN5QueryC2IRA52_KcEEOT_
FNDA:16,_ZN5QueryC2Ev
FNF:78
FNH:76
DA:15,32
DA:16,32
DA:18,114
DA:19,114
DA:20,114
DA:22,0
DA:23,0
DA:24,0
DA:27,0
DA:28,0
DA:29,0
DA:37,33
DA:38,33
DA:39,33
DA:40,1
DA:41,1
DA:42,1
DA:43,1
DA:44,1
DA:45,1
DA:46,1
DA:47,32
DA:48,33
DA:57,33
DA:58,33
DA:59,33
DA:60,33
DA:61,33
DA:62,66
DA:63,33
DA:69,15
DA:70,15
DA:73,1151
DA:74,1151
DA:77,146
DA:78,146
DA:79,146
DA:80,146
DA:93,319
DA:94,319
DA:95,319
DA:97,16
DA:100,319
DA:101,319
DA:102,319
DA:106,93
DA:107,93
DA:108,93
DA:124,61
DA:125,61
DA:126,61
DA:127,0
DA:128,61
DA:131,274
DA:132,274
DA:133,274
DA:134,274
DA:135,274
DA:148,235
DA:153,119
DA:154,119
DA:155,119
DA:156,119
DA:168,31
DA:169,31
DA:170,155
DA:171,124
DA:173,155
DA:174,124
DA:176,31
DA:177,31
DA:178,31
DA:187,32
DA:188,32
DA:189,32
DA:193,474
DA:194,474
DA:195,474
DA:202,348
DA:203,696
DA:204,348
DA:207,38
DA:208,114
DA:209,38
DA:212,231
DA:213,693
DA:214,231
DA:221,150
DA:222,150
DA:225,31
DA:226,31
DA:234,173
DA:235,173
DA:236,790
DA:237,617
DA:239,173
DA:240,173
DA:241,0
DA:243,173
DA:244,0
DA:245,0
DA:247,173
DA:248,173
DA:250,115
DA:251,115
DA:252,115
DA:253,115
DA:254,115
LF:108
LH:98
end_of_record
TN:
SF:/home/lolo/Documents/fishnet/lib/geometry/algorithm/include/fishnet/BoundingBoxPolygon.hpp
FN:23,23,_ZN7fishnet8geometry18BoundingBoxPolygonINS0_13SimplePolygonIdEEEC2ERKS3_
FN:23,23,_ZN7fishnet8geometry18BoundingBoxPolygonINS0_7PolygonIdEEEC2ERKS3_
FN:31,31,_ZN7fishnet8geometry18BoundingBoxPolygonINS0_13SimplePolygonIdEEEC2ERKS3_RKNS0_9RectangleIdEE
FN:33,35,_ZNK7fishnet8geometry18BoundingBoxPolygonINS0_13SimplePolygonIdEEE14getBoundingBoxEv
FN:33,35,_ZNK7fishnet8geometry18BoundingBoxPolygonINS0_7PolygonIdEEE14getBoundingBoxEv
FN:37,39,_ZNK7fishnet8geometry18BoundingBoxPolygonINS0_13SimplePolygonIdEEE10getPolygonEv
FN:37,39,_ZNK7fishnet8geometry18BoundingBoxPolygonINS0_7PolygonIdEEE10getPolygonEv
FN:92,97,_ZNK7fishnet8geometry22HorizontalAABBOrderingINS0_13SimplePolygonIdEEEclERKNS0_18BoundingBoxPolygonIS3_EES8_
FN:92,97,_ZNK7fishnet8geometry22HorizontalAABBOrderingINS0_7PolygonIdEEEclERKNS0_18BoundingBoxPolygonIS3_EES8_
FNDA:6,_ZN7fishnet8geometry18BoundingBoxPolygonINS0_13SimplePolygonIdEEEC2ERKS3_
FNDA:0,_ZN7fishnet8geometry18BoundingBoxPolygonINS0_7PolygonIdEEEC2ERKS3_
FNDA:15,_ZN7fishnet8geometry18BoundingBoxPolygonINS0_13SimplePolygonIdEEEC2ERKS3_RKNS0_9RectangleIdEE
FNDA:1396,_ZNK7fishnet8geometry18BoundingBoxPolygonINS0_13SimplePolygonIdEEE14getBoundingBoxEv
FNDA:0,_ZNK7fishnet8geometry18BoundingBoxPolygonINS0_7PolygonIdEEE14getBoundingBoxEv
FNDA:128,_ZNK7fishnet8geometry18BoundingBoxPolygonINS0_13SimplePolygonIdEEE10getPolygonEv
FNDA:0,_ZNK7fishnet8geometry18BoundingBoxPolygonINS0_7PolygonIdEEE10getPolygonEv
FNDA:203,_ZNK7fishnet8geometry22HorizontalAABBOrderingINS0_13SimplePolygonIdEEEclERKNS0_18BoundingBoxPolygonIS3_EES8_
FNDA:0,_ZNK7fishnet8geometry22HorizontalAABBOrderingINS0_7PolygonIdEEEclERKNS0_18BoundingBoxPolygonIS3_EES8_
FNF:9
FNH:5
DA:23,6
DA:31,15
DA:33,1396
DA:34,1396
DA:37,128
DA:38,128
DA:92,203
DA:93,203
DA:94,74
DA:96,129
LF:10
LH:10
end_of_record
TN:
SF:/home/lolo/Documents/fishnet/lib/geometry/algorithm/include/fishnet/ContainedOrInHoleFilter.hpp
FN:9,11,_ZN7fishnet8geometry23ContainedOrInHoleFilterclINS0_13SimplePolygonIdEES4_EEbRKT_RKT0_
FNDA:3,_ZN7fishnet8geometry23ContainedOrInHoleFilterclINS0_13SimplePolygonIdEES4_EEbRKT_RKT0_
FNF:1
FNH:1
DA:9,3
DA:10,3
LF:2
LH:2
end_of_record
TN:
SF:/home/lolo/Documents/fishnet/lib/geometry/algorithm/include/fishnet/LinearIntersection.hpp
FN:15,26,_ZN7fishnet8geometryL18linearIntersectionINS0_4LineIdEENS2_IiEEEESt8optionalINS0_5Vec2DIdEEERKT_RKT0_
FN:15,26,_ZN7fishnet8geometryL18linearIntersectionINS0_4LineIdEES3_EESt8optionalINS0_5Vec2DIdEEERKT_RKT0_
FN:15,26,_ZN7fishnet8geometryL18linearIntersectionINS0_4LineIiEENS2_IdEEEESt8optionalINS0_5Vec2DIdEEERKT_RKT0_
FN:15,26,_ZN7fishnet8geometryL18linearIntersectionINS0_4LineIiEES3_EESt8optionalINS0_5Vec2DIdEEERKT_RKT0_
FN:35,39,_ZN7fishnet8geometryL18linearIntersectionINS0_3RayIiEENS0_4LineIdEEEESt8optionalINS0_5Vec2DIdEEERKT_RKT0_
FN:35,39,_ZN7fishnet8geometryL18linearIntersectionINS0_3RayIiEENS0_7SegmentIiEEEESt8optionalINS0_5Vec2DIdEEERKT_RKT0_
FN:35,39,_ZN7fishnet8geometryL18linearIntersectionINS0_3RayIiEENS2_IdEEEESt8optionalINS0_5Vec2DIdEEERKT_RKT0_
FN:35,39,_ZN7fishnet8geometryL18linearIntersectionINS0_3RayIiEES3_EESt8optionalINS0_5Vec2DIdEEERKT_RKT0_
FN:35,39,_ZN7fishnet8geometryL18linearIntersectionINS0_4LineIiEENS0_7SegmentIiEEEESt8optionalINS0_5Vec2DIdEEERKT_RKT0_
FN:35,39,_ZN7fishnet8geometryL18linearIntersectionINS0_7SegmentIdEENS0_3RayIdEEEESt8optionalINS0_5Vec2DIdEEERKT_RKT0_
FN:35,39,_ZN7fishnet8geometryL18linearIntersectionINS0_7SegmentIdEENS0_3RayIiEEEESt8optionalINS0_5Vec2DIdEEERKT_RKT0_
FN:35,39,_ZN7fishnet8geometryL18linearIntersectionINS0_7SegmentIdEENS0_4LineIdEEEESt8optionalINS0_5Vec2DIdEEERKT_RKT0_
FN:35,39,_ZN7fishnet8geometryL18linearIntersectionINS0_7SegmentIdEENS0_4LineIiEEEESt8optionalINS0_5Vec2DIdEEERKT_RKT0_
FN:35,39,_ZN7fishnet8geometryL18linearIntersectionINS0_7SegmentIdEENS2_IiEEEESt8optionalINS0_5Vec2DIdEEERKT_RKT0_
FN:35,39,_ZN7fishnet8geometryL18linearIntersectionINS0_7SegmentIdEES3_EESt8optionalINS0_5Vec2DIdEEERKT_RKT0_
FN:35,39,_ZN7fishnet8geometryL18linearIntersectionINS0_7SegmentIiEENS0_3RayIiEEEESt8optionalINS0_5Vec2DIdEEERKT_RKT0_
FN:35,39,_ZN7fishnet8geometryL18linearIntersectionINS0_7SegmentIiEENS0_4LineIdEEEESt8optionalINS0_5Vec2DIdEEERKT_RKT0_
FN:35,39,_ZN7fishnet8geometryL18linearIntersectionINS0_7SegmentIiEENS0_4LineIiEEEESt8optionalINS0_5Vec2DIdEEERKT_RKT0_
FN:35,39,_ZN7fishnet8geometryL18linearIntersectionINS0_7SegmentIiEENS2_IdEEEESt8optionalINS0_5Vec2DIdEEERKT_RKT0_
FN:35,39,_ZN7fishnet8geometryL18linearIntersectionINS0_7SegmentIiEES3_EESt8optionalINS0_5Vec2DIdEEERKT_RKT0_
FN:41,43,_ZN7fishnet8geometryL11areParallelINS0_3RayIdEENS0_4LineIdEEEEbRKT_RKT0_
FN:41,43,_ZN7fishnet8geometryL11areParallelINS0_3RayIdEENS2_IiEEEEbRKT_RKT0_
FN:41,43,_ZN7fishnet8geometryL11areParallelINS0_3RayIfEENS0_4LineIdEEEEbRKT_RKT0_
FN:41,43,_ZN7fishnet8geometryL11areParallelINS0_3RayIiEENS0_4LineIdEEEEbRKT_RKT0_
FN:41,43,_ZN7fishnet8geometryL11areParallelINS0_3RayIiEENS0_7SegmentIiEEEEbRKT_RKT0_
FN:41,43,_ZN7fishnet8geometryL11areParallelINS0_3RayIiEES3_EEbRKT_RKT0_
FN:41,43,_ZN7fishnet8geometryL11areParallelINS0_4LineIdEENS2_IiEEEEbRKT_RKT0_
FN:41,43,_ZN7fishnet8geometryL11areParallelINS0_4LineIdEES3_EEbRKT_RKT0_
FN:41,43,_ZN7fishnet8geometryL11areParallelINS0_4LineIiEENS0_3RayIiEEEEbRKT_RKT0_
FN:41,43,_ZN7fishnet8geometryL11areParallelINS0_4LineIiEENS0_7SegmentIiEEEEbRKT_RKT0_
FN:41,43,_ZN7fishnet8geometryL11areParallelINS0_4LineIiEENS2_IdEEEEbRKT_RKT0_
FN:41,43,_ZN7fishnet8geometryL11areParallelINS0_4LineIiEES3_EEbRKT_RKT0_
FN:41,43,_ZN7fishnet8geometryL11areParallelINS0_7SegmentIdEENS2_IiEEEEbRKT_RKT0_
FN:41,43,_ZN7fishnet8geometryL11areParallelINS0_7SegmentIdEES3_EEbRKT_RKT0_
FN:41,43,_ZN7fishnet8geometryL11areParallelINS0_7SegmentIiEENS0_4LineIiEEEEbRKT_RKT0_
FN:41,43,_ZN7fishnet8geometryL11areParallelINS0_7SegmentIiEENS2_IdEEEEbRKT_RKT0_
FN:41,43,_ZN7fishnet8geometryL11areParallelINS0_7SegmentIiEES3_EEbRKT_RKT0_
FN:45,47,_ZN7fishnet8geometryL9intersectINS0_3RayIiEENS0_4LineIdEEEEbRKT_RKT0_
FN:45,47,_ZN7fishnet8geometryL9intersectINS0_3RayIiEENS0_7SegmentIiEEEEbRKT_RKT0_
FN:45,47,_ZN7fishnet8geometryL9intersectINS0_3RayIiEENS2_IdEEEEbRKT_RKT0_
FN:45,47,_ZN7fishnet8geometryL9intersectINS0_3RayIiEES3_EEbRKT_RKT0_
FN:45,47,_ZN7fishnet8geometryL9intersectINS0_4LineIdEENS2_IiEEEEbRKT_RKT0_
FN:45,47,_ZN7fishnet8geometryL9intersectINS0_4LineIdEES3_EEbRKT_RKT0_
FN:45,47,_ZN7fishnet8geometryL9intersectINS0_4LineIiEENS0_7SegmentIiEEEEbRKT_RKT0_
FN:45,47,_ZN7fishnet8geometryL9intersectINS0_4LineIiEES3_EEbRKT_RKT0_
FN:45,47,_ZN7fishnet8geometryL9intersectINS0_7SegmentIdEES3_EEbRKT_RKT0_
FN:45,47,_ZN7fishnet8geometryL9intersectINS0_7SegmentIiEENS0_4LineIdEEEEbRKT_RKT0_
FN:45,47,_ZN7fishnet8geometryL9intersectINS0_7SegmentIiEES3_EEbRKT_RKT0_
FNDA:671,_ZN7fishnet8geometryL18linearIntersectionINS0_4LineIdEENS2_IiEEEESt8optionalINS0_5Vec2DIdEEERKT_RKT0_
FNDA:1402632,_ZN7fishnet8geometryL18linearIntersectionINS0_4LineIdEES3_EESt8optionalINS0_5Vec2DIdEEERKT_RKT0_
FNDA:302,_ZN7fishnet8geometryL18linearIntersectionINS0_4LineIiEENS2_IdEEEESt8optionalINS0_5Vec2DIdEEERKT_RKT0_
FNDA:209,_ZN7fishnet8geometryL18linearIntersectionINS0_4LineIiEES3_EESt8optionalINS0_5Vec2DIdEEERKT_RKT0_
FNDA:5,_ZN7fishnet8geometryL18linearIntersectionINS0_3RayIiEENS0_4LineIdEEEESt8optionalINS0_5Vec2DIdEEERKT_RKT0_
FNDA:3,_ZN7fishnet8geometryL18linearIntersectionINS0_3RayIiEENS0_7SegmentIiEEEESt8optionalINS0_5Vec2DIdEEERKT_RKT0_
FNDA:1,_ZN7fishnet8geometryL18linearIntersectionINS0_3RayIiEENS2_IdEEEESt8optionalINS0_5Vec2DIdEEERKT_RKT0_
FNDA:4,_ZN7fishnet8geometryL18linearIntersectionINS0_3RayIiEES3_EESt8optionalINS0_5Vec2DIdEEERKT_RKT0_
FNDA:3,_ZN7fishnet8geometryL18linearIntersectionINS0_4LineIiEENS0_7SegmentIiEEEESt8optionalINS0_5Vec2DIdEEERKT_RKT0_
FNDA:296596,_ZN7fishnet8geometryL18linearIntersectionINS0_7SegmentIdEENS0_3RayIdEEEESt8optionalINS0_5Vec2DIdEEERKT_RKT0_
FNDA:38,_ZN7fishnet8geometryL18linearIntersectionINS0_7SegmentIdEENS0_3RayIiEEEESt8optionalINS0_5Vec2DIdEEERKT_RKT0_
FNDA:375852,_ZN7fishnet8geometryL18linearIntersectionINS0_7SegmentIdEENS0_4LineIdEEEESt8optionalINS0_5Vec2DIdEEERKT_RKT0_
FNDA:54,_ZN7fishnet8geometryL18linearIntersectionINS0_7SegmentIdEENS0_4LineIiEEEESt8optionalINS0_5Vec2DIdEEERKT_RKT0_
FNDA:577,_ZN7fishnet8geometryL18linearIntersectionINS0_7SegmentIdEENS2_IiEEEESt8optionalINS0_5Vec2DIdEEERKT_RKT0_
FNDA:730175,_ZN7fishnet8geometryL18linearIntersectionINS0_7SegmentIdEES3_EESt8optionalINS0_5Vec2DIdEEERKT_RKT0_
FNDA:42,_ZN7fishnet8geometryL18linearIntersectionINS0_7SegmentIiEENS0_3RayIiEEEESt8optionalINS0_5Vec2DIdEEERKT_RKT0_
FNDA:52,_ZN7fishnet8geometryL18linearIntersectionINS0_7SegmentIiEENS0_4LineIdEEEESt8optionalINS0_5Vec2DIdEEERKT_RKT0_
FNDA:7,_ZN7fishnet8geometryL18linearIntersectionINS0_7SegmentIiEENS0_4LineIiEEEESt8optionalINS0_5Vec2DIdEEERKT_RKT0_
FNDA:244,_ZN7fishnet8geometryL18linearIntersectionINS0_7SegmentIiEENS2_IdEEEESt8optionalINS0_5Vec2DIdEEERKT_RKT0_
FNDA:127,_ZN7fishnet8geometryL18linearIntersectionINS0_7SegmentIiEES3_EESt8optionalINS0_5Vec2DIdEEERKT_RKT0_
FNDA:3,_ZN7fishnet8geometryL11areParallelINS0_3RayIdEENS0_4LineIdEEEEbRKT_RKT0_
FNDA:1,_ZN7fishnet8geometryL11areParallelINS0_3RayIdEENS2_IiEEEEbRKT_RKT0_
FNDA:1,_ZN7fishnet8geometryL11areParallelINS0_3RayIfEENS0_4LineIdEEEEbRKT_RKT0_
FNDA:2,_ZN7fishnet8geometryL11areParallelINS0_3RayIiEENS0_4LineIdEEEEbRKT_RKT0_
FNDA:2,_ZN7fishnet8geometryL11areParallelINS0_3RayIiEENS0_7SegmentIiEEEEbRKT_RKT0_
FNDA:1,_ZN7fishnet8geometryL11areParallelINS0_3RayIiEES3_EEbRKT_RKT0_
FNDA:671,_ZN7fishnet8geometryL11areParallelINS0_4LineIdEENS2_IiEEEEbRKT_RKT0_
FNDA:1402634,_ZN7fishnet8geometryL11areParallelINS0_4LineIdEES3_EEbRKT_RKT0_
FNDA:1,_ZN7fishnet8geometryL11areParallelINS0_4LineIiEENS0_3RayIiEEEEbRKT_RKT0_
FNDA:2,_ZN7fishnet8geometryL11areParallelINS0_4LineIiEENS0_7SegmentIiEEEEbRKT_RKT0_
FNDA:306,_ZN7fishnet8geometryL11areParallelINS0_4LineIiEENS2_IdEEEEbRKT_RKT0_
FNDA:216,_ZN7fishnet8geometryL11areParallelINS0_4LineIiEES3_EEbRKT_RKT0_
FNDA:353,_ZN7fishnet8geometryL11areParallelINS0_7SegmentIdEENS2_IiEEEEbRKT_RKT0_
FNDA:377382,_ZN7fishnet8geometryL11areParallelINS0_7SegmentIdEES3_EEbRKT_RKT0_
FNDA:2,_ZN7fishnet8geometryL11areParallelINS0_7SegmentIiEENS0_4LineIiEEEEbRKT_RKT0_
FNDA:45,_ZN7fishnet8geometryL11areParallelINS0_7SegmentIiEENS2_IdEEEEbRKT_RKT0_
FNDA:426,_ZN7fishnet8geometryL11areParallelINS0_7SegmentIiEES3_EEbRKT_RKT0_
FNDA:3,_ZN7fishnet8geometryL9intersectINS0_3RayIiEENS0_4LineIdEEEEbRKT_RKT0_
FNDA:2,_ZN7fishnet8geometryL9intersectINS0_3RayIiEENS0_7SegmentIiEEEEbRKT_RKT0_
FNDA:1,_ZN7fishnet8geometryL9intersectINS0_3RayIiEENS2_IdEEEEbRKT_RKT0_
FNDA:2,_ZN7fishnet8geometryL9intersectINS0_3RayIiEES3_EEbRKT_RKT0_
FNDA:2,_ZN7fishnet8geometryL9intersectINS0_4LineIdEENS2_IiEEEEbRKT_RKT0_
FNDA:1,_ZN7fishnet8geometryL9intersectINS0_4LineIdEES3_EEbRKT_RKT0_
FNDA:2,_ZN7fishnet8geometryL9intersectINS0_4LineIiEENS0_7SegmentIiEEEEbRKT_RKT0_
FNDA:1,_ZN7fishnet8geometryL9intersectINS0_4LineIiEES3_EEbRKT_RKT0_
FNDA:307419,_ZN7fishnet8geometryL9intersectINS0_7SegmentIdEES3_EEbRKT_RKT0_
FNDA:2,_ZN7fishnet8geometryL9intersectINS0_7SegmentIiEENS0_4LineIdEEEEbRKT_RKT0_
FNDA:125,_ZN7fishnet8geometryL9intersectINS0_7SegmentIiEES3_EEbRKT_RKT0_
FNF:48
FNH:48
DA:15,1403814
DA:16,1403814
DA:17,607594
DA:18,796220
DA:19,796220
DA:20,796220
DA:22,796220
DA:23,796220
DA:24,796220
DA:25,796220
DA:35,1403780
DA:36,1403780
DA:37,1403780
DA:38,1373895
DA:41,1782048
DA:42,1782048
DA:45,307560
DA:46,307560
LF:18
LH:18
end_of_record
TN:
SF:/home/lolo/Documents/fishnet/lib/geometry/algorithm/include/fishnet/NearestNeighbours.hpp
FN:12,35,_ZN7fishnet8geometry6__impl28nearestNeighbourBinarySearchIdZNS0_16nearestNeighbourIdEENS0_5Vec2DIT_EERKS6_RKSt3setIS6_NS0_18LexicographicOrderESaIS6_EEEUlRKS5_E_EES6_S8_SE_RKT0_
FN:12,35,_ZN7fishnet8geometry6__impl28nearestNeighbourBinarySearchIdZNS0_18kNearestNeighboursIdEESt6vectorINS0_5Vec2DIT_EESaIS7_EERKS7_RKSt3setIS7_NS0_18LexicographicOrderES8_EmEUlRKNS5_IdEEE_EES7_SB_SG_RKT0_
FN:48,50,_ZN7fishnet8geometry16nearestNeighbourIdEENS0_5Vec2DIT_EERKS4_RKSt3setIS4_NS0_18LexicographicOrderESaIS4_EE
FN:49,49,_ZZN7fishnet8geometry16nearestNeighbourIdEENS0_5Vec2DIT_EERKS4_RKSt3setIS4_NS0_18LexicographicOrderESaIS4_EEENKUlRKS3_E_clINS2_IdEEEEDaSE_
FN:62,71,_ZN7fishnet8geometry18kNearestNeighboursIdEESt6vectorINS0_5Vec2DIT_EESaIS5_EERKS5_RKSt3setIS5_NS0_18LexicographicOrderES6_Em
FN:67,67,_ZZN7fishnet8geometry18kNearestNeighboursIdEESt6vectorINS0_5Vec2DIT_EESaIS5_EERKS5_RKSt3setIS5_NS0_18LexicographicOrderES6_EmENKUlRKNS3_IdEEE_clESH_
FN:82,92,_ZN7fishnet8geometry21AllKNearestNeighboursIdSt6vectorINS0_5Vec2DIdEESaIS4_EEEES2_ISt4pairINS3_IT_EES2_IS9_SaIS9_EEESaISC_EERKT0_m
FNDA:1,_ZN7fishnet8geometry6__impl28nearestNeighbourBinarySearchIdZNS0_16nearestNeighbourIdEENS0_5Vec2DIT_EERKS6_RKSt3setIS6_NS0_18LexicographicOrderESaIS6_EEEUlRKS5_E_EES6_S8_SE_RKT0_
FNDA:39,_ZN7fishnet8geometry6__impl28nearestNeighbourBinarySearchIdZNS0_18kNearestNeighboursIdEESt6vectorINS0_5Vec2DIT_EESaIS7_EERKS7_RKSt3setIS7_NS0_18LexicographicOrderES8_EmEUlRKNS5_IdEEE_EES7_SB_SG_RKT0_
FNDA:1,_ZN7fishnet8geometry16nearestNeighbourIdEENS0_5Vec2DIT_EERKS4_RKSt3setIS4_NS0_18LexicographicOrderESaIS4_EE
FNDA:0,_ZZN7fishnet8geometry16nearestNeighbourIdEENS0_5Vec2DIT_EERKS4_RKSt3setIS4_NS0_18LexicographicOrderESaIS4_EEENKUlRKS3_E_clINS2_IdEEEEDaSE_
FNDA:26,_ZN7fishnet8geometry18kNearestNeighboursIdEESt6vectorINS0_5Vec2DIT_EESaIS5_EERKS5_RKSt3setIS5_NS0_18LexicographicOrderES6_Em
FNDA:89,_ZZN7fishnet8geometry18kNearestNeighboursIdEESt6vectorINS0_5Vec2DIT_EESaIS5_EERKS5_RKSt3setIS5_NS0_18LexicographicOrderES6_EmENKUlRKNS3_IdEEE_clESH_
FNDA:2,_ZN7fishnet8geometry21AllKNearestNeighboursIdSt6vectorINS0_5Vec2DIdEESaIS4_EEEES2_ISt4pairINS3_IT_EES2_IS9_SaIS9_EEESaISC_EERKT0_m
FNF:7
FNH:6
DA:12,40
DA:13,40
DA:14,40
DA:15,40
DA:16,1
DA:18,39
DA:19,147
DA:21,108
DA:22,108
DA:23,51
DA:24,51
DA:27,112
DA:28,73
DA:29,73
DA:30,25
DA:31,25
DA:34,39
DA:48,1
DA:49,0
DA:62,26
DA:63,26
DA:64,26
DA:65,26
DA:66,65
DA:67,128
DA:68,39
DA:70,26
DA:82,2
DA:83,2
DA:84,2
DA:85,28
DA:86,26
DA:88,28
DA:89,26
DA:91,2
DA:92,2
LF:36
LH:35
end_of_record
TN:
SF:/home/lolo/Documents/fishnet/lib/geometry/algorithm/include/fishnet/PolygonDistance.hpp
FN:109,110,_ZN7fishnet8geometry6__impl12PolygonPointILb0EEC2EONS0_7SegmentIdEENS1_16PolygonReferenceE
FN:109,110,_ZN7fishnet8geometry6__impl12PolygonPointILb1EEC2EONS0_7SegmentIdEENS1_16PolygonReferenceE
FN:112,114,_ZNK7fishnet8geometry6__impl12PolygonPointILb0EE8getPointEv
FN:112,114,_ZNK7fishnet8geometry6__impl12PolygonPointILb1EE8getPointEv
FN:116,118,_ZNK7fishnet8geometry6__impl12PolygonPointILb0EE10getSegmentEv
FN:116,118,_ZNK7fishnet8geometry6__impl12PolygonPointILb1EE10getSegmentEv
FN:120,128,_ZNK7fishnet8geometry6__impl12PolygonPointILb0EEltERKS3_
FN:120,128,_ZNK7fishnet8geometry6__impl12PolygonPointILb1EEltERKS3_
FN:148,149,_ZN7fishnet8geometry6__impl19ClosestPointsResultC2ERKNS0_5Vec2DIdEES6_mm
FN:151,162,_ZN7fishnet8geometry6__impl19ClosestPointsResult11startSearchENS1_16PolygonReferenceE
FN:17,24,_ZN7fishnet8geometryL21closestPointOnSegmentINS0_7SegmentIdEENS0_5Vec2DIdEEEES5_RKT_RKT0_
FN:17,24,_ZN7fishnet8geometryL21closestPointOnSegmentINS0_7SegmentIdEENS0_5Vec2DIiEEEENS4_IdEERKT_RKT0_
FN:17,24,_ZN7fishnet8geometryL21closestPointOnSegmentINS0_7SegmentIiEENS0_5Vec2DIdEEEES5_RKT_RKT0_
FN:171,176,_ZN7fishnet8geometry6__impl19ClosestPointsResult5visitILb0EEEvRKNS1_12PolygonPointIXT_EEE
FN:171,176,_ZN7fishnet8geometry6__impl19ClosestPointsResult5visitILb1EEEvRKNS1_12PolygonPointIXT_EEE
FN:186,191,_ZNK7fishnet8geometry6__impl19ClosestPointsResult12getNeighbourILb0EEERKNS0_5Vec2DIdEERKNS1_12PolygonPointIXT_EEE
FN:186,191,_ZNK7fishnet8geometry6__impl19ClosestPointsResult12getNeighbourILb1EEERKNS0_5Vec2DIdEERKNS1_12PolygonPointIXT_EEE
FN:200,200,_ZN7fishnet8geometry6__impl24PolygonSegmentSweepEventILb0EEC2ERKNS1_12PolygonPointILb0EEE
FN:200,200,_ZN7fishnet8geometry6__impl24PolygonSegmentSweepEventILb1EEC2ERKNS1_12PolygonPointILb1EEE
FN:202,207,_ZNK7fishnet8geometry6__impl24PolygonSegmentSweepEventILb0EE10eventPointEv
FN:202,207,_ZNK7fishnet8geometry6__impl24PolygonSegmentSweepEventILb1EE10eventPointEv
FN:217,222,_ZNK7fishnet8geometry6__impl24PolygonSegmentSweepEventILb0EE4stopERNS0_9SweepLineINS1_12PolygonPointILb0EEENS1_19ClosestPointsResultESt4lessIS6_ELb0ES8_IdEEERS7_
FN:217,222,_ZNK7fishnet8geometry6__impl24PolygonSegmentSweepEventILb1EE4stopERNS0_9SweepLineINS1_12PolygonPointILb1EEENS1_19ClosestPointsResultESt4lessIS6_ELb0ES8_IdEEERS7_
FN:230,235,_ZNK7fishnet8geometry6__impl24PolygonSegmentSweepEventILb0EE15lowerBoundQueryERNS1_19ClosestPointsResultE
FN:230,235,_ZNK7fishnet8geometry6__impl24PolygonSegmentSweepEventILb1EE15lowerBoundQueryERNS1_19ClosestPointsResultE
FN:243,248,_ZNK7fishnet8geometry6__impl24PolygonSegmentSweepEventILb0EE15upperBoundQueryERNS1_19ClosestPointsResultE
FN:243,248,_ZNK7fishnet8geometry6__impl24PolygonSegmentSweepEventILb1EE15upperBoundQueryERNS1_19ClosestPointsResultE
FN:250,298,_ZNK7fishnet8geometry6__impl24PolygonSegmentSweepEventILb0EE7processERNS0_9SweepLineINS1_12PolygonPointILb0EEENS1_19ClosestPointsResultESt4lessIS6_ELb0ES8_IdEEERS7_
FN:250,298,_ZNK7fishnet8geometry6__impl24PolygonSegmentSweepEventILb1EE7processERNS0_9SweepLineINS1_12PolygonPointILb1EEENS1_19ClosestPointsResultESt4lessIS6_ELb0ES8_IdEEERS7_
FN:310,342,_ZN7fishnet8geometry6__implL18closestPointsSweepILb0ENSt6ranges8ref_viewIKSt6vectorINS0_7SegmentIdEESaIS7_EEEESB_EESt4pairINS0_5Vec2DIdEESE_EOT0_OT1_
FN:310,342,_ZN7fishnet8geometry6__implL18closestPointsSweepILb0ERNSt6ranges8ref_viewIKSt6vectorINS0_7SegmentIdEESaIS7_EEEERNS4_IKS5_INS6_IiEESaISD_EEEEEESt4pairINS0_5Vec2DIdEESL_EOT0_OT1_
FN:310,342,_ZN7fishnet8geometry6__implL18closestPointsSweepILb0ERNSt6ranges8ref_viewIKSt6vectorINS0_7SegmentIdEESaIS7_EEEESC_EESt4pairINS0_5Vec2DIdEESF_EOT0_OT1_
FN:310,342,_ZN7fishnet8geometry6__implL18closestPointsSweepILb1ENSt6ranges8ref_viewIKSt6vectorINS0_7SegmentIdEESaIS7_EEEESB_EESt4pairINS0_5Vec2DIdEESE_EOT0_OT1_
FN:310,342,_ZN7fishnet8geometry6__implL18closestPointsSweepILb1ERNSt6ranges8ref_viewIKSt6vectorINS0_7SegmentIdEESaIS7_EEEERNS4_IKS5_INS6_IiEESaISD_EEEEEESt4pairINS0_5Vec2DIdEESL_EOT0_OT1_
FN:310,342,_ZN7fishnet8geometry6__implL18closestPointsSweepILb1ERNSt6ranges8ref_viewIKSt6vectorINS0_7SegmentIdEESaIS7_EEEESC_EESt4pairINS0_5Vec2DIdEESF_EOT0_OT1_
FN:317,317,_ZZN7fishnet8geometry6__implL18closestPointsSweepILb0ENSt6ranges8ref_viewIKSt6vectorINS0_7SegmentIdEESaIS7_EEEESB_EESt4pairINS0_5Vec2DIdEESE_EOT0_OT1_ENKUlRKT_E_clIS7_EEDaSM_
FN:317,317,_ZZN7fishnet8geometry6__implL18closestPointsSweepILb0ERNSt6ranges8ref_viewIKSt6vectorINS0_7SegmentIdEESaIS7_EEEERNS4_IKS5_INS6_IiEESaISD_EEEEEESt4pairINS0_5Vec2DIdEESL_EOT0_OT1_ENKUlRKT_E_clIS7_EEDaST_
FN:317,317,_ZZN7fishnet8geometry6__implL18closestPointsSweepILb0ERNSt6ranges8ref_viewIKSt6vectorINS0_7SegmentIdEESaIS7_EEEESC_EESt4pairINS0_5Vec2DIdEESF_EOT0_OT1_ENKUlRKT_E_clIS7_EEDaSN_
FN:317,317,_ZZN7fishnet8geometry6__implL18closestPointsSweepILb1ENSt6ranges8ref_viewIKSt6vectorINS0_7SegmentIdEESaIS7_EEEESB_EESt4pairINS0_5Vec2DIdEESE_EOT0_OT1_ENKUlRKT_E_clIS7_EEDaSM_
FN:317,317,_ZZN7fishnet8geometry6__implL18closestPointsSweepILb1ERNSt6ranges8ref_viewIKSt6vectorINS0_7SegmentIdEESaIS7_EEEERNS4_IKS5_INS6_IiEESaISD_EEEEEESt4pairINS0_5Vec2DIdEESL_EOT0_OT1_ENKUlRKT_E_clIS7_EEDaST_
FN:317,317,_ZZN7fishnet8geometry6__implL18closestPointsSweepILb1ERNSt6ranges8ref_viewIKSt6vectorINS0_7SegmentIdEESaIS7_EEEESC_EESt4pairINS0_5Vec2DIdEESF_EOT0_OT1_ENKUlRKT_E_clIS7_EEDaSN_
FN:327,327,_ZZN7fishnet8geometry6__implL18closestPointsSweepILb0ENSt6ranges8ref_viewIKSt6vectorINS0_7SegmentIdEESaIS7_EEEESB_EESt4pairINS0_5Vec2DIdEESE_EOT0_OT1_ENKUlRKT_E0_clIS7_EEDaSM_
FN:327,327,_ZZN7fishnet8geometry6__implL18closestPointsSweepILb0ERNSt6ranges8ref_viewIKSt6vectorINS0_7SegmentIdEESaIS7_EEEERNS4_IKS5_INS6_IiEESaISD_EEEEEESt4pairINS0_5Vec2DIdEESL_EOT0_OT1_ENKUlRKT_E0_clISD_EEDaST_
FN:327,327,_ZZN7fishnet8geometry6__implL18closestPointsSweepILb0ERNSt6ranges8ref_viewIKSt6vectorINS0_7SegmentIdEESaIS7_EEEESC_EESt4pairINS0_5Vec2DIdEESF_EOT0_OT1_ENKUlRKT_E0_clIS7_EEDaSN_
FN:327,327,_ZZN7fishnet8geometry6__implL18closestPointsSweepILb1ENSt6ranges8ref_viewIKSt6vectorINS0_7SegmentIdEESaIS7_EEEESB_EESt4pairINS0_5Vec2DIdEESE_EOT0_OT1_ENKUlRKT_E0_clIS7_EEDaSM_
FN:327,327,_ZZN7fishnet8geometry6__implL18closestPointsSweepILb1ERNSt6ranges8ref_viewIKSt6vectorINS0_7SegmentIdEESaIS7_EEEERNS4_IKS5_INS6_IiEESaISD_EEEEEESt4pairINS0_5Vec2DIdEESL_EOT0_OT1_ENKUlRKT_E0_clISD_EEDaST_
FN:327,327,_ZZN7fishnet8geometry6__implL18closestPointsSweepILb1ERNSt6ranges8ref_viewIKSt6vectorINS0_7SegmentIdEESaIS7_EEEESC_EESt4pairINS0_5Vec2DIdEESF_EOT0_OT1_ENKUlRKT_E0_clIS7_EEDaSN_
FN:337,337,_ZZN7fishnet8geometry6__implL18closestPointsSweepILb0ENSt6ranges8ref_viewIKSt6vectorINS0_7SegmentIdEESaIS7_EEEESB_EESt4pairINS0_5Vec2DIdEESE_EOT0_OT1_ENKUlRKT_E1_clINS1_12PolygonPointILb0EEEEEDaSM_
FN:337,337,_ZZN7fishnet8geometry6__implL18closestPointsSweepILb0ERNSt6ranges8ref_viewIKSt6vectorINS0_7SegmentIdEESaIS7_EEEERNS4_IKS5_INS6_IiEESaISD_EEEEEESt4pairINS0_5Vec2DIdEESL_EOT0_OT1_ENKUlRKT_E1_clINS1_12PolygonPointILb0EEEEEDaST_
FN:337,337,_ZZN7fishnet8geometry6__implL18closestPointsSweepILb0ERNSt6ranges8ref_viewIKSt6vectorINS0_7SegmentIdEESaIS7_EEEESC_EESt4pairINS0_5Vec2DIdEESF_EOT0_OT1_ENKUlRKT_E1_clINS1_12PolygonPointILb0EEEEEDaSN_
FN:337,337,_ZZN7fishnet8geometry6__implL18closestPointsSweepILb1ENSt6ranges8ref_viewIKSt6vectorINS0_7SegmentIdEESaIS7_EEEESB_EESt4pairINS0_5Vec2DIdEESE_EOT0_OT1_ENKUlRKT_E1_clINS1_12PolygonPointILb1EEEEEDaSM_
FN:337,337,_ZZN7fishnet8geometry6__implL18closestPointsSweepILb1ERNSt6ranges8ref_viewIKSt6vectorINS0_7SegmentIdEESaIS7_EEEERNS4_IKS5_INS6_IiEESaISD_EEEEEESt4pairINS0_5Vec2DIdEESL_EOT0_OT1_ENKUlRKT_E1_clINS1_12PolygonPointILb1EEEEEDaST_
FN:337,337,_ZZN7fishnet8geometry6__implL18closestPointsSweepILb1ERNSt6ranges8ref_viewIKSt6vectorINS0_7SegmentIdEESaIS7_EEEESC_EESt4pairINS0_5Vec2DIdEESF_EOT0_OT1_ENKUlRKT_E1_clINS1_12PolygonPointILb1EEEEEDaSN_
FN:34,46,_ZN7fishnet8geometryL13closestPointsINS0_7SegmentIdEES3_EESt4pairINS0_5Vec2DIdEES6_ERKT_RKT0_
FN:345,353,_ZN7fishnet8geometry6__implL18closestPointsSweepIRNSt6ranges8ref_viewIKSt6vectorINS0_7SegmentIdEESaIS7_EEEERNS4_IKS5_INS6_IiEESaISD_EEEEEESt4pairINS0_5Vec2DIdEESL_EOT_OT0_
FN:345,353,_ZN7fishnet8geometry6__implL18closestPointsSweepIRNSt6ranges8ref_viewIKSt6vectorINS0_7SegmentIdEESaIS7_EEEESC_EESt4pairINS0_5Vec2DIdEESF_EOT_OT0_
FN:363,390,_ZN7fishnet8geometry6__implL23closestPointsBruteForceINSt6ranges8ref_viewIKSt6vectorINS0_7SegmentIdEESaIS7_EEEESB_EESt4pairINS0_5Vec2DIdEESE_EOT_OT0_
FN:363,390,_ZN7fishnet8geometry6__implL23closestPointsBruteForceIRNSt6ranges8ref_viewIKSt6vectorINS0_7SegmentIdEESaIS7_EEEERNS4_IKS5_INS6_IiEESaISD_EEEEEESt4pairINS0_5Vec2DIdEESL_EOT_OT0_
FN:363,390,_ZN7fishnet8geometry6__implL23closestPointsBruteForceIRNSt6ranges8ref_viewIKSt6vectorINS0_7SegmentIdEESaIS7_EEEESC_EESt4pairINS0_5Vec2DIdEESF_EOT_OT0_
FN:367,367,_ZZN7fishnet8geometry6__implL23closestPointsBruteForceINSt6ranges8ref_viewIKSt6vectorINS0_7SegmentIdEESaIS7_EEEESB_EESt4pairINS0_5Vec2DIdEESE_EOT_OT0_ENKUlRKSG_E_clIS7_EEDaSL_
FN:367,367,_ZZN7fishnet8geometry6__implL23closestPointsBruteForceIRNSt6ranges8ref_viewIKSt6vectorINS0_7SegmentIdEESaIS7_EEEERNS4_IKS5_INS6_IiEESaISD_EEEEEESt4pairINS0_5Vec2DIdEESL_EOT_OT0_ENKUlRKSN_E_clIS7_EEDaSS_
FN:367,367,_ZZN7fishnet8geometry6__implL23closestPointsBruteForceIRNSt6ranges8ref_viewIKSt6vectorINS0_7SegmentIdEESaIS7_EEEESC_EESt4pairINS0_5Vec2DIdEESF_EOT_OT0_ENKUlRKSH_E_clIS7_EEDaSM_
FN:368,368,_ZZN7fishnet8geometry6__implL23closestPointsBruteForceINSt6ranges8ref_viewIKSt6vectorINS0_7SegmentIdEESaIS7_EEEESB_EESt4pairINS0_5Vec2DIdEESE_EOT_OT0_ENKUlRKSG_E0_clIS7_EEDaSL_
FN:368,368,_ZZN7fishnet8geometry6__implL23closestPointsBruteForceIRNSt6ranges8ref_viewIKSt6vectorINS0_7SegmentIdEESaIS7_EEEERNS4_IKS5_INS6_IiEESaISD_EEEEEESt4pairINS0_5Vec2DIdEESL_EOT_OT0_ENKUlRKSN_E0_clISD_EEDaSS_
FN:368,368,_ZZN7fishnet8geometry6__implL23closestPointsBruteForceIRNSt6ranges8ref_viewIKSt6vectorINS0_7SegmentIdEESaIS7_EEEESC_EESt4pairINS0_5Vec2DIdEESF_EOT_OT0_ENKUlRKSH_E0_clIS7_EEDaSM_
FN:398,400,_ZN7fishnet8geometry6__impl23DefaultDistanceFunctionclIddEEdRKNS0_5Vec2DIT_EERKNS4_IT0_EE
FN:41,41,_ZZN7fishnet8geometryL13closestPointsINS0_7SegmentIdEES3_EESt4pairINS0_5Vec2DIdEES6_ERKT_RKT0_ENKUlSA_SD_E_clIS7_S7_EEDaSA_SD_
FN:410,416,_ZN7fishnet8geometry6__implL13closestPointsINSt6ranges8ref_viewIKSt6vectorINS0_7SegmentIdEESaIS7_EEEENS4_IKS5_INS6_IiEESaISC_EEEEEESt4pairINS0_5Vec2DIdEESJ_EOT_OT0_
FN:410,416,_ZN7fishnet8geometry6__implL13closestPointsINSt6ranges8ref_viewIKSt6vectorINS0_7SegmentIdEESaIS7_EEEESB_EESt4pairINS0_5Vec2DIdEESE_EOT_OT0_
FN:426,428,_ZN7fishnet8geometryL13closestPointsINS0_4RingIdEENS2_IiEEEESt4pairINS0_5Vec2DIdEES7_ERKT_RKT0_
FN:426,428,_ZN7fishnet8geometryL13closestPointsINS0_4RingIdEES3_EESt4pairINS0_5Vec2DIdEES6_ERKT_RKT0_
FN:438,440,_ZN7fishnet8geometryL13closestPointsINS0_13SimplePolygonIdEES3_vEESt4pairINS0_5Vec2DIdEES6_ERKT_RKT0_
FN:438,440,_ZN7fishnet8geometryL13closestPointsINS0_7PolygonIdEES3_vEESt4pairINS0_5Vec2DIdEES6_ERKT_RKT0_
FN:465,468,_ZN7fishnet8geometryL13shapeDistanceINS0_13SimplePolygonIdEES3_NS0_6__impl23DefaultDistanceFunctionEEEdRKT_RKT0_RKT1_
FN:465,468,_ZN7fishnet8geometryL13shapeDistanceINS0_4RingIdEENS2_IiEENS0_6__impl23DefaultDistanceFunctionEEEdRKT_RKT0_RKT1_
FN:465,468,_ZN7fishnet8geometryL13shapeDistanceINS0_4RingIdEES3_NS0_6__impl23DefaultDistanceFunctionEEEdRKT_RKT0_RKT1_
FN:477,479,_ZN7fishnet8geometryL13shapeDistanceINS0_13SimplePolygonIdEES3_EEdRKT_RKT0_
FN:477,479,_ZN7fishnet8geometryL13shapeDistanceINS0_4RingIdEENS2_IiEEEEdRKT_RKT0_
FN:477,479,_ZN7fishnet8geometryL13shapeDistanceINS0_4RingIdEES3_EEdRKT_RKT0_
FN:64,64,_ZN7fishnet8geometry6__impl16PolygonReferenceC2Ev
FN:65,65,_ZN7fishnet8geometry6__impl16PolygonReferenceC2ENS2_4TypeE
FN:67,69,_ZNK7fishnet8geometry6__impl16PolygonReference6isNoneEv
FN:71,73,_ZN7fishnet8geometry6__impl16PolygonReference4THISEv
FN:75,77,_ZN7fishnet8geometry6__impl16PolygonReference5OTHEREv
FN:79,81,_ZNK7fishnet8geometry6__impl16PolygonReferenceltERKS2_
FN:83,85,_ZNK7fishnet8geometry6__impl16PolygonReferenceeqERKS2_
FN:87,92,_ZNK7fishnet8geometry6__impl16PolygonReference5otherEv
FNDA:7120,_ZN7fishnet8geometry6__impl12PolygonPointILb0EEC2EONS0_7SegmentIdEENS1_16PolygonReferenceE
FNDA:3376,_ZN7fishnet8geometry6__impl12PolygonPointILb1EEC2EONS0_7SegmentIdEENS1_16PolygonReferenceE
FNDA:208012,_ZNK7fishnet8geometry6__impl12PolygonPointILb0EE8getPointEv
FNDA:112308,_ZNK7fishnet8geometry6__impl12PolygonPointILb1EE8getPointEv
FNDA:2716,_ZNK7fishnet8geometry6__impl12PolygonPointILb0EE10getSegmentEv
FNDA:74689,_ZNK7fishnet8geometry6__impl12PolygonPointILb1EE10getSegmentEv
FNDA:68130,_ZNK7fishnet8geometry6__impl12PolygonPointILb0EEltERKS3_
FNDA:40578,_ZNK7fishnet8geometry6__impl12PolygonPointILb1EEltERKS3_
FNDA:3,_ZN7fishnet8geometry6__impl19ClosestPointsResultC2ERKNS0_5Vec2DIdEES6_mm
FNDA:3840,_ZN7fishnet8geometry6__impl19ClosestPointsResult11startSearchENS1_16PolygonReferenceE
FNDA:375712,_ZN7fishnet8geometryL21closestPointOnSegmentINS0_7SegmentIdEENS0_5Vec2DIdEEEES5_RKT_RKT0_
FNDA:40,_ZN7fishnet8geometryL21closestPointOnSegmentINS0_7SegmentIdEENS0_5Vec2DIiEEEENS4_IdEERKT_RKT0_
FNDA:40,_ZN7fishnet8geometryL21closestPointOnSegmentINS0_7SegmentIiEENS0_5Vec2DIdEEEES5_RKT_RKT0_
FNDA:2560,_ZN7fishnet8geometry6__impl19ClosestPointsResult5visitILb0EEEvRKNS1_12PolygonPointIXT_EEE
FNDA:1280,_ZN7fishnet8geometry6__impl19ClosestPointsResult5visitILb1EEEvRKNS1_12PolygonPointIXT_EEE
FNDA:0,_ZNK7fishnet8geometry6__impl19ClosestPointsResult12getNeighbourILb0EEERKNS0_5Vec2DIdEERKNS1_12PolygonPointIXT_EEE
FNDA:0,_ZNK7fishnet8geometry6__impl19ClosestPointsResult12getNeighbourILb1EEERKNS0_5Vec2DIdEERKNS1_12PolygonPointIXT_EEE
FNDA:2560,_ZN7fishnet8geometry6__impl24PolygonSegmentSweepEventILb0EEC2ERKNS1_12PolygonPointILb0EEE
FNDA:1280,_ZN7fishnet8geometry6__impl24PolygonSegmentSweepEventILb1EEC2ERKNS1_12PolygonPointILb1EEE
FNDA:113940,_ZNK7fishnet8geometry6__impl24PolygonSegmentSweepEventILb0EE10eventPointEv
FNDA:55512,_ZNK7fishnet8geometry6__impl24PolygonSegmentSweepEventILb1EE10eventPointEv
FNDA:2560,_ZNK7fishnet8geometry6__impl24PolygonSegmentSweepEventILb0EE4stopERNS0_9SweepLineINS1_12PolygonPointILb0EEENS1_19ClosestPointsResultESt4lessIS6_ELb0ES8_IdEEERS7_
FNDA:1280,_ZNK7fishnet8geometry6__impl24PolygonSegmentSweepEventILb1EE4stopERNS0_9SweepLineINS1_12PolygonPointILb1EEENS1_19ClosestPointsResultESt4lessIS6_ELb0ES8_IdEEERS7_
FNDA:2280,_ZNK7fishnet8geometry6__impl24PolygonSegmentSweepEventILb0EE15lowerBoundQueryERNS1_19ClosestPointsResultE
FNDA:1048,_ZNK7fishnet8geometry6__impl24PolygonSegmentSweepEventILb1EE15lowerBoundQueryERNS1_19ClosestPointsResultE
FNDA:2280,_ZNK7fishnet8geometry6__impl24PolygonSegmentSweepEventILb0EE15upperBoundQueryERNS1_19ClosestPointsResultE
FNDA:1048,_ZNK7fishnet8geometry6__impl24PolygonSegmentSweepEventILb1EE15upperBoundQueryERNS1_19ClosestPointsResultE
FNDA:2560,_ZNK7fishnet8geometry6__impl24PolygonSegmentSweepEventILb0EE7processERNS0_9SweepLineINS1_12PolygonPointILb0EEENS1_19ClosestPointsResultESt4lessIS6_ELb0ES8_IdEEERS7_
FNDA:1280,_ZNK7fishnet8geometry6__impl24PolygonSegmentSweepEventILb1EE7processERNS0_9SweepLineINS1_12PolygonPointILb1EEENS1_19ClosestPointsResultESt4lessIS6_ELb0ES8_IdEEERS7_
FNDA:1,_ZN7fishnet8geometry6__implL18closestPointsSweepILb0ENSt6ranges8ref_viewIKSt6vectorINS0_7SegmentIdEESaIS7_EEEESB_EESt4pairINS0_5Vec2DIdEESE_EOT0_OT1_
FNDA:0,_ZN7fishnet8geometry6__implL18closestPointsSweepILb0ERNSt6ranges8ref_viewIKSt6vectorINS0_7SegmentIdEESaIS7_EEEERNS4_IKS5_INS6_IiEESaISD_EEEEEESt4pairINS0_5Vec2DIdEESL_EOT0_OT1_
FNDA:1,_ZN7fishnet8geometry6__implL18closestPointsSweepILb0ERNSt6ranges8ref_viewIKSt6vectorINS0_7SegmentIdEESaIS7_EEEESC_EESt4pairINS0_5Vec2DIdEESF_EOT0_OT1_
FNDA:1,_ZN7fishnet8geometry6__implL18closestPointsSweepILb1ENSt6ranges8ref_viewIKSt6vectorINS0_7SegmentIdEESaIS7_EEEESB_EESt4pairINS0_5Vec2DIdEESE_EOT0_OT1_
FNDA:0,_ZN7fishnet8geometry6__implL18closestPointsSweepILb1ERNSt6ranges8ref_viewIKSt6vectorINS0_7SegmentIdEESaIS7_EEEERNS4_IKS5_INS6_IiEESaISD_EEEEEESt4pairINS0_5Vec2DIdEESL_EOT0_OT1_
FNDA:0,_ZN7fishnet8geometry6__implL18closestPointsSweepILb1ERNSt6ranges8ref_viewIKSt6vectorINS0_7SegmentIdEESaIS7_EEEESC_EESt4pairINS0_5Vec2DIdEESF_EOT0_OT1_
FNDA:570,_ZZN7fishnet8geometry6__implL18closestPointsSweepILb0ENSt6ranges8ref_viewIKSt6vectorINS0_7SegmentIdEESaIS7_EEEESB_EESt4pairINS0_5Vec2DIdEESE_EOT0_OT1_ENKUlRKT_E_clIS7_EEDaSM_
FNDA:0,_ZZN7fishnet8geometry6__implL18closestPointsSweepILb0ERNSt6ranges8ref_viewIKSt6vectorINS0_7SegmentIdEESaIS7_EEEERNS4_IKS5_INS6_IiEESaISD_EEEEEESt4pairINS0_5Vec2DIdEESL_EOT0_OT1_ENKUlRKT_E_clIS7_EEDaST_
FNDA:570,_ZZN7fishnet8geometry6__implL18closestPointsSweepILb0ERNSt6ranges8ref_viewIKSt6vectorINS0_7SegmentIdEESaIS7_EEEESC_EESt4pairINS0_5Vec2DIdEESF_EOT0_OT1_ENKUlRKT_E_clIS7_EEDaSN_
FNDA:570,_ZZN7fishnet8geometry6__implL18closestPointsSweepILb1ENSt6ranges8ref_viewIKSt6vectorINS0_7SegmentIdEESaIS7_EEEESB_EESt4pairINS0_5Vec2DIdEESE_EOT0_OT1_ENKUlRKT_E_clIS7_EEDaSM_
FNDA:0,_ZZN7fishnet8geometry6__implL18closestPointsSweepILb1ERNSt6ranges8ref_viewIKSt6vectorINS0_7SegmentIdEESaIS7_EEEERNS4_IKS5_INS6_IiEESaISD_EEEEEESt4pairINS0_5Vec2DIdEESL_EOT0_OT1_ENKUlRKT_E_clIS7_EEDaST_
FNDA:0,_ZZN7fishnet8geometry6__implL18closestPointsSweepILb1ERNSt6ranges8ref_viewIKSt6vectorINS0_7SegmentIdEESaIS7_EEEESC_EESt4pairINS0_5Vec2DIdEESF_EOT0_OT1_ENKUlRKT_E_clIS7_EEDaSN_
FNDA:70,_ZZN7fishnet8geometry6__implL18closestPointsSweepILb0ENSt6ranges8ref_viewIKSt6vectorINS0_7SegmentIdEESaIS7_EEEESB_EESt4pairINS0_5Vec2DIdEESE_EOT0_OT1_ENKUlRKT_E0_clIS7_EEDaSM_
FNDA:0,_ZZN7fishnet8geometry6__implL18closestPointsSweepILb0ERNSt6ranges8ref_viewIKSt6vectorINS0_7SegmentIdEESaIS7_EEEERNS4_IKS5_INS6_IiEESaISD_EEEEEESt4pairINS0_5Vec2DIdEESL_EOT0_OT1_ENKUlRKT_E0_clISD_EEDaST_
FNDA:70,_ZZN7fishnet8geometry6__implL18closestPointsSweepILb0ERNSt6ranges8ref_viewIKSt6vectorINS0_7SegmentIdEESaIS7_EEEESC_EESt4pairINS0_5Vec2DIdEESF_EOT0_OT1_ENKUlRKT_E0_clIS7_EEDaSN_
FNDA:70,_ZZN7fishnet8geometry6__implL18closestPointsSweepILb1ENSt6ranges8ref_viewIKSt6vectorINS0_7SegmentIdEESaIS7_EEEESB_EESt4pairINS0_5Vec2DIdEESE_EOT0_OT1_ENKUlRKT_E0_clIS7_EEDaSM_
FNDA:0,_ZZN7fishnet8geometry6__implL18closestPointsSweepILb1ERNSt6ranges8ref_viewIKSt6vectorINS0_7SegmentIdEESaIS7_EEEERNS4_IKS5_INS6_IiEESaISD_EEEEEESt4pairINS0_5Vec2DIdEESL_EOT0_OT1_ENKUlRKT_E0_clISD_EEDaST_
FNDA:0,_ZZN7fishnet8geometry6__implL18closestPointsSweepILb1ERNSt6ranges8ref_viewIKSt6vectorINS0_7SegmentIdEESaIS7_EEEESC_EESt4pairINS0_5Vec2DIdEESF_EOT0_OT1_ENKUlRKT_E0_clIS7_EEDaSN_
FNDA:1280,_ZZN7fishnet8geometry6__implL18closestPointsSweepILb0ENSt6ranges8ref_viewIKSt6vectorINS0_7SegmentIdEESaIS7_EEEESB_EESt4pairINS0_5Vec2DIdEESE_EOT0_OT1_ENKUlRKT_E1_clINS1_12PolygonPointILb0EEEEEDaSM_
FNDA:0,_ZZN7fishnet8geometry6__implL18closestPointsSweepILb0ERNSt6ranges8ref_viewIKSt6vectorINS0_7SegmentIdEESaIS7_EEEERNS4_IKS5_INS6_IiEESaISD_EEEEEESt4pairINS0_5Vec2DIdEESL_EOT0_OT1_ENKUlRKT_E1_clINS1_12PolygonPointILb0EEEEEDaST_
FNDA:1280,_ZZN7fishnet8geometry6__implL18closestPointsSweepILb0ERNSt6ranges8ref_viewIKSt6vectorINS0_7SegmentIdEESaIS7_EEEESC_EESt4pairINS0_5Vec2DIdEESF_EOT0_OT1_ENKUlRKT_E1_clINS1_12PolygonPointILb0EEEEEDaSN_
FNDA:1280,_ZZN7fishnet8geometry6__implL18closestPointsSweepILb1ENSt6ranges8ref_viewIKSt6vectorINS0_7SegmentIdEESaIS7_EEEESB_EESt4pairINS0_5Vec2DIdEESE_EOT0_OT1_ENKUlRKT_E1_clINS1_12PolygonPointILb1EEEEEDaSM_
FNDA:0,_ZZN7fishnet8geometry6__implL18closestPointsSweepILb1ERNSt6ranges8ref_viewIKSt6vectorINS0_7SegmentIdEESaIS7_EEEERNS4_IKS5_INS6_IiEESaISD_EEEEEESt4pairINS0_5Vec2DIdEESL_EOT0_OT1_ENKUlRKT_E1_clINS1_12PolygonPointILb1EEEEEDaST_
FNDA:0,_ZZN7fishnet8geometry6__implL18closestPointsSweepILb1ERNSt6ranges8ref_viewIKSt6vectorINS0_7SegmentIdEESaIS7_EEEESC_EESt4pairINS0_5Vec2DIdEESF_EOT0_OT1_ENKUlRKT_E1_clINS1_12PolygonPointILb1EEEEEDaSN_
FNDA:73406,_ZN7fishnet8geometryL13closestPointsINS0_7SegmentIdEES3_EESt4pairINS0_5Vec2DIdEES6_ERKT_RKT0_
FNDA:0,_ZN7fishnet8geometry6__implL18closestPointsSweepIRNSt6ranges8ref_viewIKSt6vectorINS0_7SegmentIdEESaIS7_EEEERNS4_IKS5_INS6_IiEESaISD_EEEEEESt4pairINS0_5Vec2DIdEESL_EOT_OT0_
FNDA:1,_ZN7fishnet8geometry6__implL18closestPointsSweepIRNSt6ranges8ref_viewIKSt6vectorINS0_7SegmentIdEESaIS7_EEEESC_EESt4pairINS0_5Vec2DIdEESF_EOT_OT0_
FNDA:1,_ZN7fishnet8geometry6__implL23closestPointsBruteForceINSt6ranges8ref_viewIKSt6vectorINS0_7SegmentIdEESaIS7_EEEESB_EESt4pairINS0_5Vec2DIdEESE_EOT_OT0_
FNDA:1,_ZN7fishnet8geometry6__implL23closestPointsBruteForceIRNSt6ranges8ref_viewIKSt6vectorINS0_7SegmentIdEESaIS7_EEEERNS4_IKS5_INS6_IiEESaISD_EEEEEESt4pairINS0_5Vec2DIdEESL_EOT_OT0_
FNDA:68,_ZN7fishnet8geometry6__implL23closestPointsBruteForceIRNSt6ranges8ref_viewIKSt6vectorINS0_7SegmentIdEESaIS7_EEEESC_EESt4pairINS0_5Vec2DIdEESF_EOT_OT0_
FNDA:39900,_ZZN7fishnet8geometry6__implL23closestPointsBruteForceINSt6ranges8ref_viewIKSt6vectorINS0_7SegmentIdEESaIS7_EEEESB_EESt4pairINS0_5Vec2DIdEESE_EOT_OT0_ENKUlRKSG_E_clIS7_EEDaSL_
FNDA:40,_ZZN7fishnet8geometry6__implL23closestPointsBruteForceIRNSt6ranges8ref_viewIKSt6vectorINS0_7SegmentIdEESaIS7_EEEERNS4_IKS5_INS6_IiEESaISD_EEEEEESt4pairINS0_5Vec2DIdEESL_EOT_OT0_ENKUlRKSN_E_clIS7_EEDaSS_
FNDA:1144,_ZZN7fishnet8geometry6__implL23closestPointsBruteForceIRNSt6ranges8ref_viewIKSt6vectorINS0_7SegmentIdEESaIS7_EEEESC_EESt4pairINS0_5Vec2DIdEESF_EOT_OT0_ENKUlRKSH_E_clIS7_EEDaSM_
FNDA:39900,_ZZN7fishnet8geometry6__implL23closestPointsBruteForceINSt6ranges8ref_viewIKSt6vectorINS0_7SegmentIdEESaIS7_EEEESB_EESt4pairINS0_5Vec2DIdEESE_EOT_OT0_ENKUlRKSG_E0_clIS7_EEDaSL_
FNDA:40,_ZZN7fishnet8geometry6__implL23closestPointsBruteForceIRNSt6ranges8ref_viewIKSt6vectorINS0_7SegmentIdEESaIS7_EEEERNS4_IKS5_INS6_IiEESaISD_EEEEEESt4pairINS0_5Vec2DIdEESL_EOT_OT0_ENKUlRKSN_E0_clISD_EEDaSS_
FNDA:1144,_ZZN7fishnet8geometry6__implL23closestPointsBruteForceIRNSt6ranges8ref_viewIKSt6vectorINS0_7SegmentIdEESaIS7_EEEESC_EESt4pairINS0_5Vec2DIdEESF_EOT_OT0_ENKUlRKSH_E0_clIS7_EEDaSM_
FNDA:69,_ZN7fishnet8geometry6__impl23DefaultDistanceFunctionclIddEEdRKNS0_5Vec2DIT_EERKNS4_IT0_EE
FNDA:220218,_ZZN7fishnet8geometryL13closestPointsINS0_7SegmentIdEES3_EESt4pairINS0_5Vec2DIdEES6_ERKT_RKT0_ENKUlSA_SD_E_clIS7_S7_EEDaSA_SD_
FNDA:1,_ZN7fishnet8geometry6__implL13closestPointsINSt6ranges8ref_viewIKSt6vectorINS0_7SegmentIdEESaIS7_EEEENS4_IKS5_INS6_IiEESaISC_EEEEEESt4pairINS0_5Vec2DIdEESJ_EOT_OT0_
FNDA:69,_ZN7fishnet8geometry6__implL13closestPointsINSt6ranges8ref_viewIKSt6vectorINS0_7SegmentIdEESaIS7_EEEESB_EESt4pairINS0_5Vec2DIdEESE_EOT_OT0_
FNDA:1,_ZN7fishnet8geometryL13closestPointsINS0_4RingIdEENS2_IiEEEESt4pairINS0_5Vec2DIdEES7_ERKT_RKT0_
FNDA:69,_ZN7fishnet8geometryL13closestPointsINS0_4RingIdEES3_EESt4pairINS0_5Vec2DIdEES6_ERKT_RKT0_
FNDA:15,_ZN7fishnet8geometryL13closestPointsINS0_13SimplePolygonIdEES3_vEESt4pairINS0_5Vec2DIdEES6_ERKT_RKT0_
FNDA:1,_ZN7fishnet8geometryL13closestPointsINS0_7PolygonIdEES3_vEESt4pairINS0_5Vec2DIdEES6_ERKT_RKT0_
FNDA:15,_ZN7fishnet8geometryL13shapeDistanceINS0_13SimplePolygonIdEES3_NS0_6__impl23DefaultDistanceFunctionEEEdRKT_RKT0_RKT1_
FNDA:1,_ZN7fishnet8geometryL13shapeDistanceINS0_4RingIdEENS2_IiEENS0_6__impl23DefaultDistanceFunctionEEEdRKT_RKT0_RKT1_
FNDA:53,_ZN7fishnet8geometryL13shapeDistanceINS0_4RingIdEES3_NS0_6__impl23DefaultDistanceFunctionEEEdRKT_RKT0_RKT1_
FNDA:15,_ZN7fishnet8geometryL13shapeDistanceINS0_13SimplePolygonIdEES3_EEdRKT_RKT0_
FNDA:1,_ZN7fishnet8geometryL13shapeDistanceINS0_4RingIdEENS2_IiEEEEdRKT_RKT0_
FNDA:53,_ZN7fishnet8geometryL13shapeDistanceINS0_4RingIdEES3_EEdRKT_RKT0_
FNDA:3,_ZN7fishnet8geometry6__impl16PolygonReferenceC2Ev
FNDA:14381,_ZN7fishnet8geometry6__impl16PolygonReferenceC2ENS2_4TypeE
FNDA:515,_ZNK7fishnet8geometry6__impl16PolygonReference6isNoneEv
FNDA:7585,_ZN7fishnet8geometry6__impl16PolygonReference4THISEv
FNDA:6796,_ZN7fishnet8geometry6__impl16PolygonReference5OTHEREv
FNDA:38522,_ZNK7fishnet8geometry6__impl16PolygonReferenceltERKS2_
FNDA:113108,_ZNK7fishnet8geometry6__impl16PolygonReferenceeqERKS2_
FNDA:6656,_ZNK7fishnet8geometry6__impl16PolygonReference5otherEv
FNF:87
FNH:72
DA:17,375792
DA:18,375792
DA:19,375792
DA:20,375792
DA:21,375792
DA:22,8592
DA:23,367200
DA:34,73406
DA:35,293624
DA:36,73406
DA:37,73406
DA:38,73406
DA:39,73406
DA:41,73406
DA:42,220218
DA:43,220218
DA:44,220218
DA:45,73406
DA:64,3
DA:65,14381
DA:67,515
DA:68,515
DA:71,7585
DA:72,7585
DA:75,6796
DA:76,6796
DA:79,38522
DA:80,38522
DA:83,113108
DA:84,113108
DA:87,6656
DA:88,6656
DA:89,6376
DA:91,280
DA:109,10496
DA:110,10496
DA:112,320320
DA:113,320320
DA:116,77405
DA:117,77405
DA:120,108708
DA:121,108708
DA:123,26710
DA:125,43476
DA:127,38522
DA:148,3
DA:149,3
DA:151,3840
DA:152,3840
DA:153,3325
DA:155,515
DA:156,3
DA:158,515
DA:159,3
DA:161,515
DA:171,3840
DA:172,3840
DA:173,3420
DA:175,420
DA:176,3840
DA:186,0
DA:187,0
DA:188,0
DA:190,0
DA:200,3840
DA:202,169452
DA:204,55512
DA:206,113940
DA:217,3840
DA:219,1280
DA:221,2560
DA:230,3328
DA:232,1048
DA:234,2280
DA:243,3328
DA:245,1048
DA:247,2280
DA:250,3840
DA:251,3840
DA:252,3840
DA:253,3840
DA:254,3840
DA:255,3840
DA:256,3840
DA:258,0
DA:259,0
DA:260,0
DA:262,3840
DA:263,512
DA:264,3328
DA:265,3328
DA:266,3328
DA:267,3328
DA:268,3328
DA:269,76893
DA:270,73565
DA:273,73409
DA:274,65
DA:275,65
DA:278,156
DA:279,94
DA:280,94
DA:283,73406
DA:284,73406
DA:285,73406
DA:286,45
DA:288,45
DA:289,32
DA:290,32
DA:292,13
DA:293,13
DA:296,73406
DA:310,3
DA:311,3
DA:312,3
DA:313,3
DA:315,3
DA:316,3
DA:317,3423
DA:319,570
DA:320,570
DA:322,1140
DA:323,1140
DA:325,0
DA:327,423
DA:329,70
DA:330,70
DA:332,140
DA:333,140
DA:335,0
DA:337,7683
DA:338,3840
DA:340,3
DA:341,3
DA:342,3
DA:345,1
DA:346,1
DA:347,1
DA:348,1
DA:349,1
DA:350,0
DA:352,1
DA:363,70
DA:364,70
DA:365,70
DA:366,70
DA:367,41154
DA:368,41154
DA:369,934
DA:370,41948
DA:371,41084
DA:372,41084
DA:373,227
DA:374,227
DA:375,227
DA:379,415
DA:380,41429
DA:381,41084
DA:382,41084
DA:383,6
DA:384,6
DA:385,6
DA:389,70
DA:398,69
DA:399,69
DA:410,70
DA:412,70
DA:413,1
DA:415,69
DA:426,70
DA:427,70
DA:438,16
DA:439,16
DA:465,69
DA:466,69
DA:467,69
DA:477,69
DA:478,69
LF:178
LH:168
end_of_record
TN:
SF:/home/lolo/Documents/fishnet/lib/geometry/algorithm/include/fishnet/PolygonFilter.hpp
FN:101,101,_ZZN7fishnet8geometryL6filterINSt6ranges14transform_viewINS2_8ref_viewISt6vectorINS0_13SimplePolygonIdEESaIS7_EEEEZN35SweepLineTest_polygonFiltering_Test8TestBodyEvEUlRKT_E_EEZNSB_8TestBodyEvEUlRKS7_SI_E_ZNSB_8TestBodyEvEUlSI_E_EES5_INSt8__detail13__iter_traits10value_typeESaISN_EESE_T0_T1_ENKUlSE_E_clIS7_EEDaSE_
FN:101,101,_ZZN7fishnet8geometryL6filterISt6vectorINS0_13SimplePolygonIdEESaIS4_EEZN35SweepLineTest_polygonFiltering_Test8TestBodyEvEUlRKS4_S9_E_ZNS7_8TestBodyEvEUlS9_E_EES2_INSt8__detail13__iter_traits10value_typeESaISE_EERKT_T0_T1_ENKUlSJ_E_clIS4_EEDaSJ_
FN:101,101,_ZZN7fishnet8geometryL6filterISt6vectorINS0_13SimplePolygonIdEESaIS4_EEZNS0_12MultiPolygonIS4_EC4IRS6_EEOT_bEUlRKS4_SE_E_NS_4util13TruePredicateEEES2_INSt8__detail13__iter_traits10value_typeESaISK_EERKSB_T0_T1_ENKUlSO_E_clIS4_EEDaSO_
FN:101,101,_ZZN7fishnet8geometryL6filterISt6vectorINS0_7PolygonIdEESaIS4_EEZNS0_12MultiPolygonIS4_EC4IRS6_EEOT_bEUlRKS4_SE_E_NS_4util13TruePredicateEEES2_INSt8__detail13__iter_traits10value_typeESaISK_EERKSB_T0_T1_ENKUlSO_E_clIS4_EEDaSO_
FN:102,102,_ZZN7fishnet8geometryL6filterINSt6ranges14transform_viewINS2_8ref_viewISt6vectorINS0_13SimplePolygonIdEESaIS7_EEEEZN35SweepLineTest_polygonFiltering_Test8TestBodyEvEUlRKT_E_EEZNSB_8TestBodyEvEUlRKS7_SI_E_ZNSB_8TestBodyEvEUlSI_E_EES5_INSt8__detail13__iter_traits10value_typeESaISN_EESE_T0_T1_ENKUlSE_E0_clINS0_18BoundingBoxPolygonIS7_EEEEDaSE_
FN:102,102,_ZZN7fishnet8geometryL6filterISt6vectorINS0_13SimplePolygonIdEESaIS4_EEZN35SweepLineTest_polygonFiltering_Test8TestBodyEvEUlRKS4_S9_E_ZNS7_8TestBodyEvEUlS9_E_EES2_INSt8__detail13__iter_traits10value_typeESaISE_EERKT_T0_T1_ENKUlSJ_E0_clINS0_18BoundingBoxPolygonIS4_EEEEDaSJ_
FN:102,102,_ZZN7fishnet8geometryL6filterISt6vectorINS0_13SimplePolygonIdEESaIS4_EEZNS0_12MultiPolygonIS4_EC4IRS6_EEOT_bEUlRKS4_SE_E_NS_4util13TruePredicateEEES2_INSt8__detail13__iter_traits10value_typeESaISK_EERKSB_T0_T1_ENKUlSO_E0_clINS0_18BoundingBoxPolygonIS4_EEEEDaSO_
FN:102,102,_ZZN7fishnet8geometryL6filterISt6vectorINS0_7PolygonIdEESaIS4_EEZNS0_12MultiPolygonIS4_EC4IRS6_EEOT_bEUlRKS4_SE_E_NS_4util13TruePredicateEEES2_INSt8__detail13__iter_traits10value_typeESaISK_EERKSB_T0_T1_ENKUlSO_E0_clINS0_18BoundingBoxPolygonIS4_EEEEDaSO_
FN:31,31,_ZN7fishnet8geometry6__impl24PolygonFilterInsertEventINS0_13SimplePolygonIdEEZN35SweepLineTest_polygonFiltering_Test8TestBodyEvEUlRKS4_S7_E_ZNS5_8TestBodyEvEUlS7_E_EC2ERKNS0_18BoundingBoxPolygonIS4_EERS8_RS9_
FN:31,31,_ZN7fishnet8geometry6__impl24PolygonFilterInsertEventINS0_13SimplePolygonIdEEZNS0_12MultiPolygonIS4_EC4IRSt6vectorIS4_SaIS4_EEEEOT_bEUlRKS4_SF_E_NS_4util13TruePredicateEEC2ERKNS0_18BoundingBoxPolygonIS4_EERSG_RSI_
FN:31,31,_ZN7fishnet8geometry6__impl24PolygonFilterInsertEventINS0_7PolygonIdEEZNS0_12MultiPolygonIS4_EC4IRSt6vectorIS4_SaIS4_EEEEOT_bEUlRKS4_SF_E_NS_4util13TruePredicateEEC2ERKNS0_18BoundingBoxPolygonIS4_EERSG_RSI_
FN:39,55,_ZNK7fishnet8geometry6__impl24PolygonFilterInsertEventINS0_13SimplePolygonIdEEZN35SweepLineTest_polygonFiltering_Test8TestBodyEvEUlRKS4_S7_E_ZNS5_8TestBodyEvEUlS7_E_E7processERNS0_9SweepLineINS0_18BoundingBoxPolygonIS4_EESt6vectorIS4_SaIS4_EENS0_22HorizontalAABBOrderingIS4_EELb0ESt7greaterIdEEERSG_
FN:39,55,_ZNK7fishnet8geometry6__impl24PolygonFilterInsertEventINS0_13SimplePolygonIdEEZNS0_12MultiPolygonIS4_EC4IRSt6vectorIS4_SaIS4_EEEEOT_bEUlRKS4_SF_E_NS_4util13TruePredicateEE7processERNS0_9SweepLineINS0_18BoundingBoxPolygonIS4_EESA_NS0_22HorizontalAABBOrderingIS4_EELb0ESt7greaterIdEEESB_
FN:39,55,_ZNK7fishnet8geometry6__impl24PolygonFilterInsertEventINS0_7PolygonIdEEZNS0_12MultiPolygonIS4_EC4IRSt6vectorIS4_SaIS4_EEEEOT_bEUlRKS4_SF_E_NS_4util13TruePredicateEE7processERNS0_9SweepLineINS0_18BoundingBoxPolygonIS4_EESA_NS0_22HorizontalAABBOrderingIS4_EELb0ESt7greaterIdEEESB_
FN:62,64,_ZNK7fishnet8geometry6__impl24PolygonFilterInsertEventINS0_13SimplePolygonIdEEZN35SweepLineTest_polygonFiltering_Test8TestBodyEvEUlRKS4_S7_E_ZNS5_8TestBodyEvEUlS7_E_E10eventPointEv
FN:62,64,_ZNK7fishnet8geometry6__impl24PolygonFilterInsertEventINS0_13SimplePolygonIdEEZNS0_12MultiPolygonIS4_EC4IRSt6vectorIS4_SaIS4_EEEEOT_bEUlRKS4_SF_E_NS_4util13TruePredicateEE10eventPointEv
FN:62,64,_ZNK7fishnet8geometry6__impl24PolygonFilterInsertEventINS0_7PolygonIdEEZNS0_12MultiPolygonIS4_EC4IRSt6vectorIS4_SaIS4_EEEEOT_bEUlRKS4_SF_E_NS_4util13TruePredicateEE10eventPointEv
FN:69,69,_ZN7fishnet8geometry6__impl24PolygonFilterRemoveEventINS0_13SimplePolygonIdEEEC2ERKNS0_18BoundingBoxPolygonIS4_EE
FN:69,69,_ZN7fishnet8geometry6__impl24PolygonFilterRemoveEventINS0_7PolygonIdEEEC2ERKNS0_18BoundingBoxPolygonIS4_EE
FN:75,77,_ZNK7fishnet8geometry6__impl24PolygonFilterRemoveEventINS0_13SimplePolygonIdEEE10eventPointEv
FN:75,77,_ZNK7fishnet8geometry6__impl24PolygonFilterRemoveEventINS0_7PolygonIdEEE10eventPointEv
FN:93,107,_ZN7fishnet8geometryL6filterINSt6ranges14transform_viewINS2_8ref_viewISt6vectorINS0_13SimplePolygonIdEESaIS7_EEEEZN35SweepLineTest_polygonFiltering_Test8TestBodyEvEUlRKT_E_EEZNSB_8TestBodyEvEUlRKS7_SI_E_ZNSB_8TestBodyEvEUlSI_E_EES5_INSt8__detail13__iter_traits10value_typeESaISN_EESE_T0_T1_
FN:93,107,_ZN7fishnet8geometryL6filterISt6vectorINS0_13SimplePolygonIdEESaIS4_EEZN35SweepLineTest_polygonFiltering_Test8TestBodyEvEUlRKS4_S9_E_ZNS7_8TestBodyEvEUlS9_E_EES2_INSt8__detail13__iter_traits10value_typeESaISE_EERKT_T0_T1_
FN:93,107,_ZN7fishnet8geometryL6filterISt6vectorINS0_13SimplePolygonIdEESaIS4_EEZNS0_12MultiPolygonIS4_EC4IRS6_EEOT_bEUlRKS4_SE_E_NS_4util13TruePredicateEEES2_INSt8__detail13__iter_traits10value_typeESaISK_EERKSB_T0_T1_
FN:93,107,_ZN7fishnet8geometryL6filterISt6vectorINS0_7PolygonIdEESaIS4_EEZNS0_12MultiPolygonIS4_EC4IRS6_EEOT_bEUlRKS4_SE_E_NS_4util13TruePredicateEEES2_INSt8__detail13__iter_traits10value_typeESaISK_EERKSB_T0_T1_
FNDA:3,_ZZN7fishnet8geometryL6filterINSt6ranges14transform_viewINS2_8ref_viewISt6vectorINS0_13SimplePolygonIdEESaIS7_EEEEZN35SweepLineTest_polygonFiltering_Test8TestBodyEvEUlRKT_E_EEZNSB_8TestBodyEvEUlRKS7_SI_E_ZNSB_8TestBodyEvEUlSI_E_EES5_INSt8__detail13__iter_traits10value_typeESaISN_EESE_T0_T1_ENKUlSE_E_clIS7_EEDaSE_
FNDA:3,_ZZN7fishnet8geometryL6filterISt6vectorINS0_13SimplePolygonIdEESaIS4_EEZN35SweepLineTest_polygonFiltering_Test8TestBodyEvEUlRKS4_S9_E_ZNS7_8TestBodyEvEUlS9_E_EES2_INSt8__detail13__iter_traits10value_typeESaISE_EERKT_T0_T1_ENKUlSJ_E_clIS4_EEDaSJ_
FNDA:0,_ZZN7fishnet8geometryL6filterISt6vectorINS0_13SimplePolygonIdEESaIS4_EEZNS0_12MultiPolygonIS4_EC4IRS6_EEOT_bEUlRKS4_SE_E_NS_4util13TruePredicateEEES2_INSt8__detail13__iter_traits10value_typeESaISK_EERKSB_T0_T1_ENKUlSO_E_clIS4_EEDaSO_
FNDA:0,_ZZN7fishnet8geometryL6filterISt6vectorINS0_7PolygonIdEESaIS4_EEZNS0_12MultiPolygonIS4_EC4IRS6_EEOT_bEUlRKS4_SE_E_NS_4util13TruePredicateEEES2_INSt8__detail13__iter_traits10value_typeESaISK_EERKSB_T0_T1_ENKUlSO_E_clIS4_EEDaSO_
FNDA:3,_ZZN7fishnet8geometryL6filterINSt6ranges14transform_viewINS2_8ref_viewISt6vectorINS0_13SimplePolygonIdEESaIS7_EEEEZN35SweepLineTest_polygonFiltering_Test8TestBodyEvEUlRKT_E_EEZNSB_8TestBodyEvEUlRKS7_SI_E_ZNSB_8TestBodyEvEUlSI_E_EES5_INSt8__detail13__iter_traits10value_typeESaISN_EESE_T0_T1_ENKUlSE_E0_clINS0_18BoundingBoxPolygonIS7_EEEEDaSE_
FNDA:3,_ZZN7fishnet8geometryL6filterISt6vectorINS0_13SimplePolygonIdEESaIS4_EEZN35SweepLineTest_polygonFiltering_Test8TestBodyEvEUlRKS4_S9_E_ZNS7_8TestBodyEvEUlS9_E_EES2_INSt8__detail13__iter_traits10value_typeESaISE_EERKT_T0_T1_ENKUlSJ_E0_clINS0_18BoundingBoxPolygonIS4_EEEEDaSJ_
FNDA:0,_ZZN7fishnet8geometryL6filterISt6vectorINS0_13SimplePolygonIdEESaIS4_EEZNS0_12MultiPolygonIS4_EC4IRS6_EEOT_bEUlRKS4_SE_E_NS_4util13TruePredicateEEES2_INSt8__detail13__iter_traits10value_typeESaISK_EERKSB_T0_T1_ENKUlSO_E0_clINS0_18BoundingBoxPolygonIS4_EEEEDaSO_
FNDA:0,_ZZN7fishnet8geometryL6filterISt6vectorINS0_7PolygonIdEESaIS4_EEZNS0_12MultiPolygonIS4_EC4IRS6_EEOT_bEUlRKS4_SE_E_NS_4util13TruePredicateEEES2_INSt8__detail13__iter_traits10value_typeESaISK_EERKSB_T0_T1_ENKUlSO_E0_clINS0_18BoundingBoxPolygonIS4_EEEEDaSO_
FNDA:6,_ZN7fishnet8geometry6__impl24PolygonFilterInsertEventINS0_13SimplePolygonIdEEZN35SweepLineTest_polygonFiltering_Test8TestBodyEvEUlRKS4_S7_E_ZNS5_8TestBodyEvEUlS7_E_EC2ERKNS0_18BoundingBoxPolygonIS4_EERS8_RS9_
FNDA:0,_ZN7fishnet8geometry6__impl24PolygonFilterInsertEventINS0_13SimplePolygonIdEEZNS0_12MultiPolygonIS4_EC4IRSt6vectorIS4_SaIS4_EEEEOT_bEUlRKS4_SF_E_NS_4util13TruePredicateEEC2ERKNS0_18BoundingBoxPolygonIS4_EERSG_RSI_
FNDA:0,_ZN7fishnet8geometry6__impl24PolygonFilterInsertEventINS0_7PolygonIdEEZNS0_12MultiPolygonIS4_EC4IRSt6vectorIS4_SaIS4_EEEEOT_bEUlRKS4_SF_E_NS_4util13TruePredicateEEC2ERKNS0_18BoundingBoxPolygonIS4_EERSG_RSI_
FNDA:6,_ZNK7fishnet8geometry6__impl24PolygonFilterInsertEventINS0_13SimplePolygonIdEEZN35SweepLineTest_polygonFiltering_Test8TestBodyEvEUlRKS4_S7_E_ZNS5_8TestBodyEvEUlS7_E_E7processERNS0_9SweepLineINS0_18BoundingBoxPolygonIS4_EESt6vectorIS4_SaIS4_EENS0_22HorizontalAABBOrderingIS4_EELb0ESt7greaterIdEEERSG_
FNDA:0,_ZNK7fishnet8geometry6__impl24PolygonFilterInsertEventINS0_13SimplePolygonIdEEZNS0_12MultiPolygonIS4_EC4IRSt6vectorIS4_SaIS4_EEEEOT_bEUlRKS4_SF_E_NS_4util13TruePredicateEE7processERNS0_9SweepLineINS0_18BoundingBoxPolygonIS4_EESA_NS0_22HorizontalAABBOrderingIS4_EELb0ESt7greaterIdEEESB_
FNDA:0,_ZNK7fishnet8geometry6__impl24PolygonFilterInsertEventINS0_7PolygonIdEEZNS0_12MultiPolygonIS4_EC4IRSt6vectorIS4_SaIS4_EEEEOT_bEUlRKS4_SF_E_NS_4util13TruePredicateEE7processERNS0_9SweepLineINS0_18BoundingBoxPolygonIS4_EESA_NS0_22HorizontalAABBOrderingIS4_EELb0ESt7greaterIdEEESB_
FNDA:44,_ZNK7fishnet8geometry6__impl24PolygonFilterInsertEventINS0_13SimplePolygonIdEEZN35SweepLineTest_polygonFiltering_Test8TestBodyEvEUlRKS4_S7_E_ZNS5_8TestBodyEvEUlS7_E_E10eventPointEv
FNDA:0,_ZNK7fishnet8geometry6__impl24PolygonFilterInsertEventINS0_13SimplePolygonIdEEZNS0_12MultiPolygonIS4_EC4IRSt6vectorIS4_SaIS4_EEEEOT_bEUlRKS4_SF_E_NS_4util13TruePredicateEE10eventPointEv
FNDA:0,_ZNK7fishnet8geometry6__impl24PolygonFilterInsertEventINS0_7PolygonIdEEZNS0_12MultiPolygonIS4_EC4IRSt6vectorIS4_SaIS4_EEEEOT_bEUlRKS4_SF_E_NS_4util13TruePredicateEE10eventPointEv
FNDA:6,_ZN7fishnet8geometry6__impl24PolygonFilterRemoveEventINS0_13SimplePolygonIdEEEC2ERKNS0_18BoundingBoxPolygonIS4_EE
FNDA:0,_ZN7fishnet8geometry6__impl24PolygonFilterRemoveEventINS0_7PolygonIdEEEC2ERKNS0_18BoundingBoxPolygonIS4_EE
FNDA:60,_ZNK7fishnet8geometry6__impl24PolygonFilterRemoveEventINS0_13SimplePolygonIdEEE10eventPointEv
FNDA:0,_ZNK7fishnet8geometry6__impl24PolygonFilterRemoveEventINS0_7PolygonIdEEE10eventPointEv
FNDA:1,_ZN7fishnet8geometryL6filterINSt6ranges14transform_viewINS2_8ref_viewISt6vectorINS0_13SimplePolygonIdEESaIS7_EEEEZN35SweepLineTest_polygonFiltering_Test8TestBodyEvEUlRKT_E_EEZNSB_8TestBodyEvEUlRKS7_SI_E_ZNSB_8TestBodyEvEUlSI_E_EES5_INSt8__detail13__iter_traits10value_typeESaISN_EESE_T0_T1_
FNDA:1,_ZN7fishnet8geometryL6filterISt6vectorINS0_13SimplePolygonIdEESaIS4_EEZN35SweepLineTest_polygonFiltering_Test8TestBodyEvEUlRKS4_S9_E_ZNS7_8TestBodyEvEUlS9_E_EES2_INSt8__detail13__iter_traits10value_typeESaISE_EERKT_T0_T1_
FNDA:0,_ZN7fishnet8geometryL6filterISt6vectorINS0_13SimplePolygonIdEESaIS4_EEZNS0_12MultiPolygonIS4_EC4IRS6_EEOT_bEUlRKS4_SE_E_NS_4util13TruePredicateEEES2_INSt8__detail13__iter_traits10value_typeESaISK_EERKSB_T0_T1_
FNDA:0,_ZN7fishnet8geometryL6filterISt6vectorINS0_7PolygonIdEESaIS4_EEZNS0_12MultiPolygonIS4_EC4IRS6_EEOT_bEUlRKS4_SE_E_NS_4util13TruePredicateEEES2_INSt8__detail13__iter_traits10value_typeESaISK_EERKSB_T0_T1_
FNF:25
FNH:11
DA:31,6
DA:39,6
DA:40,6
DA:41,6
DA:42,2
DA:43,4
DA:44,4
DA:45,4
DA:46,2
DA:47,2
DA:48,2
DA:50,2
DA:51,0
DA:52,0
DA:54,2
DA:62,44
DA:63,44
DA:69,6
DA:75,60
DA:76,60
DA:93,2
DA:96,2
DA:97,2
DA:98,2
DA:99,2
DA:101,8
DA:102,14
DA:103,6
DA:104,6
DA:106,2
DA:107,2
LF:31
LH:29
end_of_record
TN:
SF:/home/lolo/Documents/fishnet/lib/geometry/algorithm/include/fishnet/PolygonNeighbours.hpp
FN:100,100,_ZZN7fishnet8geometryL32findNeighbouringPolygonsTemplateISt6vectorINS0_13SimplePolygonIdEESaIS4_EES4_ZNS0_L24findNeighbouringPolygonsIS6_S4_17DistancePredicate10BoxWrapperEES2_ISt4pairIT0_SB_ESaISC_EERKT_OT1_RKT2_mEUlRKNS0_18BoundingBoxPolygonIS4_EESQ_E_S9_EESE_SH_RKSI_SM_mENKUlSH_E0_clISO_EEDaSH_
FN:120,124,_ZN7fishnet8geometryL24findNeighbouringPolygonsISt6vectorINS0_13SimplePolygonIdEESaIS4_EES4_17DistancePredicate10BoxWrapperEES2_ISt4pairIT0_SA_ESaISB_EERKT_OT1_RKT2_m
FN:121,121,_ZZN7fishnet8geometryL24findNeighbouringPolygonsISt6vectorINS0_13SimplePolygonIdEESaIS4_EES4_17DistancePredicate10BoxWrapperEES2_ISt4pairIT0_SA_ESaISB_EERKT_OT1_RKT2_mENKUlRKNS0_18BoundingBoxPolygonIS4_EESP_E_clESP_SP_
FN:24,24,_ZN7fishnet8geometry6__impl28PolygonNeighboursInsertEventINS0_13SimplePolygonIdEEEC2ERKNS0_18BoundingBoxPolygonIS4_EE
FN:25,27,_ZNK7fishnet8geometry6__impl28PolygonNeighboursInsertEventINS0_13SimplePolygonIdEEE10eventPointEv
FN:39,39,_ZN7fishnet8geometry6__impl28PolygonNeighboursRemoveEventINS0_13SimplePolygonIdEEEC2IZNS0_L24findNeighbouringPolygonsISt6vectorIS4_SaIS4_EES4_17DistancePredicate10BoxWrapperEES8_ISt4pairIT0_SE_ESaISF_EERKT_OT1_RKT2_mEUlRKNS0_18BoundingBoxPolygonIS4_EEST_E_EEST_SK_m
FN:41,43,_ZNK7fishnet8geometry6__impl28PolygonNeighboursRemoveEventINS0_13SimplePolygonIdEEE10eventPointEv
FN:45,77,_ZNK7fishnet8geometry6__impl28PolygonNeighboursRemoveEventINS0_13SimplePolygonIdEEE7processERNS0_9SweepLineINS0_18BoundingBoxPolygonIS4_EESt6vectorISt4pairIS4_S4_ESaISB_EENS0_22HorizontalAABBOrderingIS4_EELb1ESt7greaterIdEEERSD_
FN:48,48,_ZZNK7fishnet8geometry6__impl28PolygonNeighboursRemoveEventINS0_13SimplePolygonIdEEE7processERNS0_9SweepLineINS0_18BoundingBoxPolygonIS4_EESt6vectorISt4pairIS4_S4_ESaISB_EENS0_22HorizontalAABBOrderingIS4_EELb1ESt7greaterIdEEERSD_ENKUlRKT_E_clIS4_EEDaSN_
FN:91,105,_ZN7fishnet8geometryL32findNeighbouringPolygonsTemplateISt6vectorINS0_13SimplePolygonIdEESaIS4_EES4_ZNS0_L24findNeighbouringPolygonsIS6_S4_17DistancePredicate10BoxWrapperEES2_ISt4pairIT0_SB_ESaISC_EERKT_OT1_RKT2_mEUlRKNS0_18BoundingBoxPolygonIS4_EESQ_E_S9_EESE_SH_RKSI_SM_m
FN:97,97,_ZZN7fishnet8geometryL32findNeighbouringPolygonsTemplateISt6vectorINS0_13SimplePolygonIdEESaIS4_EES4_ZNS0_L24findNeighbouringPolygonsIS6_S4_17DistancePredicate10BoxWrapperEES2_ISt4pairIT0_SB_ESaISC_EERKT_OT1_RKT2_mEUlRKNS0_18BoundingBoxPolygonIS4_EESQ_E_S9_EESE_SH_RKSI_SM_mENKUlSH_E_clIS4_EEDaSH_
FNDA:15,_ZZN7fishnet8geometryL32findNeighbouringPolygonsTemplateISt6vectorINS0_13SimplePolygonIdEESaIS4_EES4_ZNS0_L24findNeighbouringPolygonsIS6_S4_17DistancePredicate10BoxWrapperEES2_ISt4pairIT0_SB_ESaISC_EERKT_OT1_RKT2_mEUlRKNS0_18BoundingBoxPolygonIS4_EESQ_E_S9_EESE_SH_RKSI_SM_mENKUlSH_E0_clISO_EEDaSH_
FNDA:2,_ZN7fishnet8geometryL24findNeighbouringPolygonsISt6vectorINS0_13SimplePolygonIdEESaIS4_EES4_17DistancePredicate10BoxWrapperEES2_ISt4pairIT0_SA_ESaISB_EERKT_OT1_RKT2_m
FNDA:40,_ZZN7fishnet8geometryL24findNeighbouringPolygonsISt6vectorINS0_13SimplePolygonIdEESaIS4_EES4_17DistancePredicate10BoxWrapperEES2_ISt4pairIT0_SA_ESaISB_EERKT_OT1_RKT2_mENKUlRKNS0_18BoundingBoxPolygonIS4_EESP_E_clESP_SP_
FNDA:15,_ZN7fishnet8geometry6__impl28PolygonNeighboursInsertEventINS0_13SimplePolygonIdEEEC2ERKNS0_18BoundingBoxPolygonIS4_EE
FNDA:198,_ZNK7fishnet8geometry6__impl28PolygonNeighboursInsertEventINS0_13SimplePolygonIdEEE10eventPointEv
FNDA:15,_ZN7fishnet8geometry6__impl28PolygonNeighboursRemoveEventINS0_13SimplePolygonIdEEEC2IZNS0_L24findNeighbouringPolygonsISt6vectorIS4_SaIS4_EES4_17DistancePredicate10BoxWrapperEES8_ISt4pairIT0_SE_ESaISF_EERKT_OT1_RKT2_mEUlRKNS0_18BoundingBoxPolygonIS4_EEST_E_EEST_SK_m
FNDA:282,_ZNK7fishnet8geometry6__impl28PolygonNeighboursRemoveEventINS0_13SimplePolygonIdEEE10eventPointEv
FNDA:15,_ZNK7fishnet8geometry6__impl28PolygonNeighboursRemoveEventINS0_13SimplePolygonIdEEE7processERNS0_9SweepLineINS0_18BoundingBoxPolygonIS4_EESt6vectorISt4pairIS4_S4_ESaISB_EENS0_22HorizontalAABBOrderingIS4_EELb1ESt7greaterIdEEERSD_
FNDA:15,_ZZNK7fishnet8geometry6__impl28PolygonNeighboursRemoveEventINS0_13SimplePolygonIdEEE7processERNS0_9SweepLineINS0_18BoundingBoxPolygonIS4_EESt6vectorISt4pairIS4_S4_ESaISB_EENS0_22HorizontalAABBOrderingIS4_EELb1ESt7greaterIdEEERSD_ENKUlRKT_E_clIS4_EEDaSN_
FNDA:2,_ZN7fishnet8geometryL32findNeighbouringPolygonsTemplateISt6vectorINS0_13SimplePolygonIdEESaIS4_EES4_ZNS0_L24findNeighbouringPolygonsIS6_S4_17DistancePredicate10BoxWrapperEES2_ISt4pairIT0_SB_ESaISC_EERKT_OT1_RKT2_mEUlRKNS0_18BoundingBoxPolygonIS4_EESQ_E_S9_EESE_SH_RKSI_SM_m
FNDA:15,_ZZN7fishnet8geometryL32findNeighbouringPolygonsTemplateISt6vectorINS0_13SimplePolygonIdEESaIS4_EES4_ZNS0_L24findNeighbouringPolygonsIS6_S4_17DistancePredicate10BoxWrapperEES2_ISt4pairIT0_SB_ESaISC_EERKT_OT1_RKT2_mEUlRKNS0_18BoundingBoxPolygonIS4_EESQ_E_S9_EESE_SH_RKSI_SM_mENKUlSH_E_clIS4_EEDaSH_
FNF:11
FNH:11
DA:24,15
DA:25,198
DA:26,198
DA:39,15
DA:41,282
DA:42,282
DA:45,15
DA:46,15
DA:47,15
DA:48,30
DA:49,15
DA:55,15
DA:56,15
DA:57,38
DA:58,38
DA:59,38
DA:60,4
DA:63,38
DA:64,38
DA:65,15
DA:67,32
DA:68,17
DA:69,17
DA:70,10
DA:73,26
DA:74,11
DA:76,15
DA:77,15
DA:91,2
DA:93,2
DA:94,2
DA:95,2
DA:96,2
DA:97,2
DA:98,15
DA:100,2
DA:101,15
DA:102,15
DA:104,4
DA:105,2
DA:120,2
DA:121,2
DA:122,40
DA:123,4
LF:44
LH:44
end_of_record
TN:
SF:/home/lolo/Documents/fishnet/lib/geometry/algorithm/include/fishnet/PolygonalRingVerification.hpp
FN:48,63,_ZN7fishnet8geometryL19verifyPolygonalRingIdSt6vectorINS0_7SegmentIdEESaIS4_EEEEvRKT0_
FN:48,63,_ZN7fishnet8geometryL19verifyPolygonalRingIiSt6vectorINS0_7SegmentIiEESaIS4_EEEEvRKT0_
FNDA:5430,_ZN7fishnet8geometryL19verifyPolygonalRingIdSt6vectorINS0_7SegmentIdEESaIS4_EEEEvRKT0_
FNDA:47,_ZN7fishnet8geometryL19verifyPolygonalRingIiSt6vectorINS0_7SegmentIiEESaIS4_EEEEvRKT0_
FNF:2
FNH:2
DA:48,5477
DA:49,5477
DA:50,9
DA:51,40709
DA:52,35239
DA:53,35239
DA:54,342778
DA:55,307541
DA:56,307541
DA:57,307541
DA:58,2
DA:60,35237
DA:61,2
DA:63,5470
LF:14
LH:14
end_of_record
TN:
SF:/home/lolo/Documents/fishnet/lib/geometry/algorithm/include/fishnet/SweepLine.hpp
FN:112,114,_ZNK7fishnet8geometry9SweepLineINS0_18BoundingBoxPolygonINS0_13SimplePolygonIdEEEESt6vectorIS4_SaIS4_EENS0_22HorizontalAABBOrderingIS4_EELb0ESt7greaterIdEE11SLSOrderingclEPKS5_SG_
FN:112,114,_ZNK7fishnet8geometry9SweepLineINS0_18BoundingBoxPolygonINS0_13SimplePolygonIdEEEESt6vectorISt4pairIS4_S4_ESaIS8_EENS0_22HorizontalAABBOrderingIS4_EELb1ESt7greaterIdEE11SLSOrderingclEPKS5_SI_
FN:112,114,_ZNK7fishnet8geometry9SweepLineINS0_18BoundingBoxPolygonINS0_7PolygonIdEEEESt6vectorIS4_SaIS4_EENS0_22HorizontalAABBOrderingIS4_EELb0ESt7greaterIdEE11SLSOrderingclEPKS5_SG_
FN:112,114,_ZNK7fishnet8geometry9SweepLineINS0_5Vec2DIdEESt6vectorINSt7__cxx1112basic_stringIcSt11char_traitsIcESaIcEEESaISA_EE9xOrderingLb0ESt7greaterIdEE11SLSOrderingclEPKS3_SJ_
FN:112,114,_ZNK7fishnet8geometry9SweepLineINS0_6__impl12PolygonPointILb0EEENS2_19ClosestPointsResultESt4lessIS4_ELb0ES6_IdEE11SLSOrderingclEPKS4_SC_
FN:112,114,_ZNK7fishnet8geometry9SweepLineINS0_6__impl12PolygonPointILb1EEENS2_19ClosestPointsResultESt4lessIS4_ELb0ES6_IdEE11SLSOrderingclEPKS4_SC_
FN:125,127,_ZN7fishnet8geometry9SweepLineINS0_18BoundingBoxPolygonINS0_13SimplePolygonIdEEEESt6vectorIS4_SaIS4_EENS0_22HorizontalAABBOrderingIS4_EELb0ESt7greaterIdEE8addEventESt10unique_ptrINSD_6IEventESt14default_deleteISF_EE
FN:125,127,_ZN7fishnet8geometry9SweepLineINS0_18BoundingBoxPolygonINS0_13SimplePolygonIdEEEESt6vectorISt4pairIS4_S4_ESaIS8_EENS0_22HorizontalAABBOrderingIS4_EELb1ESt7greaterIdEE8addEventESt10unique_ptrINSF_6IEventESt14default_deleteISH_EE
FN:125,127,_ZN7fishnet8geometry9SweepLineINS0_18BoundingBoxPolygonINS0_7PolygonIdEEEESt6vectorIS4_SaIS4_EENS0_22HorizontalAABBOrderingIS4_EELb0ESt7greaterIdEE8addEventESt10unique_ptrINSD_6IEventESt14default_deleteISF_EE
FN:125,127,_ZN7fishnet8geometry9SweepLineINS0_5Vec2DIdEESt6vectorINSt7__cxx1112basic_stringIcSt11char_traitsIcESaIcEEESaISA_EE9xOrderingLb0ESt7greaterIdEE8addEventESt10unique_ptrINSG_6IEventESt14default_deleteISI_EE
FN:125,127,_ZN7fishnet8geometry9SweepLineINS0_6__impl12PolygonPointILb0EEENS2_19ClosestPointsResultESt4lessIS4_ELb0ES6_IdEE8addEventESt10unique_ptrINS9_6IEventESt14default_deleteISB_EE
FN:125,127,_ZN7fishnet8geometry9SweepLineINS0_6__impl12PolygonPointILb1EEENS2_19ClosestPointsResultESt4lessIS4_ELb0ES6_IdEE8addEventESt10unique_ptrINS9_6IEventESt14default_deleteISB_EE
FN:137,139,_ZN7fishnet8geometry9SweepLineINS0_18BoundingBoxPolygonINS0_13SimplePolygonIdEEEESt6vectorIS4_SaIS4_EENS0_22HorizontalAABBOrderingIS4_EELb0ESt7greaterIdEE6addSLSEPKS5_
FN:137,139,_ZN7fishnet8geometry9SweepLineINS0_18BoundingBoxPolygonINS0_13SimplePolygonIdEEEESt6vectorISt4pairIS4_S4_ESaIS8_EENS0_22HorizontalAABBOrderingIS4_EELb1ESt7greaterIdEE6addSLSEPKS5_
FN:137,139,_ZN7fishnet8geometry9SweepLineINS0_18BoundingBoxPolygonINS0_7PolygonIdEEEESt6vectorIS4_SaIS4_EENS0_22HorizontalAABBOrderingIS4_EELb0ESt7greaterIdEE6addSLSEPKS5_
FN:137,139,_ZN7fishnet8geometry9SweepLineINS0_5Vec2DIdEESt6vectorINSt7__cxx1112basic_stringIcSt11char_traitsIcESaIcEEESaISA_EE9xOrderingLb0ESt7greaterIdEE6addSLSEPKS3_
FN:137,139,_ZN7fishnet8geometry9SweepLineINS0_6__impl12PolygonPointILb0EEENS2_19ClosestPointsResultESt4lessIS4_ELb0ES6_IdEE6addSLSEPKS4_
FN:137,139,_ZN7fishnet8geometry9SweepLineINS0_6__impl12PolygonPointILb1EEENS2_19ClosestPointsResultESt4lessIS4_ELb0ES6_IdEE6addSLSEPKS4_
FN:141,143,_ZN7fishnet8geometry9SweepLineINS0_18BoundingBoxPolygonINS0_13SimplePolygonIdEEEESt6vectorIS4_SaIS4_EENS0_22HorizontalAABBOrderingIS4_EELb0ESt7greaterIdEE9removeSLSEPKS5_
FN:141,143,_ZN7fishnet8geometry9SweepLineINS0_18BoundingBoxPolygonINS0_13SimplePolygonIdEEEESt6vectorISt4pairIS4_S4_ESaIS8_EENS0_22HorizontalAABBOrderingIS4_EELb1ESt7greaterIdEE9removeSLSEPKS5_
FN:141,143,_ZN7fishnet8geometry9SweepLineINS0_18BoundingBoxPolygonINS0_7PolygonIdEEEESt6vectorIS4_SaIS4_EENS0_22HorizontalAABBOrderingIS4_EELb0ESt7greaterIdEE9removeSLSEPKS5_
FN:141,143,_ZN7fishnet8geometry9SweepLineINS0_5Vec2DIdEESt6vectorINSt7__cxx1112basic_stringIcSt11char_traitsIcESaIcEEESaISA_EE9xOrderingLb0ESt7greaterIdEE9removeSLSEPKS3_
FN:153,155,_ZN7fishnet8geometry9SweepLineINS0_18BoundingBoxPolygonINS0_13SimplePolygonIdEEEESt6vectorIS4_SaIS4_EENS0_22HorizontalAABBOrderingIS4_EELb0ESt7greaterIdEE6getSLSEv
FN:153,155,_ZN7fishnet8geometry9SweepLineINS0_18BoundingBoxPolygonINS0_13SimplePolygonIdEEEESt6vectorISt4pairIS4_S4_ESaIS8_EENS0_22HorizontalAABBOrderingIS4_EELb1ESt7greaterIdEE6getSLSEv
FN:153,155,_ZN7fishnet8geometry9SweepLineINS0_18BoundingBoxPolygonINS0_7PolygonIdEEEESt6vectorIS4_SaIS4_EENS0_22HorizontalAABBOrderingIS4_EELb0ESt7greaterIdEE6getSLSEv
FN:153,155,_ZN7fishnet8geometry9SweepLineINS0_6__impl12PolygonPointILb0EEENS2_19ClosestPointsResultESt4lessIS4_ELb0ES6_IdEE6getSLSEv
FN:153,155,_ZN7fishnet8geometry9SweepLineINS0_6__impl12PolygonPointILb1EEENS2_19ClosestPointsResultESt4lessIS4_ELb0ES6_IdEE6getSLSEv
FN:157,159,_ZNK7fishnet8geometry9SweepLineINS0_6__impl12PolygonPointILb0EEENS2_19ClosestPointsResultESt4lessIS4_ELb0ES6_IdEE10lowerBoundERKS4_
FN:157,159,_ZNK7fishnet8geometry9SweepLineINS0_6__impl12PolygonPointILb1EEENS2_19ClosestPointsResultESt4lessIS4_ELb0ES6_IdEE10lowerBoundERKS4_
FN:161,163,_ZNK7fishnet8geometry9SweepLineINS0_6__impl12PolygonPointILb0EEENS2_19ClosestPointsResultESt4lessIS4_ELb0ES6_IdEE10upperBoundERKS4_
FN:161,163,_ZNK7fishnet8geometry9SweepLineINS0_6__impl12PolygonPointILb1EEENS2_19ClosestPointsResultESt4lessIS4_ELb0ES6_IdEE10upperBoundERKS4_
FN:169,171,_ZN7fishnet8geometry9SweepLineINS0_6__impl12PolygonPointILb0EEENS2_19ClosestPointsResultESt4lessIS4_ELb0ES6_IdEE13getEventQueueEv
FN:169,171,_ZN7fishnet8geometry9SweepLineINS0_6__impl12PolygonPointILb1EEENS2_19ClosestPointsResultESt4lessIS4_ELb0ES6_IdEE13getEventQueueEv
FN:179,185,_ZN7fishnet8geometry9SweepLineINS0_5Vec2DIdEESt6vectorINSt7__cxx1112basic_stringIcSt11char_traitsIcESaIcEEESaISA_EE9xOrderingLb0ESt7greaterIdEE9addEventsIS4_IS3_SaIS3_EEZN25SweepLineTest_simple_Test8TestBodyEvEUlRKS3_E_EEvRKT_T0_
FN:187,194,_ZN7fishnet8geometry9SweepLineINS0_18BoundingBoxPolygonINS0_13SimplePolygonIdEEEESt6vectorIS4_SaIS4_EENS0_22HorizontalAABBOrderingIS4_EELb0ESt7greaterIdEE5sweepERS8_
FN:187,194,_ZN7fishnet8geometry9SweepLineINS0_18BoundingBoxPolygonINS0_13SimplePolygonIdEEEESt6vectorISt4pairIS4_S4_ESaIS8_EENS0_22HorizontalAABBOrderingIS4_EELb1ESt7greaterIdEE5sweepERSA_
FN:187,194,_ZN7fishnet8geometry9SweepLineINS0_18BoundingBoxPolygonINS0_7PolygonIdEEEESt6vectorIS4_SaIS4_EENS0_22HorizontalAABBOrderingIS4_EELb0ESt7greaterIdEE5sweepERS8_
FN:187,194,_ZN7fishnet8geometry9SweepLineINS0_5Vec2DIdEESt6vectorINSt7__cxx1112basic_stringIcSt11char_traitsIcESaIcEEESaISA_EE9xOrderingLb0ESt7greaterIdEE5sweepERSC_
FN:187,194,_ZN7fishnet8geometry9SweepLineINS0_6__impl12PolygonPointILb0EEENS2_19ClosestPointsResultESt4lessIS4_ELb0ES6_IdEE5sweepERS5_
FN:187,194,_ZN7fishnet8geometry9SweepLineINS0_6__impl12PolygonPointILb1EEENS2_19ClosestPointsResultESt4lessIS4_ELb0ES6_IdEE5sweepERS5_
FN:41,41,_ZN7fishnet8geometry9SweepLineINS0_18BoundingBoxPolygonINS0_13SimplePolygonIdEEEESt6vectorIS4_SaIS4_EENS0_22HorizontalAABBOrderingIS4_EELb0ESt7greaterIdEE6IEventC2ERKS5_
FN:41,41,_ZN7fishnet8geometry9SweepLineINS0_18BoundingBoxPolygonINS0_13SimplePolygonIdEEEESt6vectorISt4pairIS4_S4_ESaIS8_EENS0_22HorizontalAABBOrderingIS4_EELb1ESt7greaterIdEE6IEventC2ERKS5_
FN:41,41,_ZN7fishnet8geometry9SweepLineINS0_18BoundingBoxPolygonINS0_7PolygonIdEEEESt6vectorIS4_SaIS4_EENS0_22HorizontalAABBOrderingIS4_EELb0ESt7greaterIdEE6IEventC2ERKS5_
FN:41,41,_ZN7fishnet8geometry9SweepLineINS0_5Vec2DIdEESt6vectorINSt7__cxx1112basic_stringIcSt11char_traitsIcESaIcEEESaISA_EE9xOrderingLb0ESt7greaterIdEE6IEventC2ERKS3_
FN:41,41,_ZN7fishnet8geometry9SweepLineINS0_6__impl12PolygonPointILb0EEENS2_19ClosestPointsResultESt4lessIS4_ELb0ES6_IdEE6IEventC2ERKS4_
FN:41,41,_ZN7fishnet8geometry9SweepLineINS0_6__impl12PolygonPointILb1EEENS2_19ClosestPointsResultESt4lessIS4_ELb0ES6_IdEE6IEventC2ERKS4_
FN:49,51,_ZNK7fishnet8geometry9SweepLineINS0_5Vec2DIdEESt6vectorINSt7__cxx1112basic_stringIcSt11char_traitsIcESaIcEEESaISA_EE9xOrderingLb0ESt7greaterIdEE6IEvent9getObjectEv
FN:53,53,_ZN7fishnet8geometry9SweepLineINS0_18BoundingBoxPolygonINS0_13SimplePolygonIdEEEESt6vectorIS4_SaIS4_EENS0_22HorizontalAABBOrderingIS4_EELb0ESt7greaterIdEE6IEventD0Ev
FN:53,53,_ZN7fishnet8geometry9SweepLineINS0_18BoundingBoxPolygonINS0_13SimplePolygonIdEEEESt6vectorIS4_SaIS4_EENS0_22HorizontalAABBOrderingIS4_EELb0ESt7greaterIdEE6IEventD2Ev
FN:53,53,_ZN7fishnet8geometry9SweepLineINS0_18BoundingBoxPolygonINS0_13SimplePolygonIdEEEESt6vectorISt4pairIS4_S4_ESaIS8_EENS0_22HorizontalAABBOrderingIS4_EELb1ESt7greaterIdEE6IEventD0Ev
FN:53,53,_ZN7fishnet8geometry9SweepLineINS0_18BoundingBoxPolygonINS0_13SimplePolygonIdEEEESt6vectorISt4pairIS4_S4_ESaIS8_EENS0_22HorizontalAABBOrderingIS4_EELb1ESt7greaterIdEE6IEventD2Ev
FN:53,53,_ZN7fishnet8geometry9SweepLineINS0_18BoundingBoxPolygonINS0_7PolygonIdEEEESt6vectorIS4_SaIS4_EENS0_22HorizontalAABBOrderingIS4_EELb0ESt7greaterIdEE6IEventD0Ev
FN:53,53,_ZN7fishnet8geometry9SweepLineINS0_18BoundingBoxPolygonINS0_7PolygonIdEEEESt6vectorIS4_SaIS4_EENS0_22HorizontalAABBOrderingIS4_EELb0ESt7greaterIdEE6IEventD2Ev
FN:53,53,_ZN7fishnet8geometry9SweepLineINS0_5Vec2DIdEESt6vectorINSt7__cxx1112basic_stringIcSt11char_traitsIcESaIcEEESaISA_EE9xOrderingLb0ESt7greaterIdEE6IEventD0Ev
FN:53,53,_ZN7fishnet8geometry9SweepLineINS0_5Vec2DIdEESt6vectorINSt7__cxx1112basic_stringIcSt11char_traitsIcESaIcEEESaISA_EE9xOrderingLb0ESt7greaterIdEE6IEventD2Ev
FN:53,53,_ZN7fishnet8geometry9SweepLineINS0_6__impl12PolygonPointILb0EEENS2_19ClosestPointsResultESt4lessIS4_ELb0ES6_IdEE6IEventD0Ev
FN:53,53,_ZN7fishnet8geometry9SweepLineINS0_6__impl12PolygonPointILb0EEENS2_19ClosestPointsResultESt4lessIS4_ELb0ES6_IdEE6IEventD2Ev
FN:53,53,_ZN7fishnet8geometry9SweepLineINS0_6__impl12PolygonPointILb1EEENS2_19ClosestPointsResultESt4lessIS4_ELb0ES6_IdEE6IEventD0Ev
FN:53,53,_ZN7fishnet8geometry9SweepLineINS0_6__impl12PolygonPointILb1EEENS2_19ClosestPointsResultESt4lessIS4_ELb0ES6_IdEE6IEventD2Ev
FN:57,57,_ZN7fishnet8geometry9SweepLineINS0_18BoundingBoxPolygonINS0_13SimplePolygonIdEEEESt6vectorIS4_SaIS4_EENS0_22HorizontalAABBOrderingIS4_EELb0ESt7greaterIdEE11InsertEventC2ERKS5_
FN:57,57,_ZN7fishnet8geometry9SweepLineINS0_18BoundingBoxPolygonINS0_13SimplePolygonIdEEEESt6vectorISt4pairIS4_S4_ESaIS8_EENS0_22HorizontalAABBOrderingIS4_EELb1ESt7greaterIdEE11InsertEventC2ERKS5_
FN:57,57,_ZN7fishnet8geometry9SweepLineINS0_18BoundingBoxPolygonINS0_7PolygonIdEEEESt6vectorIS4_SaIS4_EENS0_22HorizontalAABBOrderingIS4_EELb0ESt7greaterIdEE11InsertEventC2ERKS5_
FN:57,57,_ZN7fishnet8geometry9SweepLineINS0_5Vec2DIdEESt6vectorINSt7__cxx1112basic_stringIcSt11char_traitsIcESaIcEEESaISA_EE9xOrderingLb0ESt7greaterIdEE11InsertEventC2ERKS3_
FN:57,57,_ZN7fishnet8geometry9SweepLineINS0_6__impl12PolygonPointILb0EEENS2_19ClosestPointsResultESt4lessIS4_ELb0ES6_IdEE11InsertEventC2ERKS4_
FN:57,57,_ZN7fishnet8geometry9SweepLineINS0_6__impl12PolygonPointILb1EEENS2_19ClosestPointsResultESt4lessIS4_ELb0ES6_IdEE11InsertEventC2ERKS4_
FN:58,60,_ZNK7fishnet8geometry9SweepLineINS0_18BoundingBoxPolygonINS0_13SimplePolygonIdEEEESt6vectorIS4_SaIS4_EENS0_22HorizontalAABBOrderingIS4_EELb0ESt7greaterIdEE11InsertEvent4typeEv
FN:58,60,_ZNK7fishnet8geometry9SweepLineINS0_18BoundingBoxPolygonINS0_13SimplePolygonIdEEEESt6vectorISt4pairIS4_S4_ESaIS8_EENS0_22HorizontalAABBOrderingIS4_EELb1ESt7greaterIdEE11InsertEvent4typeEv
FN:58,60,_ZNK7fishnet8geometry9SweepLineINS0_18BoundingBoxPolygonINS0_7PolygonIdEEEESt6vectorIS4_SaIS4_EENS0_22HorizontalAABBOrderingIS4_EELb0ESt7greaterIdEE11InsertEvent4typeEv
FN:58,60,_ZNK7fishnet8geometry9SweepLineINS0_5Vec2DIdEESt6vectorINSt7__cxx1112basic_stringIcSt11char_traitsIcESaIcEEESaISA_EE9xOrderingLb0ESt7greaterIdEE11InsertEvent4typeEv
FN:58,60,_ZNK7fishnet8geometry9SweepLineINS0_6__impl12PolygonPointILb0EEENS2_19ClosestPointsResultESt4lessIS4_ELb0ES6_IdEE11InsertEvent4typeEv
FN:58,60,_ZNK7fishnet8geometry9SweepLineINS0_6__impl12PolygonPointILb1EEENS2_19ClosestPointsResultESt4lessIS4_ELb0ES6_IdEE11InsertEvent4typeEv
FN:64,64,_ZN7fishnet8geometry9SweepLineINS0_18BoundingBoxPolygonINS0_13SimplePolygonIdEEEESt6vectorIS4_SaIS4_EENS0_22HorizontalAABBOrderingIS4_EELb0ESt7greaterIdEE11RemoveEventC2ERKS5_
FN:64,64,_ZN7fishnet8geometry9SweepLineINS0_18BoundingBoxPolygonINS0_13SimplePolygonIdEEEESt6vectorISt4pairIS4_S4_ESaIS8_EENS0_22HorizontalAABBOrderingIS4_EELb1ESt7greaterIdEE11RemoveEventC2ERKS5_
FN:64,64,_ZN7fishnet8geometry9SweepLineINS0_18BoundingBoxPolygonINS0_7PolygonIdEEEESt6vectorIS4_SaIS4_EENS0_22HorizontalAABBOrderingIS4_EELb0ESt7greaterIdEE11RemoveEventC2ERKS5_
FN:64,64,_ZN7fishnet8geometry9SweepLineINS0_5Vec2DIdEESt6vectorINSt7__cxx1112basic_stringIcSt11char_traitsIcESaIcEEESaISA_EE9xOrderingLb0ESt7greaterIdEE11RemoveEventC2ERKS3_
FN:65,67,_ZNK7fishnet8geometry9SweepLineINS0_18BoundingBoxPolygonINS0_13SimplePolygonIdEEEESt6vectorIS4_SaIS4_EENS0_22HorizontalAABBOrderingIS4_EELb0ESt7greaterIdEE11RemoveEvent4typeEv
FN:65,67,_ZNK7fishnet8geometry9SweepLineINS0_18BoundingBoxPolygonINS0_13SimplePolygonIdEEEESt6vectorISt4pairIS4_S4_ESaIS8_EENS0_22HorizontalAABBOrderingIS4_EELb1ESt7greaterIdEE11RemoveEvent4typeEv
FN:65,67,_ZNK7fishnet8geometry9SweepLineINS0_18BoundingBoxPolygonINS0_7PolygonIdEEEESt6vectorIS4_SaIS4_EENS0_22HorizontalAABBOrderingIS4_EELb0ESt7greaterIdEE11RemoveEvent4typeEv
FN:65,67,_ZNK7fishnet8geometry9SweepLineINS0_5Vec2DIdEESt6vectorINSt7__cxx1112basic_stringIcSt11char_traitsIcESaIcEEESaISA_EE9xOrderingLb0ESt7greaterIdEE11RemoveEvent4typeEv
FN:71,71,_ZN7fishnet8geometry9SweepLineINS0_18BoundingBoxPolygonINS0_13SimplePolygonIdEEEESt6vectorISt4pairIS4_S4_ESaIS8_EENS0_22HorizontalAABBOrderingIS4_EELb1ESt7greaterIdEE18DefaultInsertEventC2ERKS5_
FN:72,74,_ZNK7fishnet8geometry9SweepLineINS0_18BoundingBoxPolygonINS0_13SimplePolygonIdEEEESt6vectorISt4pairIS4_S4_ESaIS8_EENS0_22HorizontalAABBOrderingIS4_EELb1ESt7greaterIdEE18DefaultInsertEvent7processERSF_RSA_
FN:78,78,_ZN7fishnet8geometry9SweepLineINS0_18BoundingBoxPolygonINS0_13SimplePolygonIdEEEESt6vectorIS4_SaIS4_EENS0_22HorizontalAABBOrderingIS4_EELb0ESt7greaterIdEE18DefaultRemoveEventC2ERKS5_
FN:78,78,_ZN7fishnet8geometry9SweepLineINS0_18BoundingBoxPolygonINS0_7PolygonIdEEEESt6vectorIS4_SaIS4_EENS0_22HorizontalAABBOrderingIS4_EELb0ESt7greaterIdEE18DefaultRemoveEventC2ERKS5_
FN:79,81,_ZNK7fishnet8geometry9SweepLineINS0_18BoundingBoxPolygonINS0_13SimplePolygonIdEEEESt6vectorIS4_SaIS4_EENS0_22HorizontalAABBOrderingIS4_EELb0ESt7greaterIdEE18DefaultRemoveEvent7processERSD_RS8_
FN:79,81,_ZNK7fishnet8geometry9SweepLineINS0_18BoundingBoxPolygonINS0_7PolygonIdEEEESt6vectorIS4_SaIS4_EENS0_22HorizontalAABBOrderingIS4_EELb0ESt7greaterIdEE18DefaultRemoveEvent7processERSD_RS8_
FN:95,104,_ZNK7fishnet8geometry9SweepLineINS0_18BoundingBoxPolygonINS0_13SimplePolygonIdEEEESt6vectorIS4_SaIS4_EENS0_22HorizontalAABBOrderingIS4_EELb0ESt7greaterIdEE20EventQueueGreaterPtrclERKSt10unique_ptrINSD_6IEventESt14default_deleteISG_EESL_
FN:95,104,_ZNK7fishnet8geometry9SweepLineINS0_18BoundingBoxPolygonINS0_13SimplePolygonIdEEEESt6vectorISt4pairIS4_S4_ESaIS8_EENS0_22HorizontalAABBOrderingIS4_EELb1ESt7greaterIdEE20EventQueueGreaterPtrclERKSt10unique_ptrINSF_6IEventESt14default_deleteISI_EESN_
FN:95,104,_ZNK7fishnet8geometry9SweepLineINS0_18BoundingBoxPolygonINS0_7PolygonIdEEEESt6vectorIS4_SaIS4_EENS0_22HorizontalAABBOrderingIS4_EELb0ESt7greaterIdEE20EventQueueGreaterPtrclERKSt10unique_ptrINSD_6IEventESt14default_deleteISG_EESL_
FN:95,104,_ZNK7fishnet8geometry9SweepLineINS0_5Vec2DIdEESt6vectorINSt7__cxx1112basic_stringIcSt11char_traitsIcESaIcEEESaISA_EE9xOrderingLb0ESt7greaterIdEE20EventQueueGreaterPtrclERKSt10unique_ptrINSG_6IEventESt14default_deleteISJ_EESO_
FN:95,104,_ZNK7fishnet8geometry9SweepLineINS0_6__impl12PolygonPointILb0EEENS2_19ClosestPointsResultESt4lessIS4_ELb0ES6_IdEE20EventQueueGreaterPtrclERKSt10unique_ptrINS9_6IEventESt14default_deleteISC_EESH_
FN:95,104,_ZNK7fishnet8geometry9SweepLineINS0_6__impl12PolygonPointILb1EEENS2_19ClosestPointsResultESt4lessIS4_ELb0ES6_IdEE20EventQueueGreaterPtrclERKSt10unique_ptrINS9_6IEventESt14default_deleteISC_EESH_
FNDA:24,_ZNK7fishnet8geometry9SweepLineINS0_18BoundingBoxPolygonINS0_13SimplePolygonIdEEEESt6vectorIS4_SaIS4_EENS0_22HorizontalAABBOrderingIS4_EELb0ESt7greaterIdEE11SLSOrderingclEPKS5_SG_
FNDA:179,_ZNK7fishnet8geometry9SweepLineINS0_18BoundingBoxPolygonINS0_13SimplePolygonIdEEEESt6vectorISt4pairIS4_S4_ESaIS8_EENS0_22HorizontalAABBOrderingIS4_EELb1ESt7greaterIdEE11SLSOrderingclEPKS5_SI_
FNDA:0,_ZNK7fishnet8geometry9SweepLineINS0_18BoundingBoxPolygonINS0_7PolygonIdEEEESt6vectorIS4_SaIS4_EENS0_22HorizontalAABBOrderingIS4_EELb0ESt7greaterIdEE11SLSOrderingclEPKS5_SG_
FNDA:18,_ZNK7fishnet8geometry9SweepLineINS0_5Vec2DIdEESt6vectorINSt7__cxx1112basic_stringIcSt11char_traitsIcESaIcEEESaISA_EE9xOrderingLb0ESt7greaterIdEE11SLSOrderingclEPKS3_SJ_
FNDA:68130,_ZNK7fishnet8geometry9SweepLineINS0_6__impl12PolygonPointILb0EEENS2_19ClosestPointsResultESt4lessIS4_ELb0ES6_IdEE11SLSOrderingclEPKS4_SC_
FNDA:40578,_ZNK7fishnet8geometry9SweepLineINS0_6__impl12PolygonPointILb1EEENS2_19ClosestPointsResultESt4lessIS4_ELb0ES6_IdEE11SLSOrderingclEPKS4_SC_
FNDA:12,_ZN7fishnet8geometry9SweepLineINS0_18BoundingBoxPolygonINS0_13SimplePolygonIdEEEESt6vectorIS4_SaIS4_EENS0_22HorizontalAABBOrderingIS4_EELb0ESt7greaterIdEE8addEventESt10unique_ptrINSD_6IEventESt14default_deleteISF_EE
FNDA:30,_ZN7fishnet8geometry9SweepLineINS0_18BoundingBoxPolygonINS0_13SimplePolygonIdEEEESt6vectorISt4pairIS4_S4_ESaIS8_EENS0_22HorizontalAABBOrderingIS4_EELb1ESt7greaterIdEE8addEventESt10unique_ptrINSF_6IEventESt14default_deleteISH_EE
FNDA:0,_ZN7fishnet8geometry9SweepLineINS0_18BoundingBoxPolygonINS0_7PolygonIdEEEESt6vectorIS4_SaIS4_EENS0_22HorizontalAABBOrderingIS4_EELb0ESt7greaterIdEE8addEventESt10unique_ptrINSD_6IEventESt14default_deleteISF_EE
FNDA:10,_ZN7fishnet8geometry9SweepLineINS0_5Vec2DIdEESt6vectorINSt7__cxx1112basic_stringIcSt11char_traitsIcESaIcEEESaISA_EE9xOrderingLb0ESt7greaterIdEE8addEventESt10unique_ptrINSG_6IEventESt14default_deleteISI_EE
FNDA:2560,_ZN7fishnet8geometry9SweepLineINS0_6__impl12PolygonPointILb0EEENS2_19ClosestPointsResultESt4lessIS4_ELb0ES6_IdEE8addEventESt10unique_ptrINS9_6IEventESt14default_deleteISB_EE
FNDA:1280,_ZN7fishnet8geometry9SweepLineINS0_6__impl12PolygonPointILb1EEENS2_19ClosestPointsResultESt4lessIS4_ELb0ES6_IdEE8addEventESt10unique_ptrINS9_6IEventESt14default_deleteISB_EE
FNDA:4,_ZN7fishnet8geometry9SweepLineINS0_18BoundingBoxPolygonINS0_13SimplePolygonIdEEEESt6vectorIS4_SaIS4_EENS0_22HorizontalAABBOrderingIS4_EELb0ESt7greaterIdEE6addSLSEPKS5_
FNDA:15,_ZN7fishnet8geometry9SweepLineINS0_18BoundingBoxPolygonINS0_13SimplePolygonIdEEEESt6vectorISt4pairIS4_S4_ESaIS8_EENS0_22HorizontalAABBOrderingIS4_EELb1ESt7greaterIdEE6addSLSEPKS5_
FNDA:0,_ZN7fishnet8geometry9SweepLineINS0_18BoundingBoxPolygonINS0_7PolygonIdEEEESt6vectorIS4_SaIS4_EENS0_22HorizontalAABBOrderingIS4_EELb0ESt7greaterIdEE6addSLSEPKS5_
FNDA:5,_ZN7fishnet8geometry9SweepLineINS0_5Vec2DIdEESt6vectorINSt7__cxx1112basic_stringIcSt11char_traitsIcESaIcEEESaISA_EE9xOrderingLb0ESt7greaterIdEE6addSLSEPKS3_
FNDA:2560,_ZN7fishnet8geometry9SweepLineINS0_6__impl12PolygonPointILb0EEENS2_19ClosestPointsResultESt4lessIS4_ELb0ES6_IdEE6addSLSEPKS4_
FNDA:1280,_ZN7fishnet8geometry9SweepLineINS0_6__impl12PolygonPointILb1EEENS2_19ClosestPointsResultESt4lessIS4_ELb0ES6_IdEE6addSLSEPKS4_
FNDA:6,_ZN7fishnet8geometry9SweepLineINS0_18BoundingBoxPolygonINS0_13SimplePolygonIdEEEESt6vectorIS4_SaIS4_EENS0_22HorizontalAABBOrderingIS4_EELb0ESt7greaterIdEE9removeSLSEPKS5_
FNDA:15,_ZN7fishnet8geometry9SweepLineINS0_18BoundingBoxPolygonINS0_13SimplePolygonIdEEEESt6vectorISt4pairIS4_S4_ESaIS8_EENS0_22HorizontalAABBOrderingIS4_EELb1ESt7greaterIdEE9removeSLSEPKS5_
FNDA:0,_ZN7fishnet8geometry9SweepLineINS0_18BoundingBoxPolygonINS0_7PolygonIdEEEESt6vectorIS4_SaIS4_EENS0_22HorizontalAABBOrderingIS4_EELb0ESt7greaterIdEE9removeSLSEPKS5_
FNDA:5,_ZN7fishnet8geometry9SweepLineINS0_5Vec2DIdEESt6vectorINSt7__cxx1112basic_stringIcSt11char_traitsIcESaIcEEESaISA_EE9xOrderingLb0ESt7greaterIdEE9removeSLSEPKS3_
FNDA:4,_ZN7fishnet8geometry9SweepLineINS0_18BoundingBoxPolygonINS0_13SimplePolygonIdEEEESt6vectorIS4_SaIS4_EENS0_22HorizontalAABBOrderingIS4_EELb0ESt7greaterIdEE6getSLSEv
FNDA:15,_ZN7fishnet8geometry9SweepLineINS0_18BoundingBoxPolygonINS0_13SimplePolygonIdEEEESt6vectorISt4pairIS4_S4_ESaIS8_EENS0_22HorizontalAABBOrderingIS4_EELb1ESt7greaterIdEE6getSLSEv
FNDA:0,_ZN7fishnet8geometry9SweepLineINS0_18BoundingBoxPolygonINS0_7PolygonIdEEEESt6vectorIS4_SaIS4_EENS0_22HorizontalAABBOrderingIS4_EELb0ESt7greaterIdEE6getSLSEv
FNDA:2280,_ZN7fishnet8geometry9SweepLineINS0_6__impl12PolygonPointILb0EEENS2_19ClosestPointsResultESt4lessIS4_ELb0ES6_IdEE6getSLSEv
FNDA:1048,_ZN7fishnet8geometry9SweepLineINS0_6__impl12PolygonPointILb1EEENS2_19ClosestPointsResultESt4lessIS4_ELb0ES6_IdEE6getSLSEv
FNDA:2280,_ZNK7fishnet8geometry9SweepLineINS0_6__impl12PolygonPointILb0EEENS2_19ClosestPointsResultESt4lessIS4_ELb0ES6_IdEE10lowerBoundERKS4_
FNDA:1048,_ZNK7fishnet8geometry9SweepLineINS0_6__impl12PolygonPointILb1EEENS2_19ClosestPointsResultESt4lessIS4_ELb0ES6_IdEE10lowerBoundERKS4_
FNDA:2280,_ZNK7fishnet8geometry9SweepLineINS0_6__impl12PolygonPointILb0EEENS2_19ClosestPointsResultESt4lessIS4_ELb0ES6_IdEE10upperBoundERKS4_
FNDA:1048,_ZNK7fishnet8geometry9SweepLineINS0_6__impl12PolygonPointILb1EEENS2_19ClosestPointsResultESt4lessIS4_ELb0ES6_IdEE10upperBoundERKS4_
FNDA:0,_ZN7fishnet8geometry9SweepLineINS0_6__impl12PolygonPointILb0EEENS2_19ClosestPointsResultESt4lessIS4_ELb0ES6_IdEE13getEventQueueEv
FNDA:0,_ZN7fishnet8geometry9SweepLineINS0_6__impl12PolygonPointILb1EEENS2_19ClosestPointsResultESt4lessIS4_ELb0ES6_IdEE13getEventQueueEv
FNDA:1,_ZN7fishnet8geometry9SweepLineINS0_5Vec2DIdEESt6vectorINSt7__cxx1112basic_stringIcSt11char_traitsIcESaIcEEESaISA_EE9xOrderingLb0ESt7greaterIdEE9addEventsIS4_IS3_SaIS3_EEZN25SweepLineTest_simple_Test8TestBodyEvEUlRKS3_E_EEvRKT_T0_
FNDA:2,_ZN7fishnet8geometry9SweepLineINS0_18BoundingBoxPolygonINS0_13SimplePolygonIdEEEESt6vectorIS4_SaIS4_EENS0_22HorizontalAABBOrderingIS4_EELb0ESt7greaterIdEE5sweepERS8_
FNDA:2,_ZN7fishnet8geometry9SweepLineINS0_18BoundingBoxPolygonINS0_13SimplePolygonIdEEEESt6vectorISt4pairIS4_S4_ESaIS8_EENS0_22HorizontalAABBOrderingIS4_EELb1ESt7greaterIdEE5sweepERSA_
FNDA:0,_ZN7fishnet8geometry9SweepLineINS0_18BoundingBoxPolygonINS0_7PolygonIdEEEESt6vectorIS4_SaIS4_EENS0_22HorizontalAABBOrderingIS4_EELb0ESt7greaterIdEE5sweepERS8_
FNDA:1,_ZN7fishnet8geometry9SweepLineINS0_5Vec2DIdEESt6vectorINSt7__cxx1112basic_stringIcSt11char_traitsIcESaIcEEESaISA_EE9xOrderingLb0ESt7greaterIdEE5sweepERSC_
FNDA:2,_ZN7fishnet8geometry9SweepLineINS0_6__impl12PolygonPointILb0EEENS2_19ClosestPointsResultESt4lessIS4_ELb0ES6_IdEE5sweepERS5_
FNDA:1,_ZN7fishnet8geometry9SweepLineINS0_6__impl12PolygonPointILb1EEENS2_19ClosestPointsResultESt4lessIS4_ELb0ES6_IdEE5sweepERS5_
FNDA:12,_ZN7fishnet8geometry9SweepLineINS0_18BoundingBoxPolygonINS0_13SimplePolygonIdEEEESt6vectorIS4_SaIS4_EENS0_22HorizontalAABBOrderingIS4_EELb0ESt7greaterIdEE6IEventC2ERKS5_
FNDA:30,_ZN7fishnet8geometry9SweepLineINS0_18BoundingBoxPolygonINS0_13SimplePolygonIdEEEESt6vectorISt4pairIS4_S4_ESaIS8_EENS0_22HorizontalAABBOrderingIS4_EELb1ESt7greaterIdEE6IEventC2ERKS5_
FNDA:0,_ZN7fishnet8geometry9SweepLineINS0_18BoundingBoxPolygonINS0_7PolygonIdEEEESt6vectorIS4_SaIS4_EENS0_22HorizontalAABBOrderingIS4_EELb0ESt7greaterIdEE6IEventC2ERKS5_
FNDA:10,_ZN7fishnet8geometry9SweepLineINS0_5Vec2DIdEESt6vectorINSt7__cxx1112basic_stringIcSt11char_traitsIcESaIcEEESaISA_EE9xOrderingLb0ESt7greaterIdEE6IEventC2ERKS3_
FNDA:2560,_ZN7fishnet8geometry9SweepLineINS0_6__impl12PolygonPointILb0EEENS2_19ClosestPointsResultESt4lessIS4_ELb0ES6_IdEE6IEventC2ERKS4_
FNDA:1280,_ZN7fishnet8geometry9SweepLineINS0_6__impl12PolygonPointILb1EEENS2_19ClosestPointsResultESt4lessIS4_ELb0ES6_IdEE6IEventC2ERKS4_
FNDA:96,_ZNK7fishnet8geometry9SweepLineINS0_5Vec2DIdEESt6vectorINSt7__cxx1112basic_stringIcSt11char_traitsIcESaIcEEESaISA_EE9xOrderingLb0ESt7greaterIdEE6IEvent9getObjectEv
FNDA:0,_ZN7fishnet8geometry9SweepLineINS0_18BoundingBoxPolygonINS0_13SimplePolygonIdEEEESt6vectorIS4_SaIS4_EENS0_22HorizontalAABBOrderingIS4_EELb0ESt7greaterIdEE6IEventD0Ev
FNDA:12,_ZN7fishnet8geometry9SweepLineINS0_18BoundingBoxPolygonINS0_13SimplePolygonIdEEEESt6vectorIS4_SaIS4_EENS0_22HorizontalAABBOrderingIS4_EELb0ESt7greaterIdEE6IEventD2Ev
FNDA:0,_ZN7fishnet8geometry9SweepLineINS0_18BoundingBoxPolygonINS0_13SimplePolygonIdEEEESt6vectorISt4pairIS4_S4_ESaIS8_EENS0_22HorizontalAABBOrderingIS4_EELb1ESt7greaterIdEE6IEventD0Ev
FNDA:30,_ZN7fishnet8geometry9SweepLineINS0_18BoundingBoxPolygonINS0_13SimplePolygonIdEEEESt6vectorISt4pairIS4_S4_ESaIS8_EENS0_22HorizontalAABBOrderingIS4_EELb1ESt7greaterIdEE6IEventD2Ev
FNDA:0,_ZN7fishnet8geometry9SweepLineINS0_18BoundingBoxPolygonINS0_7PolygonIdEEEESt6vectorIS4_SaIS4_EENS0_22HorizontalAABBOrderingIS4_EELb0ESt7greaterIdEE6IEventD0Ev
FNDA:0,_ZN7fishnet8geometry9SweepLineINS0_18BoundingBoxPolygonINS0_7PolygonIdEEEESt6vectorIS4_SaIS4_EENS0_22HorizontalAABBOrderingIS4_EELb0ESt7greaterIdEE6IEventD2Ev
FNDA:0,_ZN7fishnet8geometry9SweepLineINS0_5Vec2DIdEESt6vectorINSt7__cxx1112basic_stringIcSt11char_traitsIcESaIcEEESaISA_EE9xOrderingLb0ESt7greaterIdEE6IEventD0Ev
FNDA:10,_ZN7fishnet8geometry9SweepLineINS0_5Vec2DIdEESt6vectorINSt7__cxx1112basic_stringIcSt11char_traitsIcESaIcEEESaISA_EE9xOrderingLb0ESt7greaterIdEE6IEventD2Ev
FNDA:0,_ZN7fishnet8geometry9SweepLineINS0_6__impl12PolygonPointILb0EEENS2_19ClosestPointsResultESt4lessIS4_ELb0ES6_IdEE6IEventD0Ev
FNDA:2560,_ZN7fishnet8geometry9SweepLineINS0_6__impl12PolygonPointILb0EEENS2_19ClosestPointsResultESt4lessIS4_ELb0ES6_IdEE6IEventD2Ev
FNDA:0,_ZN7fishnet8geometry9SweepLineINS0_6__impl12PolygonPointILb1EEENS2_19ClosestPointsResultESt4lessIS4_ELb0ES6_IdEE6IEventD0Ev
FNDA:1280,_ZN7fishnet8geometry9SweepLineINS0_6__impl12PolygonPointILb1EEENS2_19ClosestPointsResultESt4lessIS4_ELb0ES6_IdEE6IEventD2Ev
FNDA:6,_ZN7fishnet8geometry9SweepLineINS0_18BoundingBoxPolygonINS0_13SimplePolygonIdEEEESt6vectorIS4_SaIS4_EENS0_22HorizontalAABBOrderingIS4_EELb0ESt7greaterIdEE11InsertEventC2ERKS5_
FNDA:15,_ZN7fishnet8geometry9SweepLineINS0_18BoundingBoxPolygonINS0_13SimplePolygonIdEEEESt6vectorISt4pairIS4_S4_ESaIS8_EENS0_22HorizontalAABBOrderingIS4_EELb1ESt7greaterIdEE11InsertEventC2ERKS5_
FNDA:0,_ZN7fishnet8geometry9SweepLineINS0_18BoundingBoxPolygonINS0_7PolygonIdEEEESt6vectorIS4_SaIS4_EENS0_22HorizontalAABBOrderingIS4_EELb0ESt7greaterIdEE11InsertEventC2ERKS5_
FNDA:5,_ZN7fishnet8geometry9SweepLineINS0_5Vec2DIdEESt6vectorINSt7__cxx1112basic_stringIcSt11char_traitsIcESaIcEEESaISA_EE9xOrderingLb0ESt7greaterIdEE11InsertEventC2ERKS3_
FNDA:2560,_ZN7fishnet8geometry9SweepLineINS0_6__impl12PolygonPointILb0EEENS2_19ClosestPointsResultESt4lessIS4_ELb0ES6_IdEE11InsertEventC2ERKS4_
FNDA:1280,_ZN7fishnet8geometry9SweepLineINS0_6__impl12PolygonPointILb1EEENS2_19ClosestPointsResultESt4lessIS4_ELb0ES6_IdEE11InsertEventC2ERKS4_
FNDA:0,_ZNK7fishnet8geometry9SweepLineINS0_18BoundingBoxPolygonINS0_13SimplePolygonIdEEEESt6vectorIS4_SaIS4_EENS0_22HorizontalAABBOrderingIS4_EELb0ESt7greaterIdEE11InsertEvent4typeEv
FNDA:6,_ZNK7fishnet8geometry9SweepLineINS0_18BoundingBoxPolygonINS0_13SimplePolygonIdEEEESt6vectorISt4pairIS4_S4_ESaIS8_EENS0_22HorizontalAABBOrderingIS4_EELb1ESt7greaterIdEE11InsertEvent4typeEv
FNDA:0,_ZNK7fishnet8geometry9SweepLineINS0_18BoundingBoxPolygonINS0_7PolygonIdEEEESt6vectorIS4_SaIS4_EENS0_22HorizontalAABBOrderingIS4_EELb0ESt7greaterIdEE11InsertEvent4typeEv
FNDA:14,_ZNK7fishnet8geometry9SweepLineINS0_5Vec2DIdEESt6vectorINSt7__cxx1112basic_stringIcSt11char_traitsIcESaIcEEESaISA_EE9xOrderingLb0ESt7greaterIdEE11InsertEvent4typeEv
FNDA:6958,_ZNK7fishnet8geometry9SweepLineINS0_6__impl12PolygonPointILb0EEENS2_19ClosestPointsResultESt4lessIS4_ELb0ES6_IdEE11InsertEvent4typeEv
FNDA:3208,_ZNK7fishnet8geometry9SweepLineINS0_6__impl12PolygonPointILb1EEENS2_19ClosestPointsResultESt4lessIS4_ELb0ES6_IdEE11InsertEvent4typeEv
FNDA:6,_ZN7fishnet8geometry9SweepLineINS0_18BoundingBoxPolygonINS0_13SimplePolygonIdEEEESt6vectorIS4_SaIS4_EENS0_22HorizontalAABBOrderingIS4_EELb0ESt7greaterIdEE11RemoveEventC2ERKS5_
FNDA:15,_ZN7fishnet8geometry9SweepLineINS0_18BoundingBoxPolygonINS0_13SimplePolygonIdEEEESt6vectorISt4pairIS4_S4_ESaIS8_EENS0_22HorizontalAABBOrderingIS4_EELb1ESt7greaterIdEE11RemoveEventC2ERKS5_
FNDA:0,_ZN7fishnet8geometry9SweepLineINS0_18BoundingBoxPolygonINS0_7PolygonIdEEEESt6vectorIS4_SaIS4_EENS0_22HorizontalAABBOrderingIS4_EELb0ESt7greaterIdEE11RemoveEventC2ERKS5_
FNDA:5,_ZN7fishnet8geometry9SweepLineINS0_5Vec2DIdEESt6vectorINSt7__cxx1112basic_stringIcSt11char_traitsIcESaIcEEESaISA_EE9xOrderingLb0ESt7greaterIdEE11RemoveEventC2ERKS3_
FNDA:0,_ZNK7fishnet8geometry9SweepLineINS0_18BoundingBoxPolygonINS0_13SimplePolygonIdEEEESt6vectorIS4_SaIS4_EENS0_22HorizontalAABBOrderingIS4_EELb0ESt7greaterIdEE11RemoveEvent4typeEv
FNDA:8,_ZNK7fishnet8geometry9SweepLineINS0_18BoundingBoxPolygonINS0_13SimplePolygonIdEEEESt6vectorISt4pairIS4_S4_ESaIS8_EENS0_22HorizontalAABBOrderingIS4_EELb1ESt7greaterIdEE11RemoveEvent4typeEv
FNDA:0,_ZNK7fishnet8geometry9SweepLineINS0_18BoundingBoxPolygonINS0_7PolygonIdEEEESt6vectorIS4_SaIS4_EENS0_22HorizontalAABBOrderingIS4_EELb0ESt7greaterIdEE11RemoveEvent4typeEv
FNDA:8,_ZNK7fishnet8geometry9SweepLineINS0_5Vec2DIdEESt6vectorINSt7__cxx1112basic_stringIcSt11char_traitsIcESaIcEEESaISA_EE9xOrderingLb0ESt7greaterIdEE11RemoveEvent4typeEv
FNDA:15,_ZN7fishnet8geometry9SweepLineINS0_18BoundingBoxPolygonINS0_13SimplePolygonIdEEEESt6vectorISt4pairIS4_S4_ESaIS8_EENS0_22HorizontalAABBOrderingIS4_EELb1ESt7greaterIdEE18DefaultInsertEventC2ERKS5_
FNDA:15,_ZNK7fishnet8geometry9SweepLineINS0_18BoundingBoxPolygonINS0_13SimplePolygonIdEEEESt6vectorISt4pairIS4_S4_ESaIS8_EENS0_22HorizontalAABBOrderingIS4_EELb1ESt7greaterIdEE18DefaultInsertEvent7processERSF_RSA_
FNDA:6,_ZN7fishnet8geometry9SweepLineINS0_18BoundingBoxPolygonINS0_13SimplePolygonIdEEEESt6vectorIS4_SaIS4_EENS0_22HorizontalAABBOrderingIS4_EELb0ESt7greaterIdEE18DefaultRemoveEventC2ERKS5_
FNDA:0,_ZN7fishnet8geometry9SweepLineINS0_18BoundingBoxPolygonINS0_7PolygonIdEEEESt6vectorIS4_SaIS4_EENS0_22HorizontalAABBOrderingIS4_EELb0ESt7greaterIdEE18DefaultRemoveEventC2ERKS5_
FNDA:6,_ZNK7fishnet8geometry9SweepLineINS0_18BoundingBoxPolygonINS0_13SimplePolygonIdEEEESt6vectorIS4_SaIS4_EENS0_22HorizontalAABBOrderingIS4_EELb0ESt7greaterIdEE18DefaultRemoveEvent7processERSD_RS8_
FNDA:0,_ZNK7fishnet8geometry9SweepLineINS0_18BoundingBoxPolygonINS0_7PolygonIdEEEESt6vectorIS4_SaIS4_EENS0_22HorizontalAABBOrderingIS4_EELb0ESt7greaterIdEE18DefaultRemoveEvent7processERSD_RS8_
FNDA:26,_ZNK7fishnet8geometry9SweepLineINS0_18BoundingBoxPolygonINS0_13SimplePolygonIdEEEESt6vectorIS4_SaIS4_EENS0_22HorizontalAABBOrderingIS4_EELb0ESt7greaterIdEE20EventQueueGreaterPtrclERKSt10unique_ptrINSD_6IEventESt14default_deleteISG_EESL_
FNDA:127,_ZNK7fishnet8geometry9SweepLineINS0_18BoundingBoxPolygonINS0_13SimplePolygonIdEEEESt6vectorISt4pairIS4_S4_ESaIS8_EENS0_22HorizontalAABBOrderingIS4_EELb1ESt7greaterIdEE20EventQueueGreaterPtrclERKSt10unique_ptrINSF_6IEventESt14default_deleteISI_EESN_
FNDA:0,_ZNK7fishnet8geometry9SweepLineINS0_18BoundingBoxPolygonINS0_7PolygonIdEEEESt6vectorIS4_SaIS4_EENS0_22HorizontalAABBOrderingIS4_EELb0ESt7greaterIdEE20EventQueueGreaterPtrclERKSt10unique_ptrINSD_6IEventESt14default_deleteISG_EESL_
FNDA:35,_ZNK7fishnet8geometry9SweepLineINS0_5Vec2DIdEESt6vectorINSt7__cxx1112basic_stringIcSt11char_traitsIcESaIcEEESaISA_EE9xOrderingLb0ESt7greaterIdEE20EventQueueGreaterPtrclERKSt10unique_ptrINSG_6IEventESt14default_deleteISJ_EESO_
FNDA:31964,_ZNK7fishnet8geometry9SweepLineINS0_6__impl12PolygonPointILb0EEENS2_19ClosestPointsResultESt4lessIS4_ELb0ES6_IdEE20EventQueueGreaterPtrclERKSt10unique_ptrINS9_6IEventESt14default_deleteISC_EESH_
FNDA:15482,_ZNK7fishnet8geometry9SweepLineINS0_6__impl12PolygonPointILb1EEENS2_19ClosestPointsResultESt4lessIS4_ELb0ES6_IdEE20EventQueueGreaterPtrclERKSt10unique_ptrINS9_6IEventESt14default_deleteISC_EESH_
FNF:91
FNH:66
DA:41,3892
DA:49,96
DA:50,96
DA:53,3892
DA:57,3866
DA:58,10186
DA:59,10186
DA:64,26
DA:65,16
DA:66,16
DA:71,15
DA:72,15
DA:73,15
DA:74,15
DA:78,6
DA:79,6
DA:80,6
DA:81,6
DA:95,47634
DA:96,47634
DA:98,14
DA:100,10188
DA:103,37432
DA:112,108929
DA:113,108929
DA:125,3892
DA:126,3892
DA:127,3892
DA:137,3864
DA:138,3864
DA:139,3864
DA:141,26
DA:142,26
DA:143,26
DA:153,3347
DA:154,3347
DA:157,3328
DA:158,3328
DA:161,3328
DA:162,3328
DA:169,0
DA:170,0
DA:179,1
DA:180,6
DA:181,15
DA:182,10
DA:185,1
DA:187,8
DA:188,3900
DA:189,3892
DA:190,3892
DA:192,8
DA:193,8
LF:53
LH:51
end_of_record
TN:
SF:/home/lolo/Documents/fishnet/lib/geometry/objects/base/include/fishnet/GeometryType.hpp
FN:10,21,_ZStL9to_stringN7fishnet8geometry12GeometryTypeE
FNDA:0,_ZStL9to_stringN7fishnet8geometry12GeometryTypeE
FNF:1
FNH:0
DA:10,0
DA:11,0
DA:12,0
DA:13,0
DA:14,0
DA:15,0
DA:16,0
DA:17,0
DA:18,0
DA:19,0
LF:10
LH:0
end_of_record
TN:
SF:/home/lolo/Documents/fishnet/lib/geometry/objects/base/include/fishnet/InvalidGeometryException.hpp
FN:12,12,_ZN7fishnet8geometry24InvalidGeometryExceptionC2ERKNSt7__cxx1112basic_stringIcSt11char_traitsIcESaIcEEE
FNDA:14,_ZN7fishnet8geometry24InvalidGeometryExceptionC2ERKNSt7__cxx1112basic_stringIcSt11char_traitsIcESaIcEEE
FNF:1
FNH:1
DA:12,14
LF:1
LH:1
end_of_record
TN:
SF:/home/lolo/Documents/fishnet/lib/geometry/objects/base/include/fishnet/Vec2D.hpp
FN:100,102,_ZNK7fishnet8geometry5Vec2DIdEmiIdEEDaRKNS1_IT_EE
FN:100,102,_ZNK7fishnet8geometry5Vec2DIdEmiIiEEDaRKNS1_IT_EE
FN:100,102,_ZNK7fishnet8geometry5Vec2DIiEmiIdEEDaRKNS1_IT_EE
FN:100,102,_ZNK7fishnet8geometry5Vec2DIiEmiIiEEDaRKNS1_IT_EE
FN:105,107,_ZNK7fishnet8geometry5Vec2DIdEmlIdEEDaT_
FN:105,107,_ZNK7fishnet8geometry5Vec2DIdEmlIiEEDaT_
FN:105,107,_ZNK7fishnet8geometry5Vec2DIiEmlIdEEDaT_
FN:110,114,_ZNK7fishnet8geometry5Vec2DIdEdvIdEEDaT_
FN:110,114,_ZNK7fishnet8geometry5Vec2DIdEdvIiEEDaT_
FN:110,114,_ZNK7fishnet8geometry5Vec2DIfEdvIdEEDaT_
FN:110,114,_ZNK7fishnet8geometry5Vec2DIiEdvIdEEDaT_
FN:110,114,_ZNK7fishnet8geometry5Vec2DIiEdvIiEEDaT_
FN:117,119,_ZNK7fishnet8geometry5Vec2DIdEeqIdEEbRKNS1_IT_EE
FN:117,119,_ZNK7fishnet8geometry5Vec2DIdEeqIfEEbRKNS1_IT_EE
FN:117,119,_ZNK7fishnet8geometry5Vec2DIdEeqIiEEbRKNS1_IT_EE
FN:117,119,_ZNK7fishnet8geometry5Vec2DIdEeqIlEEbRKNS1_IT_EE
FN:117,119,_ZNK7fishnet8geometry5Vec2DIfEeqIfEEbRKNS1_IT_EE
FN:117,119,_ZNK7fishnet8geometry5Vec2DIfEeqIiEEbRKNS1_IT_EE
FN:117,119,_ZNK7fishnet8geometry5Vec2DIiEeqIdEEbRKNS1_IT_EE
FN:117,119,_ZNK7fishnet8geometry5Vec2DIiEeqIfEEbRKNS1_IT_EE
FN:117,119,_ZNK7fishnet8geometry5Vec2DIiEeqIiEEbRKNS1_IT_EE
FN:117,119,_ZNK7fishnet8geometry5Vec2DIiEeqIlEEbRKNS1_IT_EE
FN:122,124,_ZNK7fishnet8geometry5Vec2DIdE3dotIdEEDaRKNS1_IT_EE
FN:122,124,_ZNK7fishnet8geometry5Vec2DIdE3dotIiEEDaRKNS1_IT_EE
FN:122,124,_ZNK7fishnet8geometry5Vec2DIfE3dotIfEEDaRKNS1_IT_EE
FN:122,124,_ZNK7fishnet8geometry5Vec2DIiE3dotIdEEDaRKNS1_IT_EE
FN:122,124,_ZNK7fishnet8geometry5Vec2DIiE3dotIiEEDaRKNS1_IT_EE
FN:127,129,_ZNK7fishnet8geometry5Vec2DIdE5crossIdEEDaRKNS1_IT_EE
FN:127,129,_ZNK7fishnet8geometry5Vec2DIdE5crossIiEEDaRKNS1_IT_EE
FN:127,129,_ZNK7fishnet8geometry5Vec2DIfE5crossIdEEDaRKNS1_IT_EE
FN:127,129,_ZNK7fishnet8geometry5Vec2DIiE5crossIdEEDaRKNS1_IT_EE
FN:127,129,_ZNK7fishnet8geometry5Vec2DIiE5crossIiEEDaRKNS1_IT_EE
FN:132,134,_ZNK7fishnet8geometry5Vec2DIdE10isParallelIdEEbRKNS1_IT_EE
FN:132,134,_ZNK7fishnet8geometry5Vec2DIdE10isParallelIiEEbRKNS1_IT_EE
FN:132,134,_ZNK7fishnet8geometry5Vec2DIfE10isParallelIdEEbRKNS1_IT_EE
FN:132,134,_ZNK7fishnet8geometry5Vec2DIiE10isParallelIdEEbRKNS1_IT_EE
FN:132,134,_ZNK7fishnet8geometry5Vec2DIiE10isParallelIiEEbRKNS1_IT_EE
FN:137,139,_ZNK7fishnet8geometry5Vec2DIdE12isOrthogonalIdEEbRKNS1_IT_EE
FN:137,139,_ZNK7fishnet8geometry5Vec2DIdE12isOrthogonalIiEEbRKNS1_IT_EE
FN:137,139,_ZNK7fishnet8geometry5Vec2DIiE12isOrthogonalIiEEbRKNS1_IT_EE
FN:141,143,_ZNK7fishnet8geometry5Vec2DIdE6lengthEv
FN:141,143,_ZNK7fishnet8geometry5Vec2DIfE6lengthEv
FN:141,143,_ZNK7fishnet8geometry5Vec2DIiE6lengthEv
FN:146,148,_ZNK7fishnet8geometry5Vec2DIdE8distanceIdEEdRKNS1_IT_EE
FN:146,148,_ZNK7fishnet8geometry5Vec2DIdE8distanceIiEEdRKNS1_IT_EE
FN:146,148,_ZNK7fishnet8geometry5Vec2DIiE8distanceIdEEdRKNS1_IT_EE
FN:146,148,_ZNK7fishnet8geometry5Vec2DIiE8distanceIiEEdRKNS1_IT_EE
FN:150,152,_ZNK7fishnet8geometry5Vec2DIdE10orthogonalEv
FN:150,152,_ZNK7fishnet8geometry5Vec2DIiE10orthogonalEv
FN:154,156,_ZNK7fishnet8geometry5Vec2DIdE9normalizeEv
FN:154,156,_ZNK7fishnet8geometry5Vec2DIfE9normalizeEv
FN:154,156,_ZNK7fishnet8geometry5Vec2DIiE9normalizeEv
FN:163,166,_ZNK7fishnet8geometry5Vec2DIiE5angleERKS2_
FN:175,177,_ZNK7fishnet8geometry5Vec2DIiE5angleERKS2_NS_4math7RadiansE
FN:179,181,_ZNK7fishnet8geometry5Vec2DIdE8toStringB5cxx11Ev
FN:179,181,_ZNK7fishnet8geometry5Vec2DIiE8toStringB5cxx11Ev
FN:204,208,_ZNK7fishnet8geometry18LexicographicOrderclIddEEbRKNS0_5Vec2DIT_EERKNS3_IT0_EE
FN:216,220,_ZNK7fishnet8geometry19YLexicographicOrderclIddEEbRKNS0_5Vec2DIT_EERKNS3_IT0_EE
FN:230,234,_ZNKSt4hashIN7fishnet8geometry5Vec2DIdEEEclERKS3_
FN:230,234,_ZNKSt4hashIN7fishnet8geometry5Vec2DIiEEEclERKS3_
FN:35,48,_ZN7fishnet8geometry5Vec2DIdE9constructIddEEDaT_T0_
FN:35,48,_ZN7fishnet8geometry5Vec2DIfE9constructIddEEDaT_T0_
FN:35,48,_ZN7fishnet8geometry5Vec2DIiE9constructIddEEDaT_T0_
FN:35,48,_ZN7fishnet8geometry5Vec2DIiE9constructIiiEEDaT_T0_
FN:50,55,_ZN7fishnet8geometry5Vec2DIdEC1Edd
FN:50,55,_ZN7fishnet8geometry5Vec2DIdEC2Edd
FN:50,55,_ZN7fishnet8geometry5Vec2DIfEC1Eff
FN:50,55,_ZN7fishnet8geometry5Vec2DIfEC2Eff
FN:50,55,_ZN7fishnet8geometry5Vec2DIiEC1Eii
FN:50,55,_ZN7fishnet8geometry5Vec2DIiEC2Eii
FN:50,55,_ZN7fishnet8geometry5Vec2DIlEC1Ell
FN:66,66,_ZN7fishnet8geometry5Vec2DIdEC1IdivEET_T0_
FN:66,66,_ZN7fishnet8geometry5Vec2DIdEC1IidvEET_T0_
FN:66,66,_ZN7fishnet8geometry5Vec2DIdEC1IiivEET_T0_
FN:66,66,_ZN7fishnet8geometry5Vec2DIdEC1IllvEET_T0_
FN:66,66,_ZN7fishnet8geometry5Vec2DIdEC2IdivEET_T0_
FN:66,66,_ZN7fishnet8geometry5Vec2DIdEC2IidvEET_T0_
FN:66,66,_ZN7fishnet8geometry5Vec2DIdEC2IiivEET_T0_
FN:72,72,_ZN7fishnet8geometry5Vec2DIdEC1Ev
FN:72,72,_ZN7fishnet8geometry5Vec2DIdEC2Ev
FN:81,83,_ZNK7fishnet8geometry5Vec2DIdEcvNS1_IT_EEIiEEv
FN:81,83,_ZNK7fishnet8geometry5Vec2DIiEcvNS1_IT_EEIdEEv
FN:90,92,_ZNK7fishnet8geometry5Vec2DIdEngEv
FN:90,92,_ZNK7fishnet8geometry5Vec2DIiEngEv
FN:95,97,_ZNK7fishnet8geometry5Vec2DIdEplIdEEDaRKNS1_IT_EE
FN:95,97,_ZNK7fishnet8geometry5Vec2DIdEplIiEEDaRKNS1_IT_EE
FN:95,97,_ZNK7fishnet8geometry5Vec2DIiEplIdEEDaRKNS1_IT_EE
FN:95,97,_ZNK7fishnet8geometry5Vec2DIiEplIiEEDaRKNS1_IT_EE
FNDA:9023795,_ZNK7fishnet8geometry5Vec2DIdEmiIdEEDaRKNS1_IT_EE
FNDA:118,_ZNK7fishnet8geometry5Vec2DIdEmiIiEEDaRKNS1_IT_EE
FNDA:253,_ZNK7fishnet8geometry5Vec2DIiEmiIdEEDaRKNS1_IT_EE
FNDA:4939,_ZNK7fishnet8geometry5Vec2DIiEmiIiEEDaRKNS1_IT_EE
FNDA:800858,_ZNK7fishnet8geometry5Vec2DIdEmlIdEEDaT_
FNDA:1,_ZNK7fishnet8geometry5Vec2DIdEmlIiEEDaT_
FNDA:2,_ZNK7fishnet8geometry5Vec2DIiEmlIdEEDaT_
FNDA:86,_ZNK7fishnet8geometry5Vec2DIdEdvIdEEDaT_
FNDA:1,_ZNK7fishnet8geometry5Vec2DIdEdvIiEEDaT_
FNDA:1,_ZNK7fishnet8geometry5Vec2DIfEdvIdEEDaT_
FNDA:18,_ZNK7fishnet8geometry5Vec2DIiEdvIdEEDaT_
FNDA:1,_ZNK7fishnet8geometry5Vec2DIiEdvIiEEDaT_
FNDA:4025470,_ZNK7fishnet8geometry5Vec2DIdEeqIdEEbRKNS1_IT_EE
FNDA:3,_ZNK7fishnet8geometry5Vec2DIdEeqIfEEbRKNS1_IT_EE
FNDA:4990,_ZNK7fishnet8geometry5Vec2DIdEeqIiEEbRKNS1_IT_EE
FNDA:1,_ZNK7fishnet8geometry5Vec2DIdEeqIlEEbRKNS1_IT_EE
FNDA:2,_ZNK7fishnet8geometry5Vec2DIfEeqIfEEbRKNS1_IT_EE
FNDA:3,_ZNK7fishnet8geometry5Vec2DIfEeqIiEEbRKNS1_IT_EE
FNDA:1080,_ZNK7fishnet8geometry5Vec2DIiEeqIdEEbRKNS1_IT_EE
FNDA:2,_ZNK7fishnet8geometry5Vec2DIiEeqIfEEbRKNS1_IT_EE
FNDA:2516,_ZNK7fishnet8geometry5Vec2DIiEeqIiEEbRKNS1_IT_EE
FNDA:1,_ZNK7fishnet8geometry5Vec2DIiEeqIlEEbRKNS1_IT_EE
FNDA:2985563,_ZNK7fishnet8geometry5Vec2DIdE3dotIdEEDaRKNS1_IT_EE
FNDA:2,_ZNK7fishnet8geometry5Vec2DIdE3dotIiEEDaRKNS1_IT_EE
FNDA:1,_ZNK7fishnet8geometry5Vec2DIfE3dotIfEEDaRKNS1_IT_EE
FNDA:1,_ZNK7fishnet8geometry5Vec2DIiE3dotIdEEDaRKNS1_IT_EE
FNDA:1067,_ZNK7fishnet8geometry5Vec2DIiE3dotIiEEDaRKNS1_IT_EE
FNDA:1781577,_ZNK7fishnet8geometry5Vec2DIdE5crossIdEEDaRKNS1_IT_EE
FNDA:1025,_ZNK7fishnet8geometry5Vec2DIdE5crossIiEEDaRKNS1_IT_EE
FNDA:1,_ZNK7fishnet8geometry5Vec2DIfE5crossIdEEDaRKNS1_IT_EE
FNDA:355,_ZNK7fishnet8geometry5Vec2DIiE5crossIdEEDaRKNS1_IT_EE
FNDA:660,_ZNK7fishnet8geometry5Vec2DIiE5crossIiEEDaRKNS1_IT_EE
FNDA:1780020,_ZNK7fishnet8geometry5Vec2DIdE10isParallelIdEEbRKNS1_IT_EE
FNDA:1025,_ZNK7fishnet8geometry5Vec2DIdE10isParallelIiEEbRKNS1_IT_EE
FNDA:1,_ZNK7fishnet8geometry5Vec2DIfE10isParallelIdEEbRKNS1_IT_EE
FNDA:353,_ZNK7fishnet8geometry5Vec2DIiE10isParallelIdEEbRKNS1_IT_EE
FNDA:654,_ZNK7fishnet8geometry5Vec2DIiE10isParallelIiEEbRKNS1_IT_EE
FNDA:2,_ZNK7fishnet8geometry5Vec2DIdE12isOrthogonalIdEEbRKNS1_IT_EE
FNDA:2,_ZNK7fishnet8geometry5Vec2DIdE12isOrthogonalIiEEbRKNS1_IT_EE
FNDA:4,_ZNK7fishnet8geometry5Vec2DIiE12isOrthogonalIiEEbRKNS1_IT_EE
FNDA:2985561,_ZNK7fishnet8geometry5Vec2DIdE6lengthEv
FNDA:1,_ZNK7fishnet8geometry5Vec2DIfE6lengthEv
FNDA:1061,_ZNK7fishnet8geometry5Vec2DIiE6lengthEv
FNDA:1349242,_ZNK7fishnet8geometry5Vec2DIdE8distanceIdEEdRKNS1_IT_EE
FNDA:116,_ZNK7fishnet8geometry5Vec2DIdE8distanceIiEEdRKNS1_IT_EE
FNDA:245,_ZNK7fishnet8geometry5Vec2DIiE8distanceIdEEdRKNS1_IT_EE
FNDA:3,_ZNK7fishnet8geometry5Vec2DIiE8distanceIiEEdRKNS1_IT_EE
FNDA:375769,_ZNK7fishnet8geometry5Vec2DIdE10orthogonalEv
FNDA:54,_ZNK7fishnet8geometry5Vec2DIiE10orthogonalEv
FNDA:3,_ZNK7fishnet8geometry5Vec2DIdE9normalizeEv
FNDA:1,_ZNK7fishnet8geometry5Vec2DIfE9normalizeEv
FNDA:18,_ZNK7fishnet8geometry5Vec2DIiE9normalizeEv
FNDA:7,_ZNK7fishnet8geometry5Vec2DIiE5angleERKS2_
FNDA:2,_ZNK7fishnet8geometry5Vec2DIiE5angleERKS2_NS_4math7RadiansE
FNDA:224,_ZNK7fishnet8geometry5Vec2DIdE8toStringB5cxx11Ev
FNDA:34,_ZNK7fishnet8geometry5Vec2DIiE8toStringB5cxx11Ev
FNDA:27297,_ZNK7fishnet8geometry18LexicographicOrderclIddEEbRKNS0_5Vec2DIT_EERKNS3_IT0_EE
FNDA:43476,_ZNK7fishnet8geometry19YLexicographicOrderclIddEEbRKNS0_5Vec2DIT_EERKNS3_IT0_EE
FNDA:631,_ZNKSt4hashIN7fishnet8geometry5Vec2DIdEEEclERKS3_
FNDA:17,_ZNKSt4hashIN7fishnet8geometry5Vec2DIiEEEclERKS3_
FNDA:11301338,_ZN7fishnet8geometry5Vec2DIdE9constructIddEEDaT_T0_
FNDA:1,_ZN7fishnet8geometry5Vec2DIfE9constructIddEEDaT_T0_
FNDA:724,_ZN7fishnet8geometry5Vec2DIiE9constructIddEEDaT_T0_
FNDA:5046,_ZN7fishnet8geometry5Vec2DIiE9constructIiiEEDaT_T0_
FNDA:11729597,_ZN7fishnet8geometry5Vec2DIdEC1Edd
FNDA:0,_ZN7fishnet8geometry5Vec2DIdEC2Edd
FNDA:10,_ZN7fishnet8geometry5Vec2DIfEC1Eff
FNDA:0,_ZN7fishnet8geometry5Vec2DIfEC2Eff
FNDA:7493,_ZN7fishnet8geometry5Vec2DIiEC1Eii
FNDA:2932,_ZN7fishnet8geometry5Vec2DIiEC2Eii
FNDA:4,_ZN7fishnet8geometry5Vec2DIlEC1Ell
FNDA:0,_ZN7fishnet8geometry5Vec2DIdEC1IdivEET_T0_
FNDA:4630,_ZN7fishnet8geometry5Vec2DIdEC1IidvEET_T0_
FNDA:7035,_ZN7fishnet8geometry5Vec2DIdEC1IiivEET_T0_
FNDA:2,_ZN7fishnet8geometry5Vec2DIdEC1IllvEET_T0_
FNDA:2163,_ZN7fishnet8geometry5Vec2DIdEC2IdivEET_T0_
FNDA:0,_ZN7fishnet8geometry5Vec2DIdEC2IidvEET_T0_
FNDA:0,_ZN7fishnet8geometry5Vec2DIdEC2IiivEET_T0_
FNDA:0,_ZN7fishnet8geometry5Vec2DIdEC1Ev
FNDA:58,_ZN7fishnet8geometry5Vec2DIdEC2Ev
FNDA:11,_ZNK7fishnet8geometry5Vec2DIdEcvNS1_IT_EEIiEEv
FNDA:735,_ZNK7fishnet8geometry5Vec2DIiEcvNS1_IT_EEIdEEv
FNDA:1,_ZNK7fishnet8geometry5Vec2DIdEngEv
FNDA:3,_ZNK7fishnet8geometry5Vec2DIiEngEv
FNDA:1476426,_ZNK7fishnet8geometry5Vec2DIdEplIdEEDaRKNS1_IT_EE
FNDA:53,_ZNK7fishnet8geometry5Vec2DIdEplIiEEDaRKNS1_IT_EE
FNDA:451,_ZNK7fishnet8geometry5Vec2DIiEplIdEEDaRKNS1_IT_EE
FNDA:106,_ZNK7fishnet8geometry5Vec2DIiEplIiEEDaRKNS1_IT_EE
FNF:88
FNH:82
DA:35,11307109
DA:37,11307109
DA:50,11740036
DA:51,11740036
DA:52,3260369
DA:53,11740036
DA:54,3051812
DA:55,11740036
DA:66,13830
DA:72,58
DA:81,746
DA:82,746
DA:90,4
DA:91,4
DA:95,1477036
DA:96,1477036
DA:100,9029105
DA:101,9029105
DA:105,800861
DA:106,800861
DA:110,107
DA:111,107
DA:112,2
DA:113,107
DA:117,4034068
DA:118,4034068
DA:122,2986634
DA:123,2986634
DA:127,1783618
DA:128,1783618
DA:132,1782053
DA:133,1782053
DA:137,8
DA:138,8
DA:141,2986623
DA:142,2986623
DA:146,1349606
DA:147,1349606
DA:150,375823
DA:151,375823
DA:154,22
DA:155,22
DA:163,7
DA:164,7
DA:165,14
DA:175,2
DA:176,2
DA:179,258
DA:180,258
DA:204,27297
DA:205,27297
DA:206,4885
DA:207,22412
DA:216,43476
DA:217,43476
DA:218,10708
DA:219,32768
DA:230,648
DA:231,648
DA:232,648
DA:233,648
LF:61
LH:61
end_of_record
TN:
SF:/home/lolo/Documents/fishnet/lib/geometry/objects/compound/include/fishnet/MultiPolygon.hpp
FN:101,103,_ZNK7fishnet8geometry12MultiPolygonINS0_13SimplePolygonIdEEE11getPolygonsEv
FN:101,103,_ZNK7fishnet8geometry12MultiPolygonINS0_7PolygonIdEEE11getPolygonsEv
FN:114,121,_ZN7fishnet8geometry12MultiPolygonINS0_13SimplePolygonIdEEE10addPolygonILb0EEEbRKS3_
FN:123,129,_ZN7fishnet8geometry12MultiPolygonINS0_13SimplePolygonIdEEE13removePolygonERKS3_
FN:132,135,_ZNK7fishnet8geometry12MultiPolygonINS0_13SimplePolygonIdEEE4areaEv
FN:133,133,_ZZNK7fishnet8geometry12MultiPolygonINS0_13SimplePolygonIdEEE4areaEvENKUlRKS3_E_clES6_
FN:142,149,_ZNK7fishnet8geometry12MultiPolygonINS0_13SimplePolygonIdEEE8centroidEv
FN:151,153,_ZNK7fishnet8geometry12MultiPolygonINS0_13SimplePolygonIdEEE8containsINS0_5Vec2DIdEEEEbRKT_
FN:151,153,_ZNK7fishnet8geometry12MultiPolygonINS0_13SimplePolygonIdEEE8containsINS0_5Vec2DIiEEEEbRKT_
FN:152,152,_ZZNK7fishnet8geometry12MultiPolygonINS0_13SimplePolygonIdEEE8containsINS0_5Vec2DIdEEEEbRKT_ENKUlRKS3_E_clESC_
FN:152,152,_ZZNK7fishnet8geometry12MultiPolygonINS0_13SimplePolygonIdEEE8containsINS0_5Vec2DIiEEEEbRKT_ENKUlRKS3_E_clESC_
FN:155,157,_ZNK7fishnet8geometry12MultiPolygonINS0_13SimplePolygonIdEEE8containsINS0_7SegmentIdEEEEbRKT_
FN:156,156,_ZZNK7fishnet8geometry12MultiPolygonINS0_13SimplePolygonIdEEE8containsINS0_7SegmentIdEEEEbRKT_ENKUlRKS3_E_clESC_
FN:159,161,_ZNK7fishnet8geometry12MultiPolygonINS0_13SimplePolygonIdEEE8isInsideINS0_5Vec2DIdEEEEbRKT_
FN:159,161,_ZNK7fishnet8geometry12MultiPolygonINS0_13SimplePolygonIdEEE8isInsideINS0_5Vec2DIiEEEEbRKT_
FN:159,161,_ZNK7fishnet8geometry12MultiPolygonINS0_7PolygonIdEEE8isInsideINS0_5Vec2DIdEEEEbRKT_
FN:159,161,_ZNK7fishnet8geometry12MultiPolygonINS0_7PolygonIdEEE8isInsideINS0_5Vec2DIiEEEEbRKT_
FN:160,160,_ZZNK7fishnet8geometry12MultiPolygonINS0_13SimplePolygonIdEEE8isInsideINS0_5Vec2DIdEEEEbRKT_ENKUlRKS3_E_clESC_
FN:160,160,_ZZNK7fishnet8geometry12MultiPolygonINS0_13SimplePolygonIdEEE8isInsideINS0_5Vec2DIiEEEEbRKT_ENKUlRKS3_E_clESC_
FN:160,160,_ZZNK7fishnet8geometry12MultiPolygonINS0_7PolygonIdEEE8isInsideINS0_5Vec2DIdEEEEbRKT_ENKUlRKS3_E_clESC_
FN:160,160,_ZZNK7fishnet8geometry12MultiPolygonINS0_7PolygonIdEEE8isInsideINS0_5Vec2DIiEEEEbRKT_ENKUlRKS3_E_clESC_
FN:163,165,_ZNK7fishnet8geometry12MultiPolygonINS0_13SimplePolygonIdEEE12isOnBoundaryINS0_5Vec2DIiEEEEbRKT_
FN:164,164,_ZZNK7fishnet8geometry12MultiPolygonINS0_13SimplePolygonIdEEE12isOnBoundaryINS0_5Vec2DIiEEEEbRKT_ENKUlRKS3_E_clESC_
FN:167,169,_ZNK7fishnet8geometry12MultiPolygonINS0_13SimplePolygonIdEEE9isOutsideINS0_5Vec2DIiEEEEbRKT_
FN:168,168,_ZZNK7fishnet8geometry12MultiPolygonINS0_13SimplePolygonIdEEE9isOutsideINS0_5Vec2DIiEEEEbRKT_ENKUlRKS3_E_clESC_
FN:171,173,_ZNK7fishnet8geometry12MultiPolygonINS0_13SimplePolygonIdEEE10intersectsINS0_3RayIdEEEEbRKT_
FN:171,173,_ZNK7fishnet8geometry12MultiPolygonINS0_13SimplePolygonIdEEE10intersectsINS0_4LineIdEEEEbRKT_
FN:171,173,_ZNK7fishnet8geometry12MultiPolygonINS0_13SimplePolygonIdEEE10intersectsINS0_7SegmentIdEEEEbRKT_
FN:171,173,_ZNK7fishnet8geometry12MultiPolygonINS0_13SimplePolygonIdEEE10intersectsINS0_7SegmentIiEEEEbRKT_
FN:172,172,_ZZNK7fishnet8geometry12MultiPolygonINS0_13SimplePolygonIdEEE10intersectsINS0_3RayIdEEEEbRKT_ENKUlRKS3_E_clESC_
FN:172,172,_ZZNK7fishnet8geometry12MultiPolygonINS0_13SimplePolygonIdEEE10intersectsINS0_4LineIdEEEEbRKT_ENKUlRKS3_E_clESC_
FN:172,172,_ZZNK7fishnet8geometry12MultiPolygonINS0_13SimplePolygonIdEEE10intersectsINS0_7SegmentIdEEEEbRKT_ENKUlRKS3_E_clESC_
FN:172,172,_ZZNK7fishnet8geometry12MultiPolygonINS0_13SimplePolygonIdEEE10intersectsINS0_7SegmentIiEEEEbRKT_ENKUlRKS3_E_clESC_
FN:175,183,_ZNK7fishnet8geometry12MultiPolygonINS0_13SimplePolygonIdEEE13intersectionsINS0_3RayIiEEEEDaRKT_
FN:175,183,_ZNK7fishnet8geometry12MultiPolygonINS0_13SimplePolygonIdEEE13intersectionsINS0_4LineIiEEEEDaRKT_
FN:177,177,_ZZNK7fishnet8geometry12MultiPolygonINS0_13SimplePolygonIdEEE13intersectionsINS0_3RayIiEEEEDaRKT_ENKUlRKS3_E_clESC_
FN:177,177,_ZZNK7fishnet8geometry12MultiPolygonINS0_13SimplePolygonIdEEE13intersectionsINS0_4LineIiEEEEDaRKT_ENKUlRKS3_E_clESC_
FN:178,178,_ZZZNK7fishnet8geometry12MultiPolygonINS0_13SimplePolygonIdEEE13intersectionsINS0_3RayIiEEEEDaRKT_ENKUlRKS3_E_clESC_ENKUlSA_E_clINS0_5Vec2DIdEEEEDaSA_
FN:178,178,_ZZZNK7fishnet8geometry12MultiPolygonINS0_13SimplePolygonIdEEE13intersectionsINS0_4LineIiEEEEDaRKT_ENKUlRKS3_E_clESC_ENKUlSA_E_clINS0_5Vec2DIdEEEEDaSA_
FN:185,187,_ZNK7fishnet8geometry12MultiPolygonINS0_13SimplePolygonIdEEE8containsIS3_EEbRKT_
FN:186,186,_ZZNK7fishnet8geometry12MultiPolygonINS0_13SimplePolygonIdEEE8containsIS3_EEbRKT_ENKUlRKS3_E_clESA_
FN:189,191,_ZNK7fishnet8geometry12MultiPolygonINS0_13SimplePolygonIdEEE7crossesIS3_EEbRKT_
FN:190,190,_ZZNK7fishnet8geometry12MultiPolygonINS0_13SimplePolygonIdEEE7crossesIS3_EEbRKT_ENKUlRKS3_E_clESA_
FN:193,195,_ZNK7fishnet8geometry12MultiPolygonINS0_13SimplePolygonIdEEE7touchesIS3_EEbRKT_
FN:194,194,_ZZNK7fishnet8geometry12MultiPolygonINS0_13SimplePolygonIdEEE7touchesIS3_EEbRKT_ENKUlRKS3_E_clESA_
FN:197,199,_ZNK7fishnet8geometry12MultiPolygonINS0_13SimplePolygonIdEEE8isInHoleIS3_EEbRKT_
FN:197,199,_ZNK7fishnet8geometry12MultiPolygonINS0_7PolygonIdEEE8isInHoleINS0_13SimplePolygonIdEEEEbRKT_
FN:198,198,_ZZNK7fishnet8geometry12MultiPolygonINS0_13SimplePolygonIdEEE8isInHoleIS3_EEbRKT_ENKUlRKS3_E_clESA_
FN:198,198,_ZZNK7fishnet8geometry12MultiPolygonINS0_7PolygonIdEEE8isInHoleINS0_13SimplePolygonIdEEEEbRKT_ENKUlRKS3_E_clESC_
FN:201,203,_ZNK7fishnet8geometry12MultiPolygonINS0_13SimplePolygonIdEEE8distanceINS0_7PolygonIdEEEEdRKT_
FN:201,203,_ZNK7fishnet8geometry12MultiPolygonINS0_13SimplePolygonIdEEE8distanceIS3_EEdRKT_
FN:202,202,_ZZNK7fishnet8geometry12MultiPolygonINS0_13SimplePolygonIdEEE8distanceINS0_7PolygonIdEEEEdRKT_ENKUlRKS3_E_clESC_
FN:202,202,_ZZNK7fishnet8geometry12MultiPolygonINS0_13SimplePolygonIdEEE8distanceIS3_EEdRKT_ENKUlRKS3_E_clESA_
FN:205,207,_ZNK7fishnet8geometry12MultiPolygonINS0_13SimplePolygonIdEEE8distanceINS1_INS0_7PolygonIdEEEEEEdRKT_
FN:206,206,_ZZNK7fishnet8geometry12MultiPolygonINS0_13SimplePolygonIdEEE8distanceINS1_INS0_7PolygonIdEEEEEEdRKT_ENKUlSB_E_clIS7_EEDaSB_
FN:209,230,_ZNK7fishnet8geometry12MultiPolygonINS0_13SimplePolygonIdEEE4aaBBEv
FN:216,216,_ZZNK7fishnet8geometry12MultiPolygonINS0_13SimplePolygonIdEEE4aaBBEvENKUlRKS3_E_clES6_
FN:233,242,_ZNK7fishnet8geometry12MultiPolygonINS0_13SimplePolygonIdEEEeqINS1_INS0_7PolygonIdEEEEEEbRKT_
FN:233,242,_ZNK7fishnet8geometry12MultiPolygonINS0_13SimplePolygonIdEEEeqIS4_EEbRKT_
FN:244,255,_ZNK7fishnet8geometry12MultiPolygonINS0_13SimplePolygonIdEEE8toStringB5cxx11Ev
FN:25,27,_ZNK7fishnet8geometry12MultiPolygonINS0_13SimplePolygonIdEEE5anyOfIZNKS4_10intersectsINS0_3RayIdEEEEbRKT_EUlRKS3_E_EEbOS9_
FN:25,27,_ZNK7fishnet8geometry12MultiPolygonINS0_13SimplePolygonIdEEE5anyOfIZNKS4_10intersectsINS0_4LineIdEEEEbRKT_EUlRKS3_E_EEbOS9_
FN:25,27,_ZNK7fishnet8geometry12MultiPolygonINS0_13SimplePolygonIdEEE5anyOfIZNKS4_10intersectsINS0_7SegmentIdEEEEbRKT_EUlRKS3_E_EEbOS9_
FN:25,27,_ZNK7fishnet8geometry12MultiPolygonINS0_13SimplePolygonIdEEE5anyOfIZNKS4_10intersectsINS0_7SegmentIiEEEEbRKT_EUlRKS3_E_EEbOS9_
FN:25,27,_ZNK7fishnet8geometry12MultiPolygonINS0_13SimplePolygonIdEEE5anyOfIZNKS4_12isOnBoundaryINS0_5Vec2DIiEEEEbRKT_EUlRKS3_E_EEbOS9_
FN:25,27,_ZNK7fishnet8geometry12MultiPolygonINS0_13SimplePolygonIdEEE5anyOfIZNKS4_7crossesIS3_EEbRKT_EUlRKS3_E_EEbOS7_
FN:25,27,_ZNK7fishnet8geometry12MultiPolygonINS0_13SimplePolygonIdEEE5anyOfIZNKS4_7touchesIS3_EEbRKT_EUlRKS3_E_EEbOS7_
FN:25,27,_ZNK7fishnet8geometry12MultiPolygonINS0_13SimplePolygonIdEEE5anyOfIZNKS4_8containsINS0_5Vec2DIdEEEEbRKT_EUlRKS3_E_EEbOS9_
FN:25,27,_ZNK7fishnet8geometry12MultiPolygonINS0_13SimplePolygonIdEEE5anyOfIZNKS4_8containsINS0_5Vec2DIiEEEEbRKT_EUlRKS3_E_EEbOS9_
FN:25,27,_ZNK7fishnet8geometry12MultiPolygonINS0_13SimplePolygonIdEEE5anyOfIZNKS4_8containsINS0_7SegmentIdEEEEbRKT_EUlRKS3_E_EEbOS9_
FN:25,27,_ZNK7fishnet8geometry12MultiPolygonINS0_13SimplePolygonIdEEE5anyOfIZNKS4_8containsIS3_EEbRKT_EUlRKS3_E_EEbOS7_
FN:25,27,_ZNK7fishnet8geometry12MultiPolygonINS0_13SimplePolygonIdEEE5anyOfIZNKS4_8isInHoleIS3_EEbRKT_EUlRKS3_E_EEbOS7_
FN:25,27,_ZNK7fishnet8geometry12MultiPolygonINS0_13SimplePolygonIdEEE5anyOfIZNKS4_8isInsideINS0_5Vec2DIdEEEEbRKT_EUlRKS3_E_EEbOS9_
FN:25,27,_ZNK7fishnet8geometry12MultiPolygonINS0_13SimplePolygonIdEEE5anyOfIZNKS4_8isInsideINS0_5Vec2DIiEEEEbRKT_EUlRKS3_E_EEbOS9_
FN:25,27,_ZNK7fishnet8geometry12MultiPolygonINS0_7PolygonIdEEE5anyOfIZNKS4_8isInHoleINS0_13SimplePolygonIdEEEEbRKT_EUlRKS3_E_EEbOS9_
FN:25,27,_ZNK7fishnet8geometry12MultiPolygonINS0_7PolygonIdEEE5anyOfIZNKS4_8isInsideINS0_5Vec2DIdEEEEbRKT_EUlRKS3_E_EEbOS9_
FN:25,27,_ZNK7fishnet8geometry12MultiPolygonINS0_7PolygonIdEEE5anyOfIZNKS4_8isInsideINS0_5Vec2DIiEEEEbRKT_EUlRKS3_E_EEbOS9_
FN:35,46,_ZN7fishnet8geometry12MultiPolygonINS0_13SimplePolygonIdEEE21tryAddGetCauseOnErrorB5cxx11ERKS3_
FN:35,46,_ZN7fishnet8geometry12MultiPolygonINS0_7PolygonIdEEE21tryAddGetCauseOnErrorB5cxx11ERKS3_
FN:48,52,_ZN7fishnet8geometry12MultiPolygonINS0_13SimplePolygonIdEEE10addOrThrowERKS3_
FN:48,52,_ZN7fishnet8geometry12MultiPolygonINS0_7PolygonIdEEE10addOrThrowERKS3_
FN:66,79,_ZN7fishnet8geometry12MultiPolygonINS0_13SimplePolygonIdEEEC2IRSt6vectorIS3_SaIS3_EEEEOT_b
FN:71,71,_ZZN7fishnet8geometry12MultiPolygonINS0_13SimplePolygonIdEEEC4IRSt6vectorIS3_SaIS3_EEEEOT_bENKUlRKS3_E_clESD_
FN:74,74,_ZZN7fishnet8geometry12MultiPolygonINS0_13SimplePolygonIdEEEC4IRSt6vectorIS3_SaIS3_EEEEOT_bENKUlRKS3_SD_E_clESD_SD_
FN:74,74,_ZZN7fishnet8geometry12MultiPolygonINS0_7PolygonIdEEEC4IRSt6vectorIS3_SaIS3_EEEEOT_bENKUlRKS3_SD_E_clESD_SD_
FN:81,81,_ZN7fishnet8geometry12MultiPolygonINS0_13SimplePolygonIdEEEC2ERKS3_
FN:81,81,_ZN7fishnet8geometry12MultiPolygonINS0_7PolygonIdEEEC2ERKS3_
FN:83,86,_ZN7fishnet8geometry12MultiPolygonINS0_13SimplePolygonIdEEEC2ERKS3_S6_
FN:83,86,_ZN7fishnet8geometry12MultiPolygonINS0_7PolygonIdEEEC2ERKS3_S6_
FN:97,99,_ZN7fishnet8geometry12MultiPolygonINS0_13SimplePolygonIdEEEC2IJS3_EEERKS3_S7_DpT_
FNDA:24,_ZNK7fishnet8geometry12MultiPolygonINS0_13SimplePolygonIdEEE11getPolygonsEv
FNDA:3,_ZNK7fishnet8geometry12MultiPolygonINS0_7PolygonIdEEE11getPolygonsEv
FNDA:50,_ZN7fishnet8geometry12MultiPolygonINS0_13SimplePolygonIdEEE10addPolygonILb0EEEbRKS3_
FNDA:4,_ZN7fishnet8geometry12MultiPolygonINS0_13SimplePolygonIdEEE13removePolygonERKS3_
FNDA:8,_ZNK7fishnet8geometry12MultiPolygonINS0_13SimplePolygonIdEEE4areaEv
FNDA:21,_ZZNK7fishnet8geometry12MultiPolygonINS0_13SimplePolygonIdEEE4areaEvENKUlRKS3_E_clES6_
FNDA:2,_ZNK7fishnet8geometry12MultiPolygonINS0_13SimplePolygonIdEEE8centroidEv
FNDA:1,_ZNK7fishnet8geometry12MultiPolygonINS0_13SimplePolygonIdEEE8containsINS0_5Vec2DIdEEEEbRKT_
FNDA:8,_ZNK7fishnet8geometry12MultiPolygonINS0_13SimplePolygonIdEEE8containsINS0_5Vec2DIiEEEEbRKT_
FNDA:3,_ZZNK7fishnet8geometry12MultiPolygonINS0_13SimplePolygonIdEEE8containsINS0_5Vec2DIdEEEEbRKT_ENKUlRKS3_E_clESC_
FNDA:16,_ZZNK7fishnet8geometry12MultiPolygonINS0_13SimplePolygonIdEEE8containsINS0_5Vec2DIiEEEEbRKT_ENKUlRKS3_E_clESC_
FNDA:4,_ZNK7fishnet8geometry12MultiPolygonINS0_13SimplePolygonIdEEE8containsINS0_7SegmentIdEEEEbRKT_
FNDA:10,_ZZNK7fishnet8geometry12MultiPolygonINS0_13SimplePolygonIdEEE8containsINS0_7SegmentIdEEEEbRKT_ENKUlRKS3_E_clESC_
FNDA:1,_ZNK7fishnet8geometry12MultiPolygonINS0_13SimplePolygonIdEEE8isInsideINS0_5Vec2DIdEEEEbRKT_
FNDA:4,_ZNK7fishnet8geometry12MultiPolygonINS0_13SimplePolygonIdEEE8isInsideINS0_5Vec2DIiEEEEbRKT_
FNDA:1,_ZNK7fishnet8geometry12MultiPolygonINS0_7PolygonIdEEE8isInsideINS0_5Vec2DIdEEEEbRKT_
FNDA:4,_ZNK7fishnet8geometry12MultiPolygonINS0_7PolygonIdEEE8isInsideINS0_5Vec2DIiEEEEbRKT_
FNDA:3,_ZZNK7fishnet8geometry12MultiPolygonINS0_13SimplePolygonIdEEE8isInsideINS0_5Vec2DIdEEEEbRKT_ENKUlRKS3_E_clESC_
FNDA:9,_ZZNK7fishnet8geometry12MultiPolygonINS0_13SimplePolygonIdEEE8isInsideINS0_5Vec2DIiEEEEbRKT_ENKUlRKS3_E_clESC_
FNDA:2,_ZZNK7fishnet8geometry12MultiPolygonINS0_7PolygonIdEEE8isInsideINS0_5Vec2DIdEEEEbRKT_ENKUlRKS3_E_clESC_
FNDA:6,_ZZNK7fishnet8geometry12MultiPolygonINS0_7PolygonIdEEE8isInsideINS0_5Vec2DIiEEEEbRKT_ENKUlRKS3_E_clESC_
FNDA:5,_ZNK7fishnet8geometry12MultiPolygonINS0_13SimplePolygonIdEEE12isOnBoundaryINS0_5Vec2DIiEEEEbRKT_
FNDA:13,_ZZNK7fishnet8geometry12MultiPolygonINS0_13SimplePolygonIdEEE12isOnBoundaryINS0_5Vec2DIiEEEEbRKT_ENKUlRKS3_E_clESC_
FNDA:3,_ZNK7fishnet8geometry12MultiPolygonINS0_13SimplePolygonIdEEE9isOutsideINS0_5Vec2DIiEEEEbRKT_
FNDA:6,_ZZNK7fishnet8geometry12MultiPolygonINS0_13SimplePolygonIdEEE9isOutsideINS0_5Vec2DIiEEEEbRKT_ENKUlRKS3_E_clESC_
FNDA:1,_ZNK7fishnet8geometry12MultiPolygonINS0_13SimplePolygonIdEEE10intersectsINS0_3RayIdEEEEbRKT_
FNDA:1,_ZNK7fishnet8geometry12MultiPolygonINS0_13SimplePolygonIdEEE10intersectsINS0_4LineIdEEEEbRKT_
FNDA:1,_ZNK7fishnet8geometry12MultiPolygonINS0_13SimplePolygonIdEEE10intersectsINS0_7SegmentIdEEEEbRKT_
FNDA:1,_ZNK7fishnet8geometry12MultiPolygonINS0_13SimplePolygonIdEEE10intersectsINS0_7SegmentIiEEEEbRKT_
FNDA:2,_ZZNK7fishnet8geometry12MultiPolygonINS0_13SimplePolygonIdEEE10intersectsINS0_3RayIdEEEEbRKT_ENKUlRKS3_E_clESC_
FNDA:1,_ZZNK7fishnet8geometry12MultiPolygonINS0_13SimplePolygonIdEEE10intersectsINS0_4LineIdEEEEbRKT_ENKUlRKS3_E_clESC_
FNDA:3,_ZZNK7fishnet8geometry12MultiPolygonINS0_13SimplePolygonIdEEE10intersectsINS0_7SegmentIdEEEEbRKT_ENKUlRKS3_E_clESC_
FNDA:3,_ZZNK7fishnet8geometry12MultiPolygonINS0_13SimplePolygonIdEEE10intersectsINS0_7SegmentIiEEEEbRKT_ENKUlRKS3_E_clESC_
FNDA:1,_ZNK7fishnet8geometry12MultiPolygonINS0_13SimplePolygonIdEEE13intersectionsINS0_3RayIiEEEEDaRKT_
FNDA:1,_ZNK7fishnet8geometry12MultiPolygonINS0_13SimplePolygonIdEEE13intersectionsINS0_4LineIiEEEEDaRKT_
FNDA:3,_ZZNK7fishnet8geometry12MultiPolygonINS0_13SimplePolygonIdEEE13intersectionsINS0_3RayIiEEEEDaRKT_ENKUlRKS3_E_clESC_
FNDA:3,_ZZNK7fishnet8geometry12MultiPolygonINS0_13SimplePolygonIdEEE13intersectionsINS0_4LineIiEEEEDaRKT_ENKUlRKS3_E_clESC_
FNDA:0,_ZZZNK7fishnet8geometry12MultiPolygonINS0_13SimplePolygonIdEEE13intersectionsINS0_3RayIiEEEEDaRKT_ENKUlRKS3_E_clESC_ENKUlSA_E_clINS0_5Vec2DIdEEEEDaSA_
FNDA:4,_ZZZNK7fishnet8geometry12MultiPolygonINS0_13SimplePolygonIdEEE13intersectionsINS0_4LineIiEEEEDaRKT_ENKUlRKS3_E_clESC_ENKUlSA_E_clINS0_5Vec2DIdEEEEDaSA_
FNDA:5,_ZNK7fishnet8geometry12MultiPolygonINS0_13SimplePolygonIdEEE8containsIS3_EEbRKT_
FNDA:13,_ZZNK7fishnet8geometry12MultiPolygonINS0_13SimplePolygonIdEEE8containsIS3_EEbRKT_ENKUlRKS3_E_clESA_
FNDA:3,_ZNK7fishnet8geometry12MultiPolygonINS0_13SimplePolygonIdEEE7crossesIS3_EEbRKT_
FNDA:7,_ZZNK7fishnet8geometry12MultiPolygonINS0_13SimplePolygonIdEEE7crossesIS3_EEbRKT_ENKUlRKS3_E_clESA_
FNDA:2,_ZNK7fishnet8geometry12MultiPolygonINS0_13SimplePolygonIdEEE7touchesIS3_EEbRKT_
FNDA:1,_ZZNK7fishnet8geometry12MultiPolygonINS0_13SimplePolygonIdEEE7touchesIS3_EEbRKT_ENKUlRKS3_E_clESA_
FNDA:2,_ZNK7fishnet8geometry12MultiPolygonINS0_13SimplePolygonIdEEE8isInHoleIS3_EEbRKT_
FNDA:2,_ZNK7fishnet8geometry12MultiPolygonINS0_7PolygonIdEEE8isInHoleINS0_13SimplePolygonIdEEEEbRKT_
FNDA:6,_ZZNK7fishnet8geometry12MultiPolygonINS0_13SimplePolygonIdEEE8isInHoleIS3_EEbRKT_ENKUlRKS3_E_clESA_
FNDA:2,_ZZNK7fishnet8geometry12MultiPolygonINS0_7PolygonIdEEE8isInHoleINS0_13SimplePolygonIdEEEEbRKT_ENKUlRKS3_E_clESC_
FNDA:2,_ZNK7fishnet8geometry12MultiPolygonINS0_13SimplePolygonIdEEE8distanceINS0_7PolygonIdEEEEdRKT_
FNDA:1,_ZNK7fishnet8geometry12MultiPolygonINS0_13SimplePolygonIdEEE8distanceIS3_EEdRKT_
FNDA:6,_ZZNK7fishnet8geometry12MultiPolygonINS0_13SimplePolygonIdEEE8distanceINS0_7PolygonIdEEEEdRKT_ENKUlRKS3_E_clESC_
FNDA:3,_ZZNK7fishnet8geometry12MultiPolygonINS0_13SimplePolygonIdEEE8distanceIS3_EEdRKT_ENKUlRKS3_E_clESA_
FNDA:1,_ZNK7fishnet8geometry12MultiPolygonINS0_13SimplePolygonIdEEE8distanceINS1_INS0_7PolygonIdEEEEEEdRKT_
FNDA:2,_ZZNK7fishnet8geometry12MultiPolygonINS0_13SimplePolygonIdEEE8distanceINS1_INS0_7PolygonIdEEEEEEdRKT_ENKUlSB_E_clIS7_EEDaSB_
FNDA:1,_ZNK7fishnet8geometry12MultiPolygonINS0_13SimplePolygonIdEEE4aaBBEv
FNDA:3,_ZZNK7fishnet8geometry12MultiPolygonINS0_13SimplePolygonIdEEE4aaBBEvENKUlRKS3_E_clES6_
FNDA:1,_ZNK7fishnet8geometry12MultiPolygonINS0_13SimplePolygonIdEEEeqINS1_INS0_7PolygonIdEEEEEEbRKT_
FNDA:3,_ZNK7fishnet8geometry12MultiPolygonINS0_13SimplePolygonIdEEEeqIS4_EEbRKT_
FNDA:1,_ZNK7fishnet8geometry12MultiPolygonINS0_13SimplePolygonIdEEE8toStringB5cxx11Ev
FNDA:1,_ZNK7fishnet8geometry12MultiPolygonINS0_13SimplePolygonIdEEE5anyOfIZNKS4_10intersectsINS0_3RayIdEEEEbRKT_EUlRKS3_E_EEbOS9_
FNDA:1,_ZNK7fishnet8geometry12MultiPolygonINS0_13SimplePolygonIdEEE5anyOfIZNKS4_10intersectsINS0_4LineIdEEEEbRKT_EUlRKS3_E_EEbOS9_
FNDA:1,_ZNK7fishnet8geometry12MultiPolygonINS0_13SimplePolygonIdEEE5anyOfIZNKS4_10intersectsINS0_7SegmentIdEEEEbRKT_EUlRKS3_E_EEbOS9_
FNDA:1,_ZNK7fishnet8geometry12MultiPolygonINS0_13SimplePolygonIdEEE5anyOfIZNKS4_10intersectsINS0_7SegmentIiEEEEbRKT_EUlRKS3_E_EEbOS9_
FNDA:5,_ZNK7fishnet8geometry12MultiPolygonINS0_13SimplePolygonIdEEE5anyOfIZNKS4_12isOnBoundaryINS0_5Vec2DIiEEEEbRKT_EUlRKS3_E_EEbOS9_
FNDA:3,_ZNK7fishnet8geometry12MultiPolygonINS0_13SimplePolygonIdEEE5anyOfIZNKS4_7crossesIS3_EEbRKT_EUlRKS3_E_EEbOS7_
FNDA:1,_ZNK7fishnet8geometry12MultiPolygonINS0_13SimplePolygonIdEEE5anyOfIZNKS4_7touchesIS3_EEbRKT_EUlRKS3_E_EEbOS7_
FNDA:1,_ZNK7fishnet8geometry12MultiPolygonINS0_13SimplePolygonIdEEE5anyOfIZNKS4_8containsINS0_5Vec2DIdEEEEbRKT_EUlRKS3_E_EEbOS9_
FNDA:8,_ZNK7fishnet8geometry12MultiPolygonINS0_13SimplePolygonIdEEE5anyOfIZNKS4_8containsINS0_5Vec2DIiEEEEbRKT_EUlRKS3_E_EEbOS9_
FNDA:4,_ZNK7fishnet8geometry12MultiPolygonINS0_13SimplePolygonIdEEE5anyOfIZNKS4_8containsINS0_7SegmentIdEEEEbRKT_EUlRKS3_E_EEbOS9_
FNDA:5,_ZNK7fishnet8geometry12MultiPolygonINS0_13SimplePolygonIdEEE5anyOfIZNKS4_8containsIS3_EEbRKT_EUlRKS3_E_EEbOS7_
FNDA:2,_ZNK7fishnet8geometry12MultiPolygonINS0_13SimplePolygonIdEEE5anyOfIZNKS4_8isInHoleIS3_EEbRKT_EUlRKS3_E_EEbOS7_
FNDA:1,_ZNK7fishnet8geometry12MultiPolygonINS0_13SimplePolygonIdEEE5anyOfIZNKS4_8isInsideINS0_5Vec2DIdEEEEbRKT_EUlRKS3_E_EEbOS9_
FNDA:4,_ZNK7fishnet8geometry12MultiPolygonINS0_13SimplePolygonIdEEE5anyOfIZNKS4_8isInsideINS0_5Vec2DIiEEEEbRKT_EUlRKS3_E_EEbOS9_
FNDA:2,_ZNK7fishnet8geometry12MultiPolygonINS0_7PolygonIdEEE5anyOfIZNKS4_8isInHoleINS0_13SimplePolygonIdEEEEbRKT_EUlRKS3_E_EEbOS9_
FNDA:1,_ZNK7fishnet8geometry12MultiPolygonINS0_7PolygonIdEEE5anyOfIZNKS4_8isInsideINS0_5Vec2DIdEEEEbRKT_EUlRKS3_E_EEbOS9_
FNDA:4,_ZNK7fishnet8geometry12MultiPolygonINS0_7PolygonIdEEE5anyOfIZNKS4_8isInsideINS0_5Vec2DIiEEEEbRKT_EUlRKS3_E_EEbOS9_
FNDA:70,_ZN7fishnet8geometry12MultiPolygonINS0_13SimplePolygonIdEEE21tryAddGetCauseOnErrorB5cxx11ERKS3_
FNDA:4,_ZN7fishnet8geometry12MultiPolygonINS0_7PolygonIdEEE21tryAddGetCauseOnErrorB5cxx11ERKS3_
FNDA:20,_ZN7fishnet8geometry12MultiPolygonINS0_13SimplePolygonIdEEE10addOrThrowERKS3_
FNDA:4,_ZN7fishnet8geometry12MultiPolygonINS0_7PolygonIdEEE10addOrThrowERKS3_
FNDA:1,_ZN7fishnet8geometry12MultiPolygonINS0_13SimplePolygonIdEEEC2IRSt6vectorIS3_SaIS3_EEEEOT_b
FNDA:2,_ZZN7fishnet8geometry12MultiPolygonINS0_13SimplePolygonIdEEEC4IRSt6vectorIS3_SaIS3_EEEEOT_bENKUlRKS3_E_clESD_
FNDA:0,_ZZN7fishnet8geometry12MultiPolygonINS0_13SimplePolygonIdEEEC4IRSt6vectorIS3_SaIS3_EEEEOT_bENKUlRKS3_SD_E_clESD_SD_
FNDA:0,_ZZN7fishnet8geometry12MultiPolygonINS0_7PolygonIdEEEC4IRSt6vectorIS3_SaIS3_EEEEOT_bENKUlRKS3_SD_E_clESD_SD_
FNDA:45,_ZN7fishnet8geometry12MultiPolygonINS0_13SimplePolygonIdEEEC2ERKS3_
FNDA:3,_ZN7fishnet8geometry12MultiPolygonINS0_7PolygonIdEEEC2ERKS3_
FNDA:8,_ZN7fishnet8geometry12MultiPolygonINS0_13SimplePolygonIdEEEC2ERKS3_S6_
FNDA:2,_ZN7fishnet8geometry12MultiPolygonINS0_7PolygonIdEEEC2ERKS3_S6_
FNDA:2,_ZN7fishnet8geometry12MultiPolygonINS0_13SimplePolygonIdEEEC2IJS3_EEERKS3_S7_DpT_
FNF:90
FNH:87
DA:25,45
DA:26,45
DA:35,74
DA:36,159
DA:37,92
DA:38,3
DA:39,89
DA:40,3
DA:41,86
DA:42,1
DA:44,67
DA:45,67
DA:48,24
DA:49,24
DA:50,24
DA:51,4
DA:52,24
DA:66,1
DA:67,1
DA:68,0
DA:70,1
DA:71,3
DA:74,0
DA:75,0
DA:79,0
DA:81,144
DA:83,10
DA:84,10
DA:85,10
DA:86,10
DA:97,2
DA:98,2
DA:99,2
DA:101,27
DA:102,27
DA:114,50
DA:119,50
DA:123,4
DA:124,4
DA:125,4
DA:126,1
DA:127,3
DA:128,3
DA:132,8
DA:133,29
DA:134,8
DA:142,2
DA:143,2
DA:144,2
DA:145,7
DA:146,5
DA:148,2
DA:151,9
DA:152,28
DA:155,4
DA:156,14
DA:159,10
DA:160,30
DA:163,5
DA:164,18
DA:167,3
DA:168,9
DA:171,4
DA:172,13
DA:175,2
DA:176,2
DA:177,14
DA:178,14
DA:179,0
DA:182,2
DA:185,5
DA:186,18
DA:189,3
DA:190,10
DA:193,2
DA:194,3
DA:197,4
DA:198,12
DA:201,3
DA:202,12
DA:205,1
DA:206,3
DA:209,1
DA:210,1
DA:211,1
DA:212,1
DA:213,1
DA:214,1
DA:215,2
DA:216,5
DA:218,18
DA:219,17
DA:220,17
DA:221,1
DA:222,17
DA:223,4
DA:224,17
DA:225,3
DA:226,17
DA:227,2
DA:229,1
DA:233,4
DA:234,4
DA:235,2
DA:236,8
DA:237,6
DA:238,6
DA:239,0
DA:241,2
DA:244,1
DA:245,1
DA:246,1
DA:247,1
DA:248,4
DA:249,3
DA:250,3
DA:251,3
DA:253,1
DA:254,1
DA:255,1
LF:120
LH:114
end_of_record
TN:
SF:/home/lolo/Documents/fishnet/lib/geometry/objects/linear/include/fishnet/Line.hpp
FN:101,103,_ZNK7fishnet8geometry4LineIdE6toLineEv
FN:101,103,_ZNK7fishnet8geometry4LineIiE6toLineEv
FN:105,107,_ZNK7fishnet8geometry4LineIdE9directionEv
FN:105,107,_ZNK7fishnet8geometry4LineIiE9directionEv
FN:109,111,_ZNK7fishnet8geometry4LineIdE10isVerticalEv
FN:109,111,_ZNK7fishnet8geometry4LineIiE10isVerticalEv
FN:113,119,_ZNK7fishnet8geometry4LineIdE10yInterceptEv
FN:113,119,_ZNK7fishnet8geometry4LineIiE10yInterceptEv
FN:121,125,_ZNK7fishnet8geometry4LineIdE5slopeEv
FN:121,125,_ZNK7fishnet8geometry4LineIiE5slopeEv
FN:127,139,_ZNK7fishnet8geometry4LineIdE8containsINS0_5Vec2DIdEEEEbRKT_
FN:127,139,_ZNK7fishnet8geometry4LineIdE8containsINS0_5Vec2DIiEEEEbRKT_
FN:127,139,_ZNK7fishnet8geometry4LineIiE8containsINS0_5Vec2DIdEEEEbRKT_
FN:127,139,_ZNK7fishnet8geometry4LineIiE8containsINS0_5Vec2DIiEEEEbRKT_
FN:141,143,_ZNK7fishnet8geometry4LineIdE6isLeftINS0_5Vec2DIdEEEEbRKT_
FN:141,143,_ZNK7fishnet8geometry4LineIdE6isLeftINS0_5Vec2DIiEEEEbRKT_
FN:141,143,_ZNK7fishnet8geometry4LineIiE6isLeftINS0_5Vec2DIdEEEEbRKT_
FN:141,143,_ZNK7fishnet8geometry4LineIiE6isLeftINS0_5Vec2DIiEEEEbRKT_
FN:145,147,_ZNK7fishnet8geometry4LineIdE7isRightINS0_5Vec2DIdEEEEbRKT_
FN:145,147,_ZNK7fishnet8geometry4LineIdE7isRightINS0_5Vec2DIiEEEEbRKT_
FN:149,151,_ZNK7fishnet8geometry4LineIdE10isParallelINS1_IiEEEEbRKT_
FN:149,151,_ZNK7fishnet8geometry4LineIdE10isParallelIS2_EEbRKT_
FN:149,151,_ZNK7fishnet8geometry4LineIiE10isParallelINS0_3RayIiEEEEbRKT_
FN:149,151,_ZNK7fishnet8geometry4LineIiE10isParallelINS0_7SegmentIiEEEEbRKT_
FN:149,151,_ZNK7fishnet8geometry4LineIiE10isParallelINS1_IdEEEEbRKT_
FN:149,151,_ZNK7fishnet8geometry4LineIiE10isParallelIS2_EEbRKT_
FN:153,155,_ZNK7fishnet8geometry4LineIdE10intersectsINS1_IiEEEEbRKT_
FN:153,155,_ZNK7fishnet8geometry4LineIdE10intersectsIS2_EEbRKT_
FN:153,155,_ZNK7fishnet8geometry4LineIiE10intersectsINS0_7SegmentIiEEEEbRKT_
FN:153,155,_ZNK7fishnet8geometry4LineIiE10intersectsIS2_EEbRKT_
FN:158,166,_ZNK7fishnet8geometry4LineIiEeqIdEEbRKNS1_IT_EE
FN:158,166,_ZNK7fishnet8geometry4LineIiEeqIiEEbRKNS1_IT_EE
FN:168,170,_ZNK7fishnet8geometry4LineIdE12intersectionIS2_EESt8optionalINS0_5Vec2DIdEEERKT_
FN:168,170,_ZNK7fishnet8geometry4LineIiE12intersectionINS0_7SegmentIiEEEESt8optionalINS0_5Vec2DIdEEERKT_
FN:168,170,_ZNK7fishnet8geometry4LineIiE12intersectionIS2_EESt8optionalINS0_5Vec2DIdEEERKT_
FN:172,178,_ZNK7fishnet8geometry4LineIdE8toStringB5cxx11Ev
FN:172,178,_ZNK7fishnet8geometry4LineIiE8toStringB5cxx11Ev
FN:193,198,_ZNKSt4hashIN7fishnet8geometry4LineIdEEEclERKS3_
FN:193,198,_ZNKSt4hashIN7fishnet8geometry4LineIiEEEclERKS3_
FN:29,31,_ZN7fishnet8geometry4LineIdE12verticalLineEd
FN:29,31,_ZN7fishnet8geometry4LineIiE12verticalLineEi
FN:39,41,_ZN7fishnet8geometry4LineIdE14horizontalLineEd
FN:39,41,_ZN7fishnet8geometry4LineIiE14horizontalLineEi
FN:50,53,_ZN7fishnet8geometry4LineIdEC1ENS0_5Vec2DIdEES4_
FN:50,53,_ZN7fishnet8geometry4LineIiEC1ENS0_5Vec2DIiEES4_
FN:50,53,_ZN7fishnet8geometry4LineIiEC2ENS0_5Vec2DIiEES4_
FN:63,63,_ZN7fishnet8geometry4LineIdEC1IivEENS0_5Vec2DIdEENS4_IT_EE
FN:73,73,_ZN7fishnet8geometry4LineIdEC2IivEENS0_5Vec2DIT_EENS4_IdEE
FN:79,79,_ZN7fishnet8geometry4LineIdEC1Edd
FN:79,79,_ZN7fishnet8geometry4LineIiEC1Eii
FN:79,79,_ZN7fishnet8geometry4LineIiEC2Eii
FN:89,89,_ZN7fishnet8geometry4LineIdEC1IivEEdT_
FN:99,99,_ZN7fishnet8geometry4LineIdEC1IivEET_d
FN:99,99,_ZN7fishnet8geometry4LineIdEC2IivEET_d
FNDA:375920,_ZNK7fishnet8geometry4LineIdE6toLineEv
FNDA:65,_ZNK7fishnet8geometry4LineIiE6toLineEv
FNDA:3610885,_ZNK7fishnet8geometry4LineIdE9directionEv
FNDA:1880,_ZNK7fishnet8geometry4LineIiE9directionEv
FNDA:4,_ZNK7fishnet8geometry4LineIdE10isVerticalEv
FNDA:12,_ZNK7fishnet8geometry4LineIiE10isVerticalEv
FNDA:7,_ZNK7fishnet8geometry4LineIdE10yInterceptEv
FNDA:20,_ZNK7fishnet8geometry4LineIiE10yInterceptEv
FNDA:4,_ZNK7fishnet8geometry4LineIdE5slopeEv
FNDA:9,_ZNK7fishnet8geometry4LineIiE5slopeEv
FNDA:8741,_ZNK7fishnet8geometry4LineIdE8containsINS0_5Vec2DIdEEEEbRKT_
FNDA:8,_ZNK7fishnet8geometry4LineIdE8containsINS0_5Vec2DIiEEEEbRKT_
FNDA:36,_ZNK7fishnet8geometry4LineIiE8containsINS0_5Vec2DIdEEEEbRKT_
FNDA:0,_ZNK7fishnet8geometry4LineIiE8containsINS0_5Vec2DIiEEEEbRKT_
FNDA:47,_ZNK7fishnet8geometry4LineIdE6isLeftINS0_5Vec2DIdEEEEbRKT_
FNDA:6,_ZNK7fishnet8geometry4LineIdE6isLeftINS0_5Vec2DIiEEEEbRKT_
FNDA:2,_ZNK7fishnet8geometry4LineIiE6isLeftINS0_5Vec2DIdEEEEbRKT_
FNDA:1,_ZNK7fishnet8geometry4LineIiE6isLeftINS0_5Vec2DIiEEEEbRKT_
FNDA:1,_ZNK7fishnet8geometry4LineIdE7isRightINS0_5Vec2DIdEEEEbRKT_
FNDA:1,_ZNK7fishnet8geometry4LineIdE7isRightINS0_5Vec2DIiEEEEbRKT_
FNDA:671,_ZNK7fishnet8geometry4LineIdE10isParallelINS1_IiEEEEbRKT_
FNDA:1402634,_ZNK7fishnet8geometry4LineIdE10isParallelIS2_EEbRKT_
FNDA:1,_ZNK7fishnet8geometry4LineIiE10isParallelINS0_3RayIiEEEEbRKT_
FNDA:2,_ZNK7fishnet8geometry4LineIiE10isParallelINS0_7SegmentIiEEEEbRKT_
FNDA:306,_ZNK7fishnet8geometry4LineIiE10isParallelINS1_IdEEEEbRKT_
FNDA:216,_ZNK7fishnet8geometry4LineIiE10isParallelIS2_EEbRKT_
FNDA:2,_ZNK7fishnet8geometry4LineIdE10intersectsINS1_IiEEEEbRKT_
FNDA:1,_ZNK7fishnet8geometry4LineIdE10intersectsIS2_EEbRKT_
FNDA:2,_ZNK7fishnet8geometry4LineIiE10intersectsINS0_7SegmentIiEEEEbRKT_
FNDA:1,_ZNK7fishnet8geometry4LineIiE10intersectsIS2_EEbRKT_
FNDA:4,_ZNK7fishnet8geometry4LineIiEeqIdEEbRKNS1_IT_EE
FNDA:5,_ZNK7fishnet8geometry4LineIiEeqIiEEbRKNS1_IT_EE
FNDA:8,_ZNK7fishnet8geometry4LineIdE12intersectionIS2_EESt8optionalINS0_5Vec2DIdEEERKT_
FNDA:1,_ZNK7fishnet8geometry4LineIiE12intersectionINS0_7SegmentIiEEEESt8optionalINS0_5Vec2DIdEEERKT_
FNDA:22,_ZNK7fishnet8geometry4LineIiE12intersectionIS2_EESt8optionalINS0_5Vec2DIdEEERKT_
FNDA:1,_ZNK7fishnet8geometry4LineIdE8toStringB5cxx11Ev
FNDA:2,_ZNK7fishnet8geometry4LineIiE8toStringB5cxx11Ev
FNDA:2,_ZNKSt4hashIN7fishnet8geometry4LineIdEEEclERKS3_
FNDA:2,_ZNKSt4hashIN7fishnet8geometry4LineIiEEEclERKS3_
FNDA:2,_ZN7fishnet8geometry4LineIdE12verticalLineEd
FNDA:6,_ZN7fishnet8geometry4LineIiE12verticalLineEi
FNDA:3,_ZN7fishnet8geometry4LineIdE14horizontalLineEd
FNDA:8,_ZN7fishnet8geometry4LineIiE14horizontalLineEi
FNDA:3182117,_ZN7fishnet8geometry4LineIdEC1ENS0_5Vec2DIdEES4_
FNDA:1357,_ZN7fishnet8geometry4LineIiEC1ENS0_5Vec2DIiEES4_
FNDA:8,_ZN7fishnet8geometry4LineIiEC2ENS0_5Vec2DIiEES4_
FNDA:1,_ZN7fishnet8geometry4LineIdEC1IivEENS0_5Vec2DIdEENS4_IT_EE
FNDA:51,_ZN7fishnet8geometry4LineIdEC2IivEENS0_5Vec2DIT_EENS4_IdEE
FNDA:5,_ZN7fishnet8geometry4LineIdEC1Edd
FNDA:31,_ZN7fishnet8geometry4LineIiEC1Eii
FNDA:0,_ZN7fishnet8geometry4LineIiEC2Eii
FNDA:1,_ZN7fishnet8geometry4LineIdEC1IivEEdT_
FNDA:3,_ZN7fishnet8geometry4LineIdEC1IivEET_d
FNDA:0,_ZN7fishnet8geometry4LineIdEC2IivEET_d
FNF:54
FNH:51
DA:29,8
DA:30,8
DA:39,11
DA:40,11
DA:50,3183482
DA:51,3183482
DA:52,1
DA:53,3183481
DA:63,1
DA:73,51
DA:79,36
DA:89,1
DA:99,3
DA:101,375985
DA:102,375985
DA:105,3612765
DA:106,3612765
DA:109,16
DA:110,16
DA:113,27
DA:114,27
DA:115,27
DA:116,24
DA:118,3
DA:121,13
DA:122,13
DA:123,3
DA:124,10
DA:127,8785
DA:129,8785
DA:130,8785
DA:131,8298
DA:133,487
DA:134,277
DA:136,210
DA:137,210
DA:138,210
DA:141,56
DA:142,56
DA:145,2
DA:146,2
DA:149,1403830
DA:150,1403830
DA:153,6
DA:154,6
DA:158,9
DA:159,9
DA:160,8
DA:161,1
DA:163,7
DA:165,1
DA:168,31
DA:169,31
DA:172,3
DA:173,3
DA:174,3
DA:175,2
DA:177,1
DA:193,4
DA:194,4
DA:195,4
DA:196,4
DA:197,4
LF:63
LH:63
end_of_record
TN:
SF:/home/lolo/Documents/fishnet/lib/geometry/objects/linear/include/fishnet/Ray.hpp
FN:100,102,_ZNK7fishnet8geometry3RayIiE8toStringB5cxx11Ev
FN:111,115,_ZNKSt4hashIN7fishnet8geometry3RayIiEEEclERKS3_
FN:21,23,_ZN7fishnet8geometry3RayIdE2upENS0_5Vec2DIdEE
FN:21,23,_ZN7fishnet8geometry3RayIiE2upENS0_5Vec2DIiEE
FN:25,27,_ZN7fishnet8geometry3RayIiE4downENS0_5Vec2DIiEE
FN:29,31,_ZN7fishnet8geometry3RayIdE5rightENS0_5Vec2DIdEE
FN:29,31,_ZN7fishnet8geometry3RayIiE5rightENS0_5Vec2DIiEE
FN:33,35,_ZN7fishnet8geometry3RayIdE4leftENS0_5Vec2DIdEE
FN:33,35,_ZN7fishnet8geometry3RayIiE4leftENS0_5Vec2DIiEE
FN:37,40,_ZN7fishnet8geometry3RayIdEC1ENS0_5Vec2DIdEES4_
FN:37,40,_ZN7fishnet8geometry3RayIdEC2ENS0_5Vec2DIdEES4_
FN:37,40,_ZN7fishnet8geometry3RayIfEC1ENS0_5Vec2DIfEES4_
FN:37,40,_ZN7fishnet8geometry3RayIiEC1ENS0_5Vec2DIiEES4_
FN:37,40,_ZN7fishnet8geometry3RayIiEC2ENS0_5Vec2DIiEES4_
FN:43,43,_ZN7fishnet8geometry3RayIdEC1IivEENS0_5Vec2DIdEENS4_IT_EE
FN:43,43,_ZN7fishnet8geometry3RayIdEC2IivEENS0_5Vec2DIdEENS4_IT_EE
FN:46,46,_ZN7fishnet8geometry3RayIdEC1IivEENS0_5Vec2DIT_EENS4_IdEE
FN:48,50,_ZNK7fishnet8geometry3RayIdE9directionEv
FN:48,50,_ZNK7fishnet8geometry3RayIfE9directionEv
FN:48,50,_ZNK7fishnet8geometry3RayIiE9directionEv
FN:52,54,_ZNK7fishnet8geometry3RayIdE6originEv
FN:52,54,_ZNK7fishnet8geometry3RayIfE6originEv
FN:52,54,_ZNK7fishnet8geometry3RayIiE6originEv
FN:56,58,_ZNK7fishnet8geometry3RayIdE6toLineEv
FN:56,58,_ZNK7fishnet8geometry3RayIiE6toLineEv
FN:60,62,_ZNK7fishnet8geometry3RayIdE11oppositeRayEv
FN:60,62,_ZNK7fishnet8geometry3RayIiE11oppositeRayEv
FN:64,66,_ZNK7fishnet8geometry3RayIdEngEv
FN:68,70,_ZNK7fishnet8geometry3RayIdE10isParallelINS0_4LineIdEEEEbRKT_
FN:68,70,_ZNK7fishnet8geometry3RayIdE10isParallelINS1_IiEEEEbRKT_
FN:68,70,_ZNK7fishnet8geometry3RayIfE10isParallelINS0_4LineIdEEEEbRKT_
FN:68,70,_ZNK7fishnet8geometry3RayIiE10isParallelINS0_4LineIdEEEEbRKT_
FN:68,70,_ZNK7fishnet8geometry3RayIiE10isParallelINS0_7SegmentIiEEEEbRKT_
FN:68,70,_ZNK7fishnet8geometry3RayIiE10isParallelIS2_EEbRKT_
FN:72,74,_ZNK7fishnet8geometry3RayIiE10intersectsINS0_4LineIdEEEEbRKT_
FN:72,74,_ZNK7fishnet8geometry3RayIiE10intersectsINS0_7SegmentIiEEEEbRKT_
FN:72,74,_ZNK7fishnet8geometry3RayIiE10intersectsINS1_IdEEEEbRKT_
FN:72,74,_ZNK7fishnet8geometry3RayIiE10intersectsIS2_EEbRKT_
FN:76,89,_ZNK7fishnet8geometry3RayIdE8containsINS0_5Vec2DIdEEEEbRKT_
FN:76,89,_ZNK7fishnet8geometry3RayIiE8containsINS0_5Vec2DIdEEEEbRKT_
FN:76,89,_ZNK7fishnet8geometry3RayIiE8containsINS0_5Vec2DIiEEEEbRKT_
FN:92,94,_ZNK7fishnet8geometry3RayIdEeqIiEEbRKNS1_IT_EE
FN:92,94,_ZNK7fishnet8geometry3RayIiEeqIdEEbRKNS1_IT_EE
FN:92,94,_ZNK7fishnet8geometry3RayIiEeqIfEEbRKNS1_IT_EE
FN:92,94,_ZNK7fishnet8geometry3RayIiEeqIiEEbRKNS1_IT_EE
FN:96,98,_ZNK7fishnet8geometry3RayIiE12intersectionINS0_4LineIdEEEESt8optionalINS0_5Vec2DIdEEERKT_
FN:96,98,_ZNK7fishnet8geometry3RayIiE12intersectionINS0_7SegmentIiEEEESt8optionalINS0_5Vec2DIdEEERKT_
FN:96,98,_ZNK7fishnet8geometry3RayIiE12intersectionIS2_EESt8optionalINS0_5Vec2DIdEEERKT_
FNDA:2,_ZNK7fishnet8geometry3RayIiE8toStringB5cxx11Ev
FNDA:4,_ZNKSt4hashIN7fishnet8geometry3RayIiEEEclERKS3_
FNDA:1,_ZN7fishnet8geometry3RayIdE2upENS0_5Vec2DIdEE
FNDA:9,_ZN7fishnet8geometry3RayIiE2upENS0_5Vec2DIiEE
FNDA:3,_ZN7fishnet8geometry3RayIiE4downENS0_5Vec2DIiEE
FNDA:4782,_ZN7fishnet8geometry3RayIdE5rightENS0_5Vec2DIdEE
FNDA:12,_ZN7fishnet8geometry3RayIiE5rightENS0_5Vec2DIiEE
FNDA:1,_ZN7fishnet8geometry3RayIdE4leftENS0_5Vec2DIdEE
FNDA:2,_ZN7fishnet8geometry3RayIiE4leftENS0_5Vec2DIiEE
FNDA:1923,_ZN7fishnet8geometry3RayIdEC1ENS0_5Vec2DIdEES4_
FNDA:2867,_ZN7fishnet8geometry3RayIdEC2ENS0_5Vec2DIdEES4_
FNDA:1,_ZN7fishnet8geometry3RayIfEC1ENS0_5Vec2DIfEES4_
FNDA:37,_ZN7fishnet8geometry3RayIiEC1ENS0_5Vec2DIiEES4_
FNDA:0,_ZN7fishnet8geometry3RayIiEC2ENS0_5Vec2DIiEES4_
FNDA:3,_ZN7fishnet8geometry3RayIdEC1IivEENS0_5Vec2DIdEENS4_IT_EE
FNDA:0,_ZN7fishnet8geometry3RayIdEC2IivEENS0_5Vec2DIdEENS4_IT_EE
FNDA:2,_ZN7fishnet8geometry3RayIdEC1IivEENS0_5Vec2DIT_EENS4_IdEE
FNDA:11,_ZNK7fishnet8geometry3RayIdE9directionEv
FNDA:3,_ZNK7fishnet8geometry3RayIfE9directionEv
FNDA:26,_ZNK7fishnet8geometry3RayIiE9directionEv
FNDA:7,_ZNK7fishnet8geometry3RayIdE6originEv
FNDA:2,_ZNK7fishnet8geometry3RayIfE6originEv
FNDA:17,_ZNK7fishnet8geometry3RayIiE6originEv
FNDA:296599,_ZNK7fishnet8geometry3RayIdE6toLineEv
FNDA:100,_ZNK7fishnet8geometry3RayIiE6toLineEv
FNDA:1,_ZNK7fishnet8geometry3RayIdE11oppositeRayEv
FNDA:2,_ZNK7fishnet8geometry3RayIiE11oppositeRayEv
FNDA:1,_ZNK7fishnet8geometry3RayIdEngEv
FNDA:3,_ZNK7fishnet8geometry3RayIdE10isParallelINS0_4LineIdEEEEbRKT_
FNDA:1,_ZNK7fishnet8geometry3RayIdE10isParallelINS1_IiEEEEbRKT_
FNDA:1,_ZNK7fishnet8geometry3RayIfE10isParallelINS0_4LineIdEEEEbRKT_
FNDA:2,_ZNK7fishnet8geometry3RayIiE10isParallelINS0_4LineIdEEEEbRKT_
FNDA:2,_ZNK7fishnet8geometry3RayIiE10isParallelINS0_7SegmentIiEEEEbRKT_
FNDA:1,_ZNK7fishnet8geometry3RayIiE10isParallelIS2_EEbRKT_
FNDA:3,_ZNK7fishnet8geometry3RayIiE10intersectsINS0_4LineIdEEEEbRKT_
FNDA:2,_ZNK7fishnet8geometry3RayIiE10intersectsINS0_7SegmentIiEEEEbRKT_
FNDA:1,_ZNK7fishnet8geometry3RayIiE10intersectsINS1_IdEEEEbRKT_
FNDA:2,_ZNK7fishnet8geometry3RayIiE10intersectsIS2_EEbRKT_
FNDA:13716,_ZNK7fishnet8geometry3RayIdE8containsINS0_5Vec2DIdEEEEbRKT_
FNDA:59,_ZNK7fishnet8geometry3RayIiE8containsINS0_5Vec2DIdEEEEbRKT_
FNDA:5,_ZNK7fishnet8geometry3RayIiE8containsINS0_5Vec2DIiEEEEbRKT_
FNDA:1,_ZNK7fishnet8geometry3RayIdEeqIiEEbRKNS1_IT_EE
FNDA:1,_ZNK7fishnet8geometry3RayIiEeqIdEEbRKNS1_IT_EE
FNDA:1,_ZNK7fishnet8geometry3RayIiEeqIfEEbRKNS1_IT_EE
FNDA:5,_ZNK7fishnet8geometry3RayIiEeqIiEEbRKNS1_IT_EE
FNDA:2,_ZNK7fishnet8geometry3RayIiE12intersectionINS0_4LineIdEEEESt8optionalINS0_5Vec2DIdEEERKT_
FNDA:1,_ZNK7fishnet8geometry3RayIiE12intersectionINS0_7SegmentIiEEEESt8optionalINS0_5Vec2DIdEEERKT_
FNDA:2,_ZNK7fishnet8geometry3RayIiE12intersectionIS2_EESt8optionalINS0_5Vec2DIdEEERKT_
FNF:48
FNH:46
DA:21,10
DA:22,10
DA:25,3
DA:26,3
DA:29,4794
DA:30,4794
DA:33,3
DA:34,3
DA:37,4828
DA:38,4828
DA:39,1
DA:40,4827
DA:43,3
DA:46,2
DA:48,40
DA:49,40
DA:52,26
DA:53,26
DA:56,296699
DA:57,296699
DA:60,3
DA:61,3
DA:64,1
DA:65,1
DA:68,10
DA:69,10
DA:72,8
DA:73,8
DA:76,13780
DA:78,13780
DA:79,1
DA:80,13779
DA:81,16
DA:83,13763
DA:84,13748
DA:86,15
DA:87,15
DA:88,15
DA:92,8
DA:93,8
DA:96,5
DA:97,5
DA:100,2
DA:101,2
DA:111,4
DA:112,4
DA:113,4
DA:114,4
LF:48
LH:48
end_of_record
TN:
SF:/home/lolo/Documents/fishnet/lib/geometry/objects/linear/include/fishnet/Segment.hpp
FN:106,108,_ZNK7fishnet8geometry7SegmentIiE10hasOverlayIdEEbRKNS1_IT_EE
FN:106,108,_ZNK7fishnet8geometry7SegmentIiE10hasOverlayIiEEbRKNS1_IT_EE
FN:111,113,_ZNK7fishnet8geometry7SegmentIdE15containsSegmentIdEEbRKNS1_IT_EE
FN:111,113,_ZNK7fishnet8geometry7SegmentIdE15containsSegmentIiEEbRKNS1_IT_EE
FN:111,113,_ZNK7fishnet8geometry7SegmentIiE15containsSegmentIdEEbRKNS1_IT_EE
FN:111,113,_ZNK7fishnet8geometry7SegmentIiE15containsSegmentIiEEbRKNS1_IT_EE
FN:125,129,_ZNK7fishnet8geometry7SegmentIdE7touchesIdEEbRKNS1_IT_EE
FN:125,129,_ZNK7fishnet8geometry7SegmentIiE7touchesIdEEbRKNS1_IT_EE
FN:125,129,_ZNK7fishnet8geometry7SegmentIiE7touchesIiEEbRKNS1_IT_EE
FN:132,134,_ZNK7fishnet8geometry7SegmentIdEeqIdEEbRKNS1_IT_EE
FN:132,134,_ZNK7fishnet8geometry7SegmentIdEeqIfEEbRKNS1_IT_EE
FN:132,134,_ZNK7fishnet8geometry7SegmentIdEeqIiEEbRKNS1_IT_EE
FN:132,134,_ZNK7fishnet8geometry7SegmentIiEeqIdEEbRKNS1_IT_EE
FN:132,134,_ZNK7fishnet8geometry7SegmentIiEeqIiEEbRKNS1_IT_EE
FN:136,153,_ZNK7fishnet8geometry7SegmentIdE8containsINS0_5Vec2DIdEEEEbRKT_
FN:136,153,_ZNK7fishnet8geometry7SegmentIdE8containsINS0_5Vec2DIiEEEEbRKT_
FN:136,153,_ZNK7fishnet8geometry7SegmentIiE8containsINS0_5Vec2DIdEEEEbRKT_
FN:136,153,_ZNK7fishnet8geometry7SegmentIiE8containsINS0_5Vec2DIiEEEEbRKT_
FN:155,162,_ZNK7fishnet8geometry7SegmentIdE8distanceINS0_5Vec2DIdEEEEdRKT_
FN:155,162,_ZNK7fishnet8geometry7SegmentIdE8distanceINS0_5Vec2DIiEEEEdRKT_
FN:155,162,_ZNK7fishnet8geometry7SegmentIiE8distanceINS0_5Vec2DIdEEEEdRKT_
FN:155,162,_ZNK7fishnet8geometry7SegmentIiE8distanceINS0_5Vec2DIiEEEEdRKT_
FN:165,173,_ZNK7fishnet8geometry7SegmentIdE8distanceIdEEdRKNS1_IT_EE
FN:165,173,_ZNK7fishnet8geometry7SegmentIdE8distanceIiEEdRKNS1_IT_EE
FN:165,173,_ZNK7fishnet8geometry7SegmentIiE8distanceIdEEdRKNS1_IT_EE
FN:175,177,_ZNK7fishnet8geometry7SegmentIdE12intersectionINS0_3RayIdEEEEDaRKT_
FN:175,177,_ZNK7fishnet8geometry7SegmentIdE12intersectionINS0_3RayIiEEEEDaRKT_
FN:175,177,_ZNK7fishnet8geometry7SegmentIdE12intersectionINS0_4LineIdEEEEDaRKT_
FN:175,177,_ZNK7fishnet8geometry7SegmentIdE12intersectionINS0_4LineIiEEEEDaRKT_
FN:175,177,_ZNK7fishnet8geometry7SegmentIdE12intersectionINS1_IiEEEEDaRKT_
FN:175,177,_ZNK7fishnet8geometry7SegmentIdE12intersectionIS2_EEDaRKT_
FN:175,177,_ZNK7fishnet8geometry7SegmentIiE12intersectionINS0_3RayIiEEEEDaRKT_
FN:175,177,_ZNK7fishnet8geometry7SegmentIiE12intersectionINS0_4LineIdEEEEDaRKT_
FN:175,177,_ZNK7fishnet8geometry7SegmentIiE12intersectionINS0_4LineIiEEEEDaRKT_
FN:175,177,_ZNK7fishnet8geometry7SegmentIiE12intersectionINS1_IdEEEEDaRKT_
FN:175,177,_ZNK7fishnet8geometry7SegmentIiE12intersectionIS2_EEDaRKT_
FN:179,181,_ZNK7fishnet8geometry7SegmentIdE8toStringB5cxx11Ev
FN:179,181,_ZNK7fishnet8geometry7SegmentIiE8toStringB5cxx11Ev
FN:190,192,_ZNKSt4hashIN7fishnet8geometry7SegmentIdEEEclERKS3_
FN:190,192,_ZNKSt4hashIN7fishnet8geometry7SegmentIiEEEclERKS3_
FN:24,24,_ZN7fishnet8geometry7SegmentIdEC1ENS0_5Vec2DIdEES4_
FN:24,24,_ZN7fishnet8geometry7SegmentIdEC2ENS0_5Vec2DIdEES4_
FN:24,24,_ZN7fishnet8geometry7SegmentIfEC2ENS0_5Vec2DIfEES4_
FN:24,24,_ZN7fishnet8geometry7SegmentIiEC1ENS0_5Vec2DIiEES4_
FN:24,24,_ZN7fishnet8geometry7SegmentIiEC2ENS0_5Vec2DIiEES4_
FN:27,27,_ZN7fishnet8geometry7SegmentIdEC1IivEENS0_5Vec2DIdEENS4_IT_EE
FN:27,27,_ZN7fishnet8geometry7SegmentIdEC1IlvEENS0_5Vec2DIdEENS4_IT_EE
FN:30,30,_ZN7fishnet8geometry7SegmentIdEC1IivEENS0_5Vec2DIT_EENS4_IdEE
FN:32,34,_ZNK7fishnet8geometry7SegmentIdE1pEv
FN:32,34,_ZNK7fishnet8geometry7SegmentIfE1pEv
FN:32,34,_ZNK7fishnet8geometry7SegmentIiE1pEv
FN:36,38,_ZNK7fishnet8geometry7SegmentIdE1qEv
FN:36,38,_ZNK7fishnet8geometry7SegmentIfE1qEv
FN:36,38,_ZNK7fishnet8geometry7SegmentIiE1qEv
FN:40,42,_ZNK7fishnet8geometry7SegmentIdE4flipEv
FN:40,42,_ZNK7fishnet8geometry7SegmentIiE4flipEv
FN:44,46,_ZNK7fishnet8geometry7SegmentIdE9directionEv
FN:44,46,_ZNK7fishnet8geometry7SegmentIiE9directionEv
FN:48,52,_ZNK7fishnet8geometry7SegmentIdE13upperEndpointEv
FN:48,52,_ZNK7fishnet8geometry7SegmentIiE13upperEndpointEv
FN:54,58,_ZNK7fishnet8geometry7SegmentIdE13lowerEndpointEv
FN:54,58,_ZNK7fishnet8geometry7SegmentIiE13lowerEndpointEv
FN:60,64,_ZNK7fishnet8geometry7SegmentIdE12leftEndpointEv
FN:60,64,_ZNK7fishnet8geometry7SegmentIiE12leftEndpointEv
FN:66,70,_ZNK7fishnet8geometry7SegmentIdE13rightEndpointEv
FN:66,70,_ZNK7fishnet8geometry7SegmentIiE13rightEndpointEv
FN:72,74,_ZNK7fishnet8geometry7SegmentIdE10isEndpointINS0_5Vec2DIdEEEEbRKT_
FN:72,74,_ZNK7fishnet8geometry7SegmentIiE10isEndpointINS0_5Vec2DIdEEEEbRKT_
FN:76,78,_ZNK7fishnet8geometry7SegmentIdE6lengthEv
FN:76,78,_ZNK7fishnet8geometry7SegmentIiE6lengthEv
FN:80,82,_ZNK7fishnet8geometry7SegmentIdE7isValidEv
FN:80,82,_ZNK7fishnet8geometry7SegmentIiE7isValidEv
FN:84,86,_ZNK7fishnet8geometry7SegmentIdE6toLineEv
FN:84,86,_ZNK7fishnet8geometry7SegmentIiE6toLineEv
FN:88,90,_ZNK7fishnet8geometry7SegmentIdE10isParallelINS1_IiEEEEbRKT_
FN:88,90,_ZNK7fishnet8geometry7SegmentIdE10isParallelIS2_EEbRKT_
FN:88,90,_ZNK7fishnet8geometry7SegmentIiE10isParallelINS0_4LineIiEEEEbRKT_
FN:88,90,_ZNK7fishnet8geometry7SegmentIiE10isParallelINS1_IdEEEEbRKT_
FN:88,90,_ZNK7fishnet8geometry7SegmentIiE10isParallelIS2_EEbRKT_
FN:92,94,_ZNK7fishnet8geometry7SegmentIdE10intersectsIS2_EEbRKT_
FN:92,94,_ZNK7fishnet8geometry7SegmentIiE10intersectsINS0_4LineIdEEEEbRKT_
FN:92,94,_ZNK7fishnet8geometry7SegmentIiE10intersectsIS2_EEbRKT_
FNDA:1,_ZNK7fishnet8geometry7SegmentIiE10hasOverlayIdEEbRKNS1_IT_EE
FNDA:5,_ZNK7fishnet8geometry7SegmentIiE10hasOverlayIiEEbRKNS1_IT_EE
FNDA:377382,_ZNK7fishnet8geometry7SegmentIdE15containsSegmentIdEEbRKNS1_IT_EE
FNDA:353,_ZNK7fishnet8geometry7SegmentIdE15containsSegmentIiEEbRKNS1_IT_EE
FNDA:44,_ZNK7fishnet8geometry7SegmentIiE15containsSegmentIdEEbRKNS1_IT_EE
FNDA:418,_ZNK7fishnet8geometry7SegmentIiE15containsSegmentIiEEbRKNS1_IT_EE
FNDA:40819,_ZNK7fishnet8geometry7SegmentIdE7touchesIdEEbRKNS1_IT_EE
FNDA:2,_ZNK7fishnet8geometry7SegmentIiE7touchesIdEEbRKNS1_IT_EE
FNDA:213,_ZNK7fishnet8geometry7SegmentIiE7touchesIiEEbRKNS1_IT_EE
FNDA:6558,_ZNK7fishnet8geometry7SegmentIdEeqIdEEbRKNS1_IT_EE
FNDA:1,_ZNK7fishnet8geometry7SegmentIdEeqIfEEbRKNS1_IT_EE
FNDA:7,_ZNK7fishnet8geometry7SegmentIdEeqIiEEbRKNS1_IT_EE
FNDA:3,_ZNK7fishnet8geometry7SegmentIiEeqIdEEbRKNS1_IT_EE
FNDA:56,_ZNK7fishnet8geometry7SegmentIiEeqIiEEbRKNS1_IT_EE
FNDA:1288248,_ZNK7fishnet8geometry7SegmentIdE8containsINS0_5Vec2DIdEEEEbRKT_
FNDA:536,_ZNK7fishnet8geometry7SegmentIdE8containsINS0_5Vec2DIiEEEEbRKT_
FNDA:678,_ZNK7fishnet8geometry7SegmentIiE8containsINS0_5Vec2DIdEEEEbRKT_
FNDA:23,_ZNK7fishnet8geometry7SegmentIiE8containsINS0_5Vec2DIiEEEEbRKT_
FNDA:8,_ZNK7fishnet8geometry7SegmentIdE8distanceINS0_5Vec2DIdEEEEdRKT_
FNDA:8,_ZNK7fishnet8geometry7SegmentIdE8distanceINS0_5Vec2DIiEEEEdRKT_
FNDA:9,_ZNK7fishnet8geometry7SegmentIiE8distanceINS0_5Vec2DIdEEEEdRKT_
FNDA:4,_ZNK7fishnet8geometry7SegmentIiE8distanceINS0_5Vec2DIiEEEEdRKT_
FNDA:2,_ZNK7fishnet8geometry7SegmentIdE8distanceIdEEdRKNS1_IT_EE
FNDA:1,_ZNK7fishnet8geometry7SegmentIdE8distanceIiEEdRKNS1_IT_EE
FNDA:3,_ZNK7fishnet8geometry7SegmentIiE8distanceIdEEdRKNS1_IT_EE
FNDA:296596,_ZNK7fishnet8geometry7SegmentIdE12intersectionINS0_3RayIdEEEEDaRKT_
FNDA:38,_ZNK7fishnet8geometry7SegmentIdE12intersectionINS0_3RayIiEEEEDaRKT_
FNDA:375852,_ZNK7fishnet8geometry7SegmentIdE12intersectionINS0_4LineIdEEEEDaRKT_
FNDA:54,_ZNK7fishnet8geometry7SegmentIdE12intersectionINS0_4LineIiEEEEDaRKT_
FNDA:577,_ZNK7fishnet8geometry7SegmentIdE12intersectionINS1_IiEEEEDaRKT_
FNDA:422756,_ZNK7fishnet8geometry7SegmentIdE12intersectionIS2_EEDaRKT_
FNDA:42,_ZNK7fishnet8geometry7SegmentIiE12intersectionINS0_3RayIiEEEEDaRKT_
FNDA:50,_ZNK7fishnet8geometry7SegmentIiE12intersectionINS0_4LineIdEEEEDaRKT_
FNDA:7,_ZNK7fishnet8geometry7SegmentIiE12intersectionINS0_4LineIiEEEEDaRKT_
FNDA:244,_ZNK7fishnet8geometry7SegmentIiE12intersectionINS1_IdEEEEDaRKT_
FNDA:2,_ZNK7fishnet8geometry7SegmentIiE12intersectionIS2_EEDaRKT_
FNDA:107,_ZNK7fishnet8geometry7SegmentIdE8toStringB5cxx11Ev
FNDA:14,_ZNK7fishnet8geometry7SegmentIiE8toStringB5cxx11Ev
FNDA:255,_ZNKSt4hashIN7fishnet8geometry7SegmentIdEEEclERKS3_
FNDA:6,_ZNKSt4hashIN7fishnet8geometry7SegmentIiEEEclERKS3_
FNDA:2989,_ZN7fishnet8geometry7SegmentIdEC1ENS0_5Vec2DIdEES4_
FNDA:42617,_ZN7fishnet8geometry7SegmentIdEC2ENS0_5Vec2DIdEES4_
FNDA:1,_ZN7fishnet8geometry7SegmentIfEC2ENS0_5Vec2DIfEES4_
FNDA:202,_ZN7fishnet8geometry7SegmentIiEC1ENS0_5Vec2DIiEES4_
FNDA:7,_ZN7fishnet8geometry7SegmentIiEC2ENS0_5Vec2DIiEES4_
FNDA:1,_ZN7fishnet8geometry7SegmentIdEC1IivEENS0_5Vec2DIdEENS4_IT_EE
FNDA:2,_ZN7fishnet8geometry7SegmentIdEC1IlvEENS0_5Vec2DIdEENS4_IT_EE
FNDA:4,_ZN7fishnet8geometry7SegmentIdEC1IivEENS0_5Vec2DIT_EENS4_IdEE
FNDA:1810659,_ZNK7fishnet8geometry7SegmentIdE1pEv
FNDA:1,_ZNK7fishnet8geometry7SegmentIfE1pEv
FNDA:949,_ZNK7fishnet8geometry7SegmentIiE1pEv
FNDA:1227026,_ZNK7fishnet8geometry7SegmentIdE1qEv
FNDA:1,_ZNK7fishnet8geometry7SegmentIfE1qEv
FNDA:600,_ZNK7fishnet8geometry7SegmentIiE1qEv
FNDA:0,_ZNK7fishnet8geometry7SegmentIdE4flipEv
FNDA:9,_ZNK7fishnet8geometry7SegmentIiE4flipEv
FNDA:4055663,_ZNK7fishnet8geometry7SegmentIdE9directionEv
FNDA:3048,_ZNK7fishnet8geometry7SegmentIiE9directionEv
FNDA:4996,_ZNK7fishnet8geometry7SegmentIdE13upperEndpointEv
FNDA:2,_ZNK7fishnet8geometry7SegmentIiE13upperEndpointEv
FNDA:11804,_ZNK7fishnet8geometry7SegmentIdE13lowerEndpointEv
FNDA:26,_ZNK7fishnet8geometry7SegmentIiE13lowerEndpointEv
FNDA:2328,_ZNK7fishnet8geometry7SegmentIdE12leftEndpointEv
FNDA:2,_ZNK7fishnet8geometry7SegmentIiE12leftEndpointEv
FNDA:75737,_ZNK7fishnet8geometry7SegmentIdE13rightEndpointEv
FNDA:2,_ZNK7fishnet8geometry7SegmentIiE13rightEndpointEv
FNDA:16441,_ZNK7fishnet8geometry7SegmentIdE10isEndpointINS0_5Vec2DIdEEEEbRKT_
FNDA:38,_ZNK7fishnet8geometry7SegmentIiE10isEndpointINS0_5Vec2DIdEEEEbRKT_
FNDA:1635949,_ZNK7fishnet8geometry7SegmentIdE6lengthEv
FNDA:1037,_ZNK7fishnet8geometry7SegmentIiE6lengthEv
FNDA:1635948,_ZNK7fishnet8geometry7SegmentIdE7isValidEv
FNDA:1034,_ZNK7fishnet8geometry7SegmentIiE7isValidEv
FNDA:2133728,_ZNK7fishnet8geometry7SegmentIdE6toLineEv
FNDA:1184,_ZNK7fishnet8geometry7SegmentIiE6toLineEv
FNDA:353,_ZNK7fishnet8geometry7SegmentIdE10isParallelINS1_IiEEEEbRKT_
FNDA:377382,_ZNK7fishnet8geometry7SegmentIdE10isParallelIS2_EEbRKT_
FNDA:2,_ZNK7fishnet8geometry7SegmentIiE10isParallelINS0_4LineIiEEEEbRKT_
FNDA:45,_ZNK7fishnet8geometry7SegmentIiE10isParallelINS1_IdEEEEbRKT_
FNDA:426,_ZNK7fishnet8geometry7SegmentIiE10isParallelIS2_EEbRKT_
FNDA:307419,_ZNK7fishnet8geometry7SegmentIdE10intersectsIS2_EEbRKT_
FNDA:2,_ZNK7fishnet8geometry7SegmentIiE10intersectsINS0_4LineIdEEEEbRKT_
FNDA:125,_ZNK7fishnet8geometry7SegmentIiE10intersectsIS2_EEbRKT_
FNF:82
FNH:81
DA:24,45816
DA:27,3
DA:30,4
DA:32,1811609
DA:33,1811609
DA:36,1227627
DA:37,1227627
DA:40,9
DA:41,9
DA:44,4058711
DA:45,4058711
DA:48,4998
DA:49,4998
DA:50,2493
DA:51,2505
DA:54,11830
DA:55,11830
DA:56,2421
DA:57,9409
DA:60,2330
DA:61,2330
DA:62,1165
DA:63,1165
DA:66,75739
DA:67,75739
DA:68,40047
DA:69,35692
DA:72,16479
DA:73,16479
DA:76,1636986
DA:77,1636986
DA:80,1636982
DA:81,1636982
DA:84,2134912
DA:85,2134912
DA:88,378208
DA:89,378208
DA:92,307546
DA:93,307546
DA:106,6
DA:107,6
DA:111,378197
DA:112,378197
DA:125,41034
DA:126,81989
DA:127,41028
DA:128,82068
DA:132,6625
DA:133,6625
DA:136,1289485
DA:138,1289485
DA:139,1289485
DA:140,2
DA:141,1289483
DA:142,1289483
DA:143,476711
DA:144,476711
DA:146,812772
DA:147,361616
DA:148,361616
DA:150,451156
DA:151,451156
DA:152,451156
DA:155,29
DA:156,29
DA:157,29
DA:158,29
DA:159,29
DA:160,10
DA:161,19
DA:165,6
DA:166,24
DA:167,6
DA:168,6
DA:169,6
DA:170,6
DA:172,6
DA:175,1096218
DA:176,1096218
DA:179,121
DA:180,121
DA:190,261
DA:191,261
LF:83
LH:83
end_of_record
TN:
SF:/home/lolo/Documents/fishnet/lib/geometry/objects/shapes/include/fishnet/Polygon.hpp
FN:108,117,_ZNK7fishnet8geometry7PolygonIdE8centroidEv
FN:119,122,_ZNK7fishnet8geometry7PolygonIdE8containsINS0_5Vec2DIdEEEEbRKT_
FN:119,122,_ZNK7fishnet8geometry7PolygonIdE8containsINS0_5Vec2DIiEEEEbRKT_
FN:124,126,_ZNK7fishnet8geometry7PolygonIdE8containsINS0_7SegmentIdEEEEbRKT_
FN:125,125,_ZZNK7fishnet8geometry7PolygonIdE8containsINS0_7SegmentIdEEEEbRKT_ENKUlS8_E_clINS0_4RingIdEEEEDaS8_
FN:128,130,_ZNK7fishnet8geometry7PolygonIdE8isInsideINS0_5Vec2DIdEEEEbRKT_
FN:128,130,_ZNK7fishnet8geometry7PolygonIdE8isInsideINS0_5Vec2DIiEEEEbRKT_
FN:132,134,_ZNK7fishnet8geometry7PolygonIdE12isOnBoundaryINS0_5Vec2DIiEEEEbRKT_
FN:136,138,_ZNK7fishnet8geometry7PolygonIdE9isOutsideINS0_5Vec2DIdEEEEbRKT_
FN:136,138,_ZNK7fishnet8geometry7PolygonIdE9isOutsideINS0_5Vec2DIiEEEEbRKT_
FN:140,144,_ZNK7fishnet8geometry7PolygonIdE10intersectsINS0_4LineIdEEEEbRKT_
FN:140,144,_ZNK7fishnet8geometry7PolygonIdE10intersectsINS0_7SegmentIdEEEEbRKT_
FN:141,141,_ZZNK7fishnet8geometry7PolygonIdE10intersectsINS0_4LineIdEEEEbRKT_ENKUlS8_E_clINS0_4RingIdEEEEDaS8_
FN:141,141,_ZZNK7fishnet8geometry7PolygonIdE10intersectsINS0_7SegmentIdEEEEbRKT_ENKUlS8_E_clINS0_4RingIdEEEEDaS8_
FN:146,153,_ZNK7fishnet8geometry7PolygonIdE13intersectionsINS0_4LineIdEEEEDaRKT_
FN:146,153,_ZNK7fishnet8geometry7PolygonIdE13intersectionsINS0_7SegmentIdEEEEDaRKT_
FN:148,148,_ZZNK7fishnet8geometry7PolygonIdE13intersectionsINS0_4LineIdEEEEDaRKT_ENKUlS8_E_clINS0_5Vec2DIdEEEEDaS8_
FN:148,148,_ZZNK7fishnet8geometry7PolygonIdE13intersectionsINS0_7SegmentIdEEEEDaRKT_ENKUlS8_E_clINS0_5Vec2DIdEEEEDaS8_
FN:149,149,_ZZNK7fishnet8geometry7PolygonIdE13intersectionsINS0_4LineIdEEEEDaRKT_ENKUlS8_E0_clINS0_4RingIdEEEEDaS8_
FN:149,149,_ZZNK7fishnet8geometry7PolygonIdE13intersectionsINS0_7SegmentIdEEEEDaRKT_ENKUlS8_E0_clINS0_4RingIdEEEEDaS8_
FN:150,150,_ZZZNK7fishnet8geometry7PolygonIdE13intersectionsINS0_4LineIdEEEEDaRKT_ENKUlS8_E0_clINS0_4RingIdEEEEDaS8_ENKUlS8_E_clINS0_5Vec2DIdEEEEDaS8_
FN:150,150,_ZZZNK7fishnet8geometry7PolygonIdE13intersectionsINS0_7SegmentIdEEEEDaRKT_ENKUlS8_E0_clINS0_4RingIdEEEEDaS8_ENKUlS8_E_clINS0_5Vec2DIdEEEEDaS8_
FN:155,159,_ZNK7fishnet8geometry7PolygonIdE8isInHoleINS0_13SimplePolygonIdEEEEbRKT_
FN:155,159,_ZNK7fishnet8geometry7PolygonIdE8isInHoleIS2_EEbRKT_
FN:156,156,_ZZNK7fishnet8geometry7PolygonIdE8isInHoleINS0_13SimplePolygonIdEEEEbRKT_ENKUlS8_E_clINS0_4RingIdEEEEDaS8_
FN:156,156,_ZZNK7fishnet8geometry7PolygonIdE8isInHoleIS2_EEbRKT_ENKUlS6_E_clINS0_4RingIdEEEEDaS6_
FN:161,170,_ZNK7fishnet8geometry7PolygonIdE8containsINS0_13SimplePolygonIdEEEEbRKT_
FN:161,170,_ZNK7fishnet8geometry7PolygonIdE8containsIS2_EEbRKT_
FN:166,166,_ZZNK7fishnet8geometry7PolygonIdE8containsINS0_13SimplePolygonIdEEEEbRKT_ENKUlS8_E_clINS0_4RingIdEEEEDaS8_
FN:166,166,_ZZNK7fishnet8geometry7PolygonIdE8containsIS2_EEbRKT_ENKUlS6_E_clINS0_4RingIdEEEEDaS6_
FN:172,178,_ZNK7fishnet8geometry7PolygonIdE7crossesINS0_13SimplePolygonIdEEEEbRKT_
FN:172,178,_ZNK7fishnet8geometry7PolygonIdE7crossesIS2_EEbRKT_
FN:175,175,_ZZNK7fishnet8geometry7PolygonIdE7crossesINS0_13SimplePolygonIdEEEEbRKT_ENKUlS8_E_clINS0_4RingIdEEEEDaS8_
FN:175,175,_ZZNK7fishnet8geometry7PolygonIdE7crossesIS2_EEbRKT_ENKUlS6_E_clINS0_4RingIdEEEEDaS6_
FN:180,188,_ZNK7fishnet8geometry7PolygonIdE7touchesINS0_13SimplePolygonIdEEEEbRKT_
FN:180,188,_ZNK7fishnet8geometry7PolygonIdE7touchesIS2_EEbRKT_
FN:183,183,_ZZNK7fishnet8geometry7PolygonIdE7touchesINS0_13SimplePolygonIdEEEEbRKT_ENKUlS8_E_clINS0_4RingIdEEEEDaS8_
FN:183,183,_ZZNK7fishnet8geometry7PolygonIdE7touchesIS2_EEbRKT_ENKUlS6_E_clINS0_4RingIdEEEEDaS6_
FN:184,184,_ZZZNK7fishnet8geometry7PolygonIdE7touchesINS0_13SimplePolygonIdEEEEbRKT_ENKUlS8_E_clINS0_4RingIdEEEEDaS8_ENKUlS8_E_clINS0_5Vec2DIdEEEEDaS8_
FN:184,184,_ZZZNK7fishnet8geometry7PolygonIdE7touchesIS2_EEbRKT_ENKUlS6_E_clINS0_4RingIdEEEEDaS6_ENKUlS6_E_clINS0_5Vec2DIdEEEEDaS6_
FN:190,201,_ZNK7fishnet8geometry7PolygonIdE8distanceINS0_13SimplePolygonIdEEEEdRKT_
FN:190,201,_ZNK7fishnet8geometry7PolygonIdE8distanceIS2_EEdRKT_
FN:203,205,_ZNK7fishnet8geometry7PolygonIdEeqINS0_13SimplePolygonIdEEEEbRKT_
FN:203,205,_ZNK7fishnet8geometry7PolygonIdEeqIS2_EEbRKT_
FN:207,220,_ZNK7fishnet8geometry7PolygonIdE8toStringB5cxx11Ev
FN:25,35,_ZNK7fishnet8geometry7PolygonIdE20polygonPointLocationINS0_5Vec2DIdEEEENS0_13PointLocationERKT_
FN:25,35,_ZNK7fishnet8geometry7PolygonIdE20polygonPointLocationINS0_5Vec2DIiEEEENS0_13PointLocationERKT_
FN:30,30,_ZZNK7fishnet8geometry7PolygonIdE20polygonPointLocationINS0_5Vec2DIdEEEENS0_13PointLocationERKT_ENKUlS9_E_clINS0_4RingIdEEEEDaS9_
FN:30,30,_ZZNK7fishnet8geometry7PolygonIdE20polygonPointLocationINS0_5Vec2DIiEEEENS0_13PointLocationERKT_ENKUlS9_E_clINS0_4RingIdEEEEDaS9_
FN:37,41,_ZN7fishnet8geometry7PolygonIdE9copyRingsINSt6ranges14transform_viewINS4_8ref_viewIKSt6vectorINS0_4RingIdEESaIS9_EEEEZNS_14WGS84Ellipsoid4areaIS2_EEdRKT_EUlSI_E_EEEESB_SI_
FN:37,41,_ZN7fishnet8geometry7PolygonIdE9copyRingsINSt7__cxx114listINS0_13SimplePolygonIdEESaIS7_EEEEESt6vectorINS0_4RingIdEESaISC_EERKT_
FN:37,41,_ZN7fishnet8geometry7PolygonIdE9copyRingsINSt7__cxx114listINS0_4RingIdEESaIS7_EEEEESt6vectorIS7_S8_ERKT_
FN:37,41,_ZN7fishnet8geometry7PolygonIdE9copyRingsISt6vectorINS0_13SimplePolygonIdEESaIS6_EEEES4_INS0_4RingIdEESaISA_EERKT_
FN:53,61,_ZN7fishnet8geometry7PolygonIdEC2ERKNS0_4RingIdEERKSt6vectorIS4_SaIS4_EE
FN:53,61,_ZN7fishnet8geometry7PolygonIiEC2ERKNS0_4RingIiEERKSt6vectorIS4_SaIS4_EE
FN:54,54,_ZZN7fishnet8geometry7PolygonIdEC4ERKNS0_4RingIdEERKSt6vectorIS4_SaIS4_EEENKUlRKT_E_clIS4_EEDaSE_
FN:54,54,_ZZN7fishnet8geometry7PolygonIiEC4ERKNS0_4RingIiEERKSt6vectorIS4_SaIS4_EEENKUlRKT_E_clIS4_EEDaSE_
FN:56,56,_ZZN7fishnet8geometry7PolygonIdEC4ERKNS0_4RingIdEERKSt6vectorIS4_SaIS4_EEENKUlRKT_E0_clIS4_EEDaSE_
FN:56,56,_ZZN7fishnet8geometry7PolygonIiEC4ERKNS0_4RingIiEERKSt6vectorIS4_SaIS4_EEENKUlRKT_E0_clIS4_EEDaSE_
FN:57,57,_ZZZN7fishnet8geometry7PolygonIdEC4ERKNS0_4RingIdEERKSt6vectorIS4_SaIS4_EEENKUlRKT_E0_clIS4_EEDaSE_ENKUlSE_E_clIS4_EEDaSE_
FN:57,57,_ZZZN7fishnet8geometry7PolygonIiEC4ERKNS0_4RingIiEERKSt6vectorIS4_SaIS4_EEENKUlRKT_E0_clIS4_EEDaSE_ENKUlSE_E_clIS4_EEDaSE_
FN:63,63,_ZN7fishnet8geometry7PolygonIdEC2INSt6ranges14transform_viewINS4_8ref_viewIKSt6vectorINS0_4RingIdEESaIS9_EEEEZNS_14WGS84Ellipsoid4areaIS2_EEdRKT_EUlSI_E_EEEERKS9_SI_
FN:63,63,_ZN7fishnet8geometry7PolygonIdEC2INSt7__cxx114listINS0_13SimplePolygonIdEESaIS7_EEEEERKNS0_4RingIdEERKT_
FN:63,63,_ZN7fishnet8geometry7PolygonIdEC2INSt7__cxx114listINS0_4RingIdEESaIS7_EEEEERKS7_RKT_
FN:63,63,_ZN7fishnet8geometry7PolygonIdEC2ISt6vectorINS0_13SimplePolygonIdEESaIS6_EEEERKNS0_4RingIdEERKT_
FN:65,65,_ZN7fishnet8geometry7PolygonIdEC2ERKNS0_13SimplePolygonIdEERKSt6vectorINS0_4RingIdEESaIS9_EE
FN:67,67,_ZN7fishnet8geometry7PolygonIdEC2INSt7__cxx114listINS0_4RingIdEESaIS7_EEEEERKNS0_13SimplePolygonIdEERKT_
FN:67,67,_ZN7fishnet8geometry7PolygonIdEC2ISt6vectorINS0_13SimplePolygonIdEESaIS6_EEEERKS6_RKT_
FN:69,71,_ZNK7fishnet8geometry7PolygonIdE11getBoundaryEv
FN:73,75,_ZNK7fishnet8geometry7PolygonIdE8getHolesEv
FN:73,75,_ZNK7fishnet8geometry7PolygonIiE8getHolesEv
FN:82,84,_ZNK7fishnet8geometry7PolygonIdE8isSimpleEv
FN:86,88,_ZNK7fishnet8geometry7PolygonIdE8toSimpleEv
FN:95,101,_ZNK7fishnet8geometry7PolygonIdE4areaEv
FNDA:1,_ZNK7fishnet8geometry7PolygonIdE8centroidEv
FNDA:3,_ZNK7fishnet8geometry7PolygonIdE8containsINS0_5Vec2DIdEEEEbRKT_
FNDA:2,_ZNK7fishnet8geometry7PolygonIdE8containsINS0_5Vec2DIiEEEEbRKT_
FNDA:4,_ZNK7fishnet8geometry7PolygonIdE8containsINS0_7SegmentIdEEEEbRKT_
FNDA:5,_ZZNK7fishnet8geometry7PolygonIdE8containsINS0_7SegmentIdEEEEbRKT_ENKUlS8_E_clINS0_4RingIdEEEEDaS8_
FNDA:4,_ZNK7fishnet8geometry7PolygonIdE8isInsideINS0_5Vec2DIdEEEEbRKT_
FNDA:10,_ZNK7fishnet8geometry7PolygonIdE8isInsideINS0_5Vec2DIiEEEEbRKT_
FNDA:2,_ZNK7fishnet8geometry7PolygonIdE12isOnBoundaryINS0_5Vec2DIiEEEEbRKT_
FNDA:2,_ZNK7fishnet8geometry7PolygonIdE9isOutsideINS0_5Vec2DIdEEEEbRKT_
FNDA:2,_ZNK7fishnet8geometry7PolygonIdE9isOutsideINS0_5Vec2DIiEEEEbRKT_
FNDA:3,_ZNK7fishnet8geometry7PolygonIdE10intersectsINS0_4LineIdEEEEbRKT_
FNDA:3,_ZNK7fishnet8geometry7PolygonIdE10intersectsINS0_7SegmentIdEEEEbRKT_
FNDA:4,_ZZNK7fishnet8geometry7PolygonIdE10intersectsINS0_4LineIdEEEEbRKT_ENKUlS8_E_clINS0_4RingIdEEEEDaS8_
FNDA:3,_ZZNK7fishnet8geometry7PolygonIdE10intersectsINS0_7SegmentIdEEEEbRKT_ENKUlS8_E_clINS0_4RingIdEEEEDaS8_
FNDA:1,_ZNK7fishnet8geometry7PolygonIdE13intersectionsINS0_4LineIdEEEEDaRKT_
FNDA:1,_ZNK7fishnet8geometry7PolygonIdE13intersectionsINS0_7SegmentIdEEEEDaRKT_
FNDA:3,_ZZNK7fishnet8geometry7PolygonIdE13intersectionsINS0_4LineIdEEEEDaRKT_ENKUlS8_E_clINS0_5Vec2DIdEEEEDaS8_
FNDA:1,_ZZNK7fishnet8geometry7PolygonIdE13intersectionsINS0_7SegmentIdEEEEDaRKT_ENKUlS8_E_clINS0_5Vec2DIdEEEEDaS8_
FNDA:2,_ZZNK7fishnet8geometry7PolygonIdE13intersectionsINS0_4LineIdEEEEDaRKT_ENKUlS8_E0_clINS0_4RingIdEEEEDaS8_
FNDA:2,_ZZNK7fishnet8geometry7PolygonIdE13intersectionsINS0_7SegmentIdEEEEDaRKT_ENKUlS8_E0_clINS0_4RingIdEEEEDaS8_
FNDA:3,_ZZZNK7fishnet8geometry7PolygonIdE13intersectionsINS0_4LineIdEEEEDaRKT_ENKUlS8_E0_clINS0_4RingIdEEEEDaS8_ENKUlS8_E_clINS0_5Vec2DIdEEEEDaS8_
FNDA:1,_ZZZNK7fishnet8geometry7PolygonIdE13intersectionsINS0_7SegmentIdEEEEDaRKT_ENKUlS8_E0_clINS0_4RingIdEEEEDaS8_ENKUlS8_E_clINS0_5Vec2DIdEEEEDaS8_
FNDA:16,_ZNK7fishnet8geometry7PolygonIdE8isInHoleINS0_13SimplePolygonIdEEEEbRKT_
FNDA:15,_ZNK7fishnet8geometry7PolygonIdE8isInHoleIS2_EEbRKT_
FNDA:27,_ZZNK7fishnet8geometry7PolygonIdE8isInHoleINS0_13SimplePolygonIdEEEEbRKT_ENKUlS8_E_clINS0_4RingIdEEEEDaS8_
FNDA:19,_ZZNK7fishnet8geometry7PolygonIdE8isInHoleIS2_EEbRKT_ENKUlS6_E_clINS0_4RingIdEEEEDaS6_
FNDA:6,_ZNK7fishnet8geometry7PolygonIdE8containsINS0_13SimplePolygonIdEEEEbRKT_
FNDA:9,_ZNK7fishnet8geometry7PolygonIdE8containsIS2_EEbRKT_
FNDA:2,_ZZNK7fishnet8geometry7PolygonIdE8containsINS0_13SimplePolygonIdEEEEbRKT_ENKUlS8_E_clINS0_4RingIdEEEEDaS8_
FNDA:3,_ZZNK7fishnet8geometry7PolygonIdE8containsIS2_EEbRKT_ENKUlS6_E_clINS0_4RingIdEEEEDaS6_
FNDA:6,_ZNK7fishnet8geometry7PolygonIdE7crossesINS0_13SimplePolygonIdEEEEbRKT_
FNDA:8,_ZNK7fishnet8geometry7PolygonIdE7crossesIS2_EEbRKT_
FNDA:3,_ZZNK7fishnet8geometry7PolygonIdE7crossesINS0_13SimplePolygonIdEEEEbRKT_ENKUlS8_E_clINS0_4RingIdEEEEDaS8_
FNDA:10,_ZZNK7fishnet8geometry7PolygonIdE7crossesIS2_EEbRKT_ENKUlS6_E_clINS0_4RingIdEEEEDaS6_
FNDA:4,_ZNK7fishnet8geometry7PolygonIdE7touchesINS0_13SimplePolygonIdEEEEbRKT_
FNDA:4,_ZNK7fishnet8geometry7PolygonIdE7touchesIS2_EEbRKT_
FNDA:5,_ZZNK7fishnet8geometry7PolygonIdE7touchesINS0_13SimplePolygonIdEEEEbRKT_ENKUlS8_E_clINS0_4RingIdEEEEDaS8_
FNDA:2,_ZZNK7fishnet8geometry7PolygonIdE7touchesIS2_EEbRKT_ENKUlS6_E_clINS0_4RingIdEEEEDaS6_
FNDA:6,_ZZZNK7fishnet8geometry7PolygonIdE7touchesINS0_13SimplePolygonIdEEEEbRKT_ENKUlS8_E_clINS0_4RingIdEEEEDaS8_ENKUlS8_E_clINS0_5Vec2DIdEEEEDaS8_
FNDA:0,_ZZZNK7fishnet8geometry7PolygonIdE7touchesIS2_EEbRKT_ENKUlS6_E_clINS0_4RingIdEEEEDaS6_ENKUlS6_E_clINS0_5Vec2DIdEEEEDaS6_
FNDA:2,_ZNK7fishnet8geometry7PolygonIdE8distanceINS0_13SimplePolygonIdEEEEdRKT_
FNDA:2,_ZNK7fishnet8geometry7PolygonIdE8distanceIS2_EEdRKT_
FNDA:13,_ZNK7fishnet8geometry7PolygonIdEeqINS0_13SimplePolygonIdEEEEbRKT_
FNDA:7644,_ZNK7fishnet8geometry7PolygonIdEeqIS2_EEbRKT_
FNDA:2,_ZNK7fishnet8geometry7PolygonIdE8toStringB5cxx11Ev
FNDA:9,_ZNK7fishnet8geometry7PolygonIdE20polygonPointLocationINS0_5Vec2DIdEEEENS0_13PointLocationERKT_
FNDA:16,_ZNK7fishnet8geometry7PolygonIdE20polygonPointLocationINS0_5Vec2DIiEEEENS0_13PointLocationERKT_
FNDA:12,_ZZNK7fishnet8geometry7PolygonIdE20polygonPointLocationINS0_5Vec2DIdEEEENS0_13PointLocationERKT_ENKUlS9_E_clINS0_4RingIdEEEEDaS9_
FNDA:13,_ZZNK7fishnet8geometry7PolygonIdE20polygonPointLocationINS0_5Vec2DIiEEEENS0_13PointLocationERKT_ENKUlS9_E_clINS0_4RingIdEEEEDaS9_
FNDA:1,_ZN7fishnet8geometry7PolygonIdE9copyRingsINSt6ranges14transform_viewINS4_8ref_viewIKSt6vectorINS0_4RingIdEESaIS9_EEEEZNS_14WGS84Ellipsoid4areaIS2_EEdRKT_EUlSI_E_EEEESB_SI_
FNDA:1,_ZN7fishnet8geometry7PolygonIdE9copyRingsINSt7__cxx114listINS0_13SimplePolygonIdEESaIS7_EEEEESt6vectorINS0_4RingIdEESaISC_EERKT_
FNDA:2,_ZN7fishnet8geometry7PolygonIdE9copyRingsINSt7__cxx114listINS0_4RingIdEESaIS7_EEEEESt6vectorIS7_S8_ERKT_
FNDA:2,_ZN7fishnet8geometry7PolygonIdE9copyRingsISt6vectorINS0_13SimplePolygonIdEESaIS6_EEEES4_INS0_4RingIdEESaISA_EERKT_
FNDA:4613,_ZN7fishnet8geometry7PolygonIdEC2ERKNS0_4RingIdEERKSt6vectorIS4_SaIS4_EE
FNDA:1,_ZN7fishnet8geometry7PolygonIiEC2ERKNS0_4RingIiEERKSt6vectorIS4_SaIS4_EE
FNDA:291,_ZZN7fishnet8geometry7PolygonIdEC4ERKNS0_4RingIdEERKSt6vectorIS4_SaIS4_EEENKUlRKT_E_clIS4_EEDaSE_
FNDA:0,_ZZN7fishnet8geometry7PolygonIiEC4ERKNS0_4RingIiEERKSt6vectorIS4_SaIS4_EEENKUlRKT_E_clIS4_EEDaSE_
FNDA:288,_ZZN7fishnet8geometry7PolygonIdEC4ERKNS0_4RingIdEERKSt6vectorIS4_SaIS4_EEENKUlRKT_E0_clIS4_EEDaSE_
FNDA:0,_ZZN7fishnet8geometry7PolygonIiEC4ERKNS0_4RingIiEERKSt6vectorIS4_SaIS4_EEENKUlRKT_E0_clIS4_EEDaSE_
FNDA:1391,_ZZZN7fishnet8geometry7PolygonIdEC4ERKNS0_4RingIdEERKSt6vectorIS4_SaIS4_EEENKUlRKT_E0_clIS4_EEDaSE_ENKUlSE_E_clIS4_EEDaSE_
FNDA:0,_ZZZN7fishnet8geometry7PolygonIiEC4ERKNS0_4RingIiEERKSt6vectorIS4_SaIS4_EEENKUlRKT_E0_clIS4_EEDaSE_ENKUlSE_E_clIS4_EEDaSE_
FNDA:1,_ZN7fishnet8geometry7PolygonIdEC2INSt6ranges14transform_viewINS4_8ref_viewIKSt6vectorINS0_4RingIdEESaIS9_EEEEZNS_14WGS84Ellipsoid4areaIS2_EEdRKT_EUlSI_E_EEEERKS9_SI_
FNDA:1,_ZN7fishnet8geometry7PolygonIdEC2INSt7__cxx114listINS0_13SimplePolygonIdEESaIS7_EEEEERKNS0_4RingIdEERKT_
FNDA:1,_ZN7fishnet8geometry7PolygonIdEC2INSt7__cxx114listINS0_4RingIdEESaIS7_EEEEERKS7_RKT_
FNDA:1,_ZN7fishnet8geometry7PolygonIdEC2ISt6vectorINS0_13SimplePolygonIdEESaIS6_EEEERKNS0_4RingIdEERKT_
FNDA:24,_ZN7fishnet8geometry7PolygonIdEC2ERKNS0_13SimplePolygonIdEERKSt6vectorINS0_4RingIdEESaIS9_EE
FNDA:1,_ZN7fishnet8geometry7PolygonIdEC2INSt7__cxx114listINS0_4RingIdEESaIS7_EEEEERKNS0_13SimplePolygonIdEERKT_
FNDA:1,_ZN7fishnet8geometry7PolygonIdEC2ISt6vectorINS0_13SimplePolygonIdEESaIS6_EEEERKS6_RKT_
FNDA:16177,_ZNK7fishnet8geometry7PolygonIdE11getBoundaryEv
FNDA:835,_ZNK7fishnet8geometry7PolygonIdE8getHolesEv
FNDA:1,_ZNK7fishnet8geometry7PolygonIiE8getHolesEv
FNDA:2,_ZNK7fishnet8geometry7PolygonIdE8isSimpleEv
FNDA:2,_ZNK7fishnet8geometry7PolygonIdE8toSimpleEv
FNDA:251,_ZNK7fishnet8geometry7PolygonIdE4areaEv
FNF:74
FNH:70
DA:25,25
DA:26,25
DA:27,25
DA:28,10
DA:30,40
DA:31,25
DA:32,6
DA:33,9
DA:37,6
DA:38,6
DA:39,6
DA:40,6
DA:53,4614
DA:54,4905
DA:55,6
DA:56,4681
DA:57,345
DA:58,1265
DA:59,219
DA:60,3
DA:61,4617
DA:63,4
DA:65,24
DA:67,2
DA:69,16177
DA:70,16177
DA:73,836
DA:74,836
DA:82,2
DA:83,2
DA:86,2
DA:87,2
DA:95,251
DA:96,251
DA:97,259
DA:98,8
DA:100,251
DA:108,1
DA:109,1
DA:110,1
DA:111,1
DA:112,2
DA:113,1
DA:114,1
DA:116,1
DA:119,5
DA:120,5
DA:121,5
DA:124,4
DA:125,9
DA:128,14
DA:129,14
DA:132,2
DA:133,2
DA:136,4
DA:137,4
DA:140,6
DA:141,13
DA:142,7
DA:143,6
DA:146,2
DA:147,2
DA:148,6
DA:149,10
DA:150,8
DA:152,2
DA:155,31
DA:156,108
DA:157,46
DA:158,31
DA:161,15
DA:162,15
DA:163,2
DA:164,13
DA:165,3
DA:166,15
DA:168,5
DA:169,10
DA:172,14
DA:173,14
DA:174,3
DA:175,24
DA:176,13
DA:177,11
DA:180,8
DA:181,8
DA:182,1
DA:183,14
DA:184,13
DA:185,0
DA:186,7
DA:187,7
DA:190,4
DA:191,4
DA:192,3
DA:194,5
DA:195,4
DA:196,1
DA:200,1
DA:203,7657
DA:204,7657
DA:207,2
DA:208,2
DA:209,2
DA:210,2
DA:211,2
DA:212,2
DA:213,4
DA:214,2
DA:215,2
DA:216,2
DA:218,2
DA:219,2
DA:220,2
LF:114
LH:113
end_of_record
TN:
SF:/home/lolo/Documents/fishnet/lib/geometry/objects/shapes/include/fishnet/Rectangle.hpp
FN:19,36,_ZN7fishnet8geometry9RectangleIdE4initEv
FN:39,41,_ZN7fishnet8geometry9RectangleIdEC2INS0_13SimplePolygonIdEEEERKT_
FN:39,41,_ZN7fishnet8geometry9RectangleIdEC2INS0_7PolygonIdEEEERKT_
FN:43,43,_ZN7fishnet8geometry9RectangleIdEC2Edddd
FN:45,48,_ZN7fishnet8geometry9RectangleIdEC2ERKNS0_5Vec2DIdEES6_
FN:45,48,_ZN7fishnet8geometry9RectangleIiEC2ERKNS0_5Vec2DIiEES6_
FN:50,52,_ZNK7fishnet8geometry9RectangleIdE4leftEv
FN:50,52,_ZNK7fishnet8geometry9RectangleIiE4leftEv
FN:54,56,_ZNK7fishnet8geometry9RectangleIdE5rightEv
FN:54,56,_ZNK7fishnet8geometry9RectangleIiE5rightEv
FN:58,60,_ZNK7fishnet8geometry9RectangleIdE3topEv
FN:58,60,_ZNK7fishnet8geometry9RectangleIiE3topEv
FN:62,64,_ZNK7fishnet8geometry9RectangleIdE6bottomEv
FN:62,64,_ZNK7fishnet8geometry9RectangleIiE6bottomEv
FN:81,87,_ZNK7fishnet8geometry9RectangleIiE7overlapIdEEbRKNS1_IT_EE
FN:81,87,_ZNK7fishnet8geometry9RectangleIiE7overlapIiEEbRKNS1_IT_EE
FNDA:21,_ZN7fishnet8geometry9RectangleIdE4initEv
FNDA:21,_ZN7fishnet8geometry9RectangleIdEC2INS0_13SimplePolygonIdEEEERKT_
FNDA:0,_ZN7fishnet8geometry9RectangleIdEC2INS0_7PolygonIdEEEERKT_
FNDA:15,_ZN7fishnet8geometry9RectangleIdEC2Edddd
FNDA:2,_ZN7fishnet8geometry9RectangleIdEC2ERKNS0_5Vec2DIdEES6_
FNDA:3,_ZN7fishnet8geometry9RectangleIiEC2ERKNS0_5Vec2DIiEES6_
FNDA:681,_ZNK7fishnet8geometry9RectangleIdE4leftEv
FNDA:5,_ZNK7fishnet8geometry9RectangleIiE4leftEv
FNDA:165,_ZNK7fishnet8geometry9RectangleIdE5rightEv
FNDA:5,_ZNK7fishnet8geometry9RectangleIiE5rightEv
FNDA:258,_ZNK7fishnet8geometry9RectangleIdE3topEv
FNDA:4,_ZNK7fishnet8geometry9RectangleIiE3topEv
FNDA:359,_ZNK7fishnet8geometry9RectangleIdE6bottomEv
FNDA:3,_ZNK7fishnet8geometry9RectangleIiE6bottomEv
FNDA:2,_ZNK7fishnet8geometry9RectangleIiE7overlapIdEEbRKNS1_IT_EE
FNDA:2,_ZNK7fishnet8geometry9RectangleIiE7overlapIiEEbRKNS1_IT_EE
FNF:16
FNH:15
DA:19,21
DA:20,42
DA:21,21
DA:22,21
DA:23,21
DA:24,21
DA:26,105
DA:27,84
DA:28,0
DA:29,84
DA:30,21
DA:31,84
DA:32,21
DA:33,84
DA:34,0
DA:36,21
DA:39,21
DA:40,21
DA:41,21
DA:43,15
DA:45,5
DA:46,5
DA:47,0
DA:48,5
DA:50,686
DA:51,686
DA:54,170
DA:55,170
DA:58,262
DA:59,262
DA:62,362
DA:63,362
DA:81,4
DA:82,4
DA:83,1
DA:84,3
DA:85,1
DA:86,2
LF:38
LH:35
end_of_record
TN:
SF:/home/lolo/Documents/fishnet/lib/geometry/objects/shapes/include/fishnet/Ring.hpp
FN:104,107,_ZN7fishnet8geometry4RingIdEC2ISt6vectorINS0_7SegmentIdEESaIS6_EEEERKT_
FN:104,107,_ZN7fishnet8geometry4RingIiEC2ISt6vectorINS0_7SegmentIiEESaIS6_EEEERKT_
FN:109,113,_ZN7fishnet8geometry4RingIdEC2EOSt16initializer_listINS0_5Vec2DIdEEE
FN:109,113,_ZN7fishnet8geometry4RingIiEC2EOSt16initializer_listINS0_5Vec2DIiEEE
FN:116,122,_ZNK7fishnet8geometry4RingIiEcvNS1_IT_EEIdEEv
FN:118,118,_ZZNK7fishnet8geometry4RingIiEcvNS1_IT_EEIdEEvENKUlRKS3_E_clINS0_5Vec2DIiEEEEDaS7_
FN:132,134,_ZNK7fishnet8geometry4RingIdE11getSegmentsEv
FN:132,134,_ZNK7fishnet8geometry4RingIiE11getSegmentsEv
FN:136,139,_ZNK7fishnet8geometry4RingIdE9getPointsEv
FN:136,139,_ZNK7fishnet8geometry4RingIiE9getPointsEv
FN:138,138,_ZZNK7fishnet8geometry4RingIdE9getPointsEvENKUlRKT_E_clINS0_7SegmentIdEEEEDaS5_
FN:138,138,_ZZNK7fishnet8geometry4RingIiE9getPointsEvENKUlRKT_E_clINS0_7SegmentIiEEEEDaS5_
FN:146,153,_ZNK7fishnet8geometry4RingIdE4areaEv
FN:146,153,_ZNK7fishnet8geometry4RingIiE4areaEv
FN:160,166,_ZNK7fishnet8geometry4RingIdE8centroidEv
FN:160,166,_ZNK7fishnet8geometry4RingIiE8centroidEv
FN:173,190,_ZNK7fishnet8geometry4RingIdE4aaBBEv
FN:173,190,_ZNK7fishnet8geometry4RingIiE4aaBBEv
FN:192,194,_ZNK7fishnet8geometry4RingIdE8containsINS0_5Vec2DIdEEEEbRKT_
FN:192,194,_ZNK7fishnet8geometry4RingIdE8containsINS0_5Vec2DIiEEEEbRKT_
FN:192,194,_ZNK7fishnet8geometry4RingIiE8containsINS0_5Vec2DIdEEEEbRKT_
FN:192,194,_ZNK7fishnet8geometry4RingIiE8containsINS0_5Vec2DIiEEEEbRKT_
FN:196,198,_ZNK7fishnet8geometry4RingIdE8isInsideINS0_5Vec2DIdEEEEbRKT_
FN:196,198,_ZNK7fishnet8geometry4RingIdE8isInsideINS0_5Vec2DIiEEEEbRKT_
FN:200,202,_ZNK7fishnet8geometry4RingIdE12isOnBoundaryINS0_5Vec2DIdEEEEbRKT_
FN:200,202,_ZNK7fishnet8geometry4RingIdE12isOnBoundaryINS0_5Vec2DIiEEEEbRKT_
FN:200,202,_ZNK7fishnet8geometry4RingIiE12isOnBoundaryINS0_5Vec2DIdEEEEbRKT_
FN:204,206,_ZNK7fishnet8geometry4RingIdE9isOutsideINS0_5Vec2DIdEEEEbRKT_
FN:204,206,_ZNK7fishnet8geometry4RingIdE9isOutsideINS0_5Vec2DIiEEEEbRKT_
FN:204,206,_ZNK7fishnet8geometry4RingIiE9isOutsideINS0_5Vec2DIdEEEEbRKT_
FN:204,206,_ZNK7fishnet8geometry4RingIiE9isOutsideINS0_5Vec2DIiEEEEbRKT_
FN:228,264,_ZNK7fishnet8geometry4RingIdE10intersectsINS0_3RayIdEEEEbRKT_
FN:228,264,_ZNK7fishnet8geometry4RingIdE10intersectsINS0_3RayIiEEEEbRKT_
FN:228,264,_ZNK7fishnet8geometry4RingIdE10intersectsINS0_4LineIdEEEEbRKT_
FN:228,264,_ZNK7fishnet8geometry4RingIdE10intersectsINS0_4LineIiEEEEbRKT_
FN:228,264,_ZNK7fishnet8geometry4RingIdE10intersectsINS0_7SegmentIdEEEEbRKT_
FN:228,264,_ZNK7fishnet8geometry4RingIdE10intersectsINS0_7SegmentIiEEEEbRKT_
FN:228,264,_ZNK7fishnet8geometry4RingIiE10intersectsINS0_7SegmentIdEEEEbRKT_
FN:228,264,_ZNK7fishnet8geometry4RingIiE10intersectsINS0_7SegmentIiEEEEbRKT_
FN:230,230,_ZZNK7fishnet8geometry4RingIdE10intersectsINS0_3RayIdEEEEbRKT_ENKUlRKNS0_5Vec2DIdEESC_E_clESC_SC_
FN:230,230,_ZZNK7fishnet8geometry4RingIdE10intersectsINS0_3RayIiEEEEbRKT_ENKUlRKNS0_5Vec2DIdEESC_E_clESC_SC_
FN:230,230,_ZZNK7fishnet8geometry4RingIdE10intersectsINS0_4LineIdEEEEbRKT_ENKUlRKNS0_5Vec2DIdEESC_E_clESC_SC_
FN:230,230,_ZZNK7fishnet8geometry4RingIdE10intersectsINS0_4LineIiEEEEbRKT_ENKUlRKNS0_5Vec2DIdEESC_E_clESC_SC_
FN:230,230,_ZZNK7fishnet8geometry4RingIdE10intersectsINS0_7SegmentIdEEEEbRKT_ENKUlRKNS0_5Vec2DIdEESC_E_clESC_SC_
FN:230,230,_ZZNK7fishnet8geometry4RingIdE10intersectsINS0_7SegmentIiEEEEbRKT_ENKUlRKNS0_5Vec2DIdEESC_E_clESC_SC_
FN:230,230,_ZZNK7fishnet8geometry4RingIiE10intersectsINS0_7SegmentIdEEEEbRKT_ENKUlRKNS0_5Vec2DIiEESC_E_clESC_SC_
FN:230,230,_ZZNK7fishnet8geometry4RingIiE10intersectsINS0_7SegmentIiEEEEbRKT_ENKUlRKNS0_5Vec2DIiEESC_E_clESC_SC_
FN:266,275,_ZNK7fishnet8geometry4RingIdE13intersectionsINS0_3RayIiEEEEDaRKT_
FN:266,275,_ZNK7fishnet8geometry4RingIdE13intersectionsINS0_4LineIdEEEEDaRKT_
FN:266,275,_ZNK7fishnet8geometry4RingIdE13intersectionsINS0_4LineIiEEEEDaRKT_
FN:266,275,_ZNK7fishnet8geometry4RingIdE13intersectionsINS0_7SegmentIdEEEEDaRKT_
FN:266,275,_ZNK7fishnet8geometry4RingIdE13intersectionsINS0_7SegmentIiEEEEDaRKT_
FN:269,269,_ZZNK7fishnet8geometry4RingIdE13intersectionsINS0_3RayIiEEEEDaRKT_ENKUlS8_E_clINS0_7SegmentIdEEEEDaS8_
FN:269,269,_ZZNK7fishnet8geometry4RingIdE13intersectionsINS0_4LineIdEEEEDaRKT_ENKUlS8_E_clINS0_7SegmentIdEEEEDaS8_
FN:269,269,_ZZNK7fishnet8geometry4RingIdE13intersectionsINS0_4LineIiEEEEDaRKT_ENKUlS8_E_clINS0_7SegmentIdEEEEDaS8_
FN:269,269,_ZZNK7fishnet8geometry4RingIdE13intersectionsINS0_7SegmentIdEEEEDaRKT_ENKUlS8_E_clIS5_EEDaS8_
FN:269,269,_ZZNK7fishnet8geometry4RingIdE13intersectionsINS0_7SegmentIiEEEEDaRKT_ENKUlS8_E_clINS4_IdEEEEDaS8_
FN:270,270,_ZZNK7fishnet8geometry4RingIdE13intersectionsINS0_3RayIiEEEEDaRKT_ENKUlS8_E0_clISt8optionalINS0_5Vec2DIdEEEEEDaS8_
FN:270,270,_ZZNK7fishnet8geometry4RingIdE13intersectionsINS0_4LineIdEEEEDaRKT_ENKUlS8_E0_clISt8optionalINS0_5Vec2DIdEEEEEDaS8_
FN:270,270,_ZZNK7fishnet8geometry4RingIdE13intersectionsINS0_4LineIiEEEEDaRKT_ENKUlS8_E0_clISt8optionalINS0_5Vec2DIdEEEEEDaS8_
FN:270,270,_ZZNK7fishnet8geometry4RingIdE13intersectionsINS0_7SegmentIdEEEEDaRKT_ENKUlS8_E0_clISt8optionalINS0_5Vec2DIdEEEEEDaS8_
FN:270,270,_ZZNK7fishnet8geometry4RingIdE13intersectionsINS0_7SegmentIiEEEEDaRKT_ENKUlS8_E0_clISt8optionalINS0_5Vec2DIdEEEEEDaS8_
FN:284,307,_ZNK7fishnet8geometry4RingIdE8containsINS0_7SegmentIdEEEEbRKT_
FN:284,307,_ZNK7fishnet8geometry4RingIdE8containsINS0_7SegmentIiEEEEbRKT_
FN:284,307,_ZNK7fishnet8geometry4RingIiE8containsINS0_7SegmentIdEEEEbRKT_
FN:284,307,_ZNK7fishnet8geometry4RingIiE8containsINS0_7SegmentIiEEEEbRKT_
FN:298,298,_ZZNK7fishnet8geometry4RingIdE8containsINS0_7SegmentIdEEEEbRKT_ENKUlRKNS0_5Vec2DIdEESC_E_clESC_SC_
FN:298,298,_ZZNK7fishnet8geometry4RingIdE8containsINS0_7SegmentIiEEEEbRKT_ENKUlRKNS0_5Vec2DIdEESC_E_clESC_SC_
FN:298,298,_ZZNK7fishnet8geometry4RingIiE8containsINS0_7SegmentIdEEEEbRKT_ENKUlRKNS0_5Vec2DIdEESC_E_clESC_SC_
FN:298,298,_ZZNK7fishnet8geometry4RingIiE8containsINS0_7SegmentIiEEEEbRKT_ENKUlRKNS0_5Vec2DIdEESC_E_clESC_SC_
FN:311,343,_ZNK7fishnet8geometry4RingIdEeqIdEEbRKNS1_IT_EE
FN:311,343,_ZNK7fishnet8geometry4RingIdEeqIiEEbRKNS1_IT_EE
FN:311,343,_ZNK7fishnet8geometry4RingIiEeqIdEEbRKNS1_IT_EE
FN:311,343,_ZNK7fishnet8geometry4RingIiEeqIiEEbRKNS1_IT_EE
FN:328,328,_ZZNK7fishnet8geometry4RingIdEeqIdEEbRKNS1_IT_EEENKUlmE_clEm
FN:328,328,_ZZNK7fishnet8geometry4RingIdEeqIiEEbRKNS1_IT_EEENKUlmE_clEm
FN:328,328,_ZZNK7fishnet8geometry4RingIiEeqIdEEbRKNS1_IT_EEENKUlmE_clEm
FN:328,328,_ZZNK7fishnet8geometry4RingIiEeqIiEEbRKNS1_IT_EEENKUlmE_clEm
FN:336,336,_ZZNK7fishnet8geometry4RingIdEeqIdEEbRKNS1_IT_EEENKUlmE0_clEm
FN:336,336,_ZZNK7fishnet8geometry4RingIdEeqIiEEbRKNS1_IT_EEENKUlmE0_clEm
FN:336,336,_ZZNK7fishnet8geometry4RingIiEeqIdEEbRKNS1_IT_EEENKUlmE0_clEm
FN:336,336,_ZZNK7fishnet8geometry4RingIiEeqIiEEbRKNS1_IT_EEENKUlmE0_clEm
FN:346,349,_ZNK7fishnet8geometry4RingIdE7crossesIdEEbRKNS1_IT_EE
FN:346,349,_ZNK7fishnet8geometry4RingIdE7crossesIiEEbRKNS1_IT_EE
FN:346,349,_ZNK7fishnet8geometry4RingIiE7crossesIdEEbRKNS1_IT_EE
FN:346,349,_ZNK7fishnet8geometry4RingIiE7crossesIiEEbRKNS1_IT_EE
FN:347,347,_ZZNK7fishnet8geometry4RingIdE7crossesIdEEbRKNS1_IT_EEENKUlRKS4_E_clINS0_7SegmentIdEEEEDaS9_
FN:347,347,_ZZNK7fishnet8geometry4RingIdE7crossesIiEEbRKNS1_IT_EEENKUlRKS4_E_clINS0_7SegmentIdEEEEDaS9_
FN:347,347,_ZZNK7fishnet8geometry4RingIiE7crossesIdEEbRKNS1_IT_EEENKUlRKS4_E_clINS0_7SegmentIiEEEEDaS9_
FN:347,347,_ZZNK7fishnet8geometry4RingIiE7crossesIiEEbRKNS1_IT_EEENKUlRKS4_E_clINS0_7SegmentIiEEEEDaS9_
FN:348,348,_ZZNK7fishnet8geometry4RingIdE7crossesIdEEbRKNS1_IT_EEENKUlRKS4_E0_clINS0_7SegmentIdEEEEDaS9_
FN:348,348,_ZZNK7fishnet8geometry4RingIdE7crossesIiEEbRKNS1_IT_EEENKUlRKS4_E0_clINS0_7SegmentIiEEEEDaS9_
FN:348,348,_ZZNK7fishnet8geometry4RingIiE7crossesIdEEbRKNS1_IT_EEENKUlRKS4_E0_clINS0_7SegmentIdEEEEDaS9_
FN:348,348,_ZZNK7fishnet8geometry4RingIiE7crossesIiEEbRKNS1_IT_EEENKUlRKS4_E0_clINS0_7SegmentIiEEEEDaS9_
FN:352,359,_ZNK7fishnet8geometry4RingIdE8containsIdEEbRKNS1_IT_EE
FN:352,359,_ZNK7fishnet8geometry4RingIdE8containsIiEEbRKNS1_IT_EE
FN:352,359,_ZNK7fishnet8geometry4RingIiE8containsIdEEbRKNS1_IT_EE
FN:352,359,_ZNK7fishnet8geometry4RingIiE8containsIiEEbRKNS1_IT_EE
FN:353,353,_ZZNK7fishnet8geometry4RingIdE8containsIdEEbRKNS1_IT_EEENKUlRKNS0_7SegmentIdEEE_clESB_
FN:353,353,_ZZNK7fishnet8geometry4RingIdE8containsIiEEbRKNS1_IT_EEENKUlRKNS0_7SegmentIiEEE_clESB_
FN:353,353,_ZZNK7fishnet8geometry4RingIiE8containsIdEEbRKNS1_IT_EEENKUlRKNS0_7SegmentIdEEE_clESB_
FN:353,353,_ZZNK7fishnet8geometry4RingIiE8containsIiEEbRKNS1_IT_EEENKUlRKNS0_7SegmentIiEEE_clESB_
FN:362,369,_ZNK7fishnet8geometry4RingIdE7touchesIdEEbRKNS1_IT_EE
FN:362,369,_ZNK7fishnet8geometry4RingIdE7touchesIiEEbRKNS1_IT_EE
FN:362,369,_ZNK7fishnet8geometry4RingIiE7touchesIdEEbRKNS1_IT_EE
FN:372,377,_ZNK7fishnet8geometry4RingIdE8distanceIdEEdRKNS1_IT_EE
FN:372,377,_ZNK7fishnet8geometry4RingIdE8distanceIiEEdRKNS1_IT_EE
FN:379,388,_ZNK7fishnet8geometry4RingIdE8toStringB5cxx11Ev
FN:379,388,_ZNK7fishnet8geometry4RingIiE8toStringB5cxx11Ev
FN:39,55,_ZN7fishnet8geometry4RingIdE10toSegmentsINSt6ranges14transform_viewINS4_8ref_viewIKSt6vectorINS0_7SegmentIdEESaIS9_EEEEZNKS2_9getPointsEvEUlRKT_E_EEEESB_SG_
FN:39,55,_ZN7fishnet8geometry4RingIdE10toSegmentsISt6vectorINS0_5Vec2DIdEESaIS6_EEEES4_INS0_7SegmentIdEESaISA_EERKT_
FN:39,55,_ZN7fishnet8geometry4RingIiE10toSegmentsISt6vectorINS0_5Vec2DIiEESaIS6_EEEES4_INS0_7SegmentIiEESaISA_EERKT_
FN:405,409,_ZNKSt4hashIN7fishnet8geometry4RingIdEEEclERKS3_
FN:406,406,_ZZNKSt4hashIN7fishnet8geometry4RingIdEEEclERKS3_ENKUlRKT_E_clINS1_7SegmentIdEEEEDaS9_
FN:61,68,_ZN7fishnet8geometry4RingIdE9makeValidEv
FN:61,68,_ZN7fishnet8geometry4RingIiE9makeValidEv
FN:78,93,_ZNK7fishnet8geometry4RingIdE16getPointLocationINS0_5Vec2DIdEEEENS0_13PointLocationERKT_
FN:78,93,_ZNK7fishnet8geometry4RingIdE16getPointLocationINS0_5Vec2DIiEEEENS0_13PointLocationERKT_
FN:78,93,_ZNK7fishnet8geometry4RingIiE16getPointLocationINS0_5Vec2DIdEEEENS0_13PointLocationERKT_
FN:78,93,_ZNK7fishnet8geometry4RingIiE16getPointLocationINS0_5Vec2DIiEEEENS0_13PointLocationERKT_
FN:99,102,_ZN7fishnet8geometry4RingIdEC2INSt6ranges14transform_viewINS4_8ref_viewIKSt6vectorINS0_7SegmentIdEESaIS9_EEEEZNKS2_9getPointsEvEUlRKT_E_EEEESG_
FN:99,102,_ZN7fishnet8geometry4RingIdEC2ISt6vectorINS0_5Vec2DIdEESaIS6_EEEERKT_
FN:99,102,_ZN7fishnet8geometry4RingIiEC2ISt6vectorINS0_5Vec2DIiEESaIS6_EEEERKT_
FNDA:18,_ZN7fishnet8geometry4RingIdEC2ISt6vectorINS0_7SegmentIdEESaIS6_EEEERKT_
FNDA:6,_ZN7fishnet8geometry4RingIiEC2ISt6vectorINS0_7SegmentIiEESaIS6_EEEERKT_
FNDA:217,_ZN7fishnet8geometry4RingIdEC2EOSt16initializer_listINS0_5Vec2DIdEEE
FNDA:7,_ZN7fishnet8geometry4RingIiEC2EOSt16initializer_listINS0_5Vec2DIiEEE
FNDA:1,_ZNK7fishnet8geometry4RingIiEcvNS1_IT_EEIdEEv
FNDA:4,_ZZNK7fishnet8geometry4RingIiEcvNS1_IT_EEIdEEvENKUlRKS3_E_clINS0_5Vec2DIiEEEEDaS7_
FNDA:12885,_ZNK7fishnet8geometry4RingIdE11getSegmentsEv
FNDA:35,_ZNK7fishnet8geometry4RingIiE11getSegmentsEv
FNDA:899,_ZNK7fishnet8geometry4RingIdE9getPointsEv
FNDA:6,_ZNK7fishnet8geometry4RingIiE9getPointsEv
FNDA:7326,_ZZNK7fishnet8geometry4RingIdE9getPointsEvENKUlRKT_E_clINS0_7SegmentIdEEEEDaS5_
FNDA:37,_ZZNK7fishnet8geometry4RingIiE9getPointsEvENKUlRKT_E_clINS0_7SegmentIiEEEEDaS5_
FNDA:309,_ZNK7fishnet8geometry4RingIdE4areaEv
FNDA:1,_ZNK7fishnet8geometry4RingIiE4areaEv
FNDA:81,_ZNK7fishnet8geometry4RingIdE8centroidEv
FNDA:1,_ZNK7fishnet8geometry4RingIiE8centroidEv
FNDA:24,_ZNK7fishnet8geometry4RingIdE4aaBBEv
FNDA:1,_ZNK7fishnet8geometry4RingIiE4aaBBEv
FNDA:4640,_ZNK7fishnet8geometry4RingIdE8containsINS0_5Vec2DIdEEEEbRKT_
FNDA:23,_ZNK7fishnet8geometry4RingIdE8containsINS0_5Vec2DIiEEEEbRKT_
FNDA:9,_ZNK7fishnet8geometry4RingIiE8containsINS0_5Vec2DIdEEEEbRKT_
FNDA:0,_ZNK7fishnet8geometry4RingIiE8containsINS0_5Vec2DIiEEEEbRKT_
FNDA:16,_ZNK7fishnet8geometry4RingIdE8isInsideINS0_5Vec2DIdEEEEbRKT_
FNDA:27,_ZNK7fishnet8geometry4RingIdE8isInsideINS0_5Vec2DIiEEEEbRKT_
FNDA:19,_ZNK7fishnet8geometry4RingIdE12isOnBoundaryINS0_5Vec2DIdEEEEbRKT_
FNDA:22,_ZNK7fishnet8geometry4RingIdE12isOnBoundaryINS0_5Vec2DIiEEEEbRKT_
FNDA:0,_ZNK7fishnet8geometry4RingIiE12isOnBoundaryINS0_5Vec2DIdEEEEbRKT_
FNDA:3,_ZNK7fishnet8geometry4RingIdE9isOutsideINS0_5Vec2DIdEEEEbRKT_
FNDA:6,_ZNK7fishnet8geometry4RingIdE9isOutsideINS0_5Vec2DIiEEEEbRKT_
FNDA:0,_ZNK7fishnet8geometry4RingIiE9isOutsideINS0_5Vec2DIdEEEEbRKT_
FNDA:0,_ZNK7fishnet8geometry4RingIiE9isOutsideINS0_5Vec2DIiEEEEbRKT_
FNDA:3,_ZNK7fishnet8geometry4RingIdE10intersectsINS0_3RayIdEEEEbRKT_
FNDA:1,_ZNK7fishnet8geometry4RingIdE10intersectsINS0_3RayIiEEEEbRKT_
FNDA:11,_ZNK7fishnet8geometry4RingIdE10intersectsINS0_4LineIdEEEEbRKT_
FNDA:1,_ZNK7fishnet8geometry4RingIdE10intersectsINS0_4LineIiEEEEbRKT_
FNDA:19517,_ZNK7fishnet8geometry4RingIdE10intersectsINS0_7SegmentIdEEEEbRKT_
FNDA:27,_ZNK7fishnet8geometry4RingIdE10intersectsINS0_7SegmentIiEEEEbRKT_
FNDA:48,_ZNK7fishnet8geometry4RingIiE10intersectsINS0_7SegmentIdEEEEbRKT_
FNDA:0,_ZNK7fishnet8geometry4RingIiE10intersectsINS0_7SegmentIiEEEEbRKT_
FNDA:2,_ZZNK7fishnet8geometry4RingIdE10intersectsINS0_3RayIdEEEEbRKT_ENKUlRKNS0_5Vec2DIdEESC_E_clESC_SC_
FNDA:1,_ZZNK7fishnet8geometry4RingIdE10intersectsINS0_3RayIiEEEEbRKT_ENKUlRKNS0_5Vec2DIdEESC_E_clESC_SC_
FNDA:11,_ZZNK7fishnet8geometry4RingIdE10intersectsINS0_4LineIdEEEEbRKT_ENKUlRKNS0_5Vec2DIdEESC_E_clESC_SC_
FNDA:0,_ZZNK7fishnet8geometry4RingIdE10intersectsINS0_4LineIiEEEEbRKT_ENKUlRKNS0_5Vec2DIdEESC_E_clESC_SC_
FNDA:15,_ZZNK7fishnet8geometry4RingIdE10intersectsINS0_7SegmentIdEEEEbRKT_ENKUlRKNS0_5Vec2DIdEESC_E_clESC_SC_
FNDA:0,_ZZNK7fishnet8geometry4RingIdE10intersectsINS0_7SegmentIiEEEEbRKT_ENKUlRKNS0_5Vec2DIdEESC_E_clESC_SC_
FNDA:2,_ZZNK7fishnet8geometry4RingIiE10intersectsINS0_7SegmentIdEEEEbRKT_ENKUlRKNS0_5Vec2DIiEESC_E_clESC_SC_
FNDA:0,_ZZNK7fishnet8geometry4RingIiE10intersectsINS0_7SegmentIiEEEEbRKT_ENKUlRKNS0_5Vec2DIiEESC_E_clESC_SC_
FNDA:5,_ZNK7fishnet8geometry4RingIdE13intersectionsINS0_3RayIiEEEEDaRKT_
FNDA:4,_ZNK7fishnet8geometry4RingIdE13intersectionsINS0_4LineIdEEEEDaRKT_
FNDA:5,_ZNK7fishnet8geometry4RingIdE13intersectionsINS0_4LineIiEEEEDaRKT_
FNDA:3,_ZNK7fishnet8geometry4RingIdE13intersectionsINS0_7SegmentIdEEEEDaRKT_
FNDA:2,_ZNK7fishnet8geometry4RingIdE13intersectionsINS0_7SegmentIiEEEEDaRKT_
FNDA:37,_ZZNK7fishnet8geometry4RingIdE13intersectionsINS0_3RayIiEEEEDaRKT_ENKUlS8_E_clINS0_7SegmentIdEEEEDaS8_
FNDA:37,_ZZNK7fishnet8geometry4RingIdE13intersectionsINS0_4LineIdEEEEDaRKT_ENKUlS8_E_clINS0_7SegmentIdEEEEDaS8_
FNDA:46,_ZZNK7fishnet8geometry4RingIdE13intersectionsINS0_4LineIiEEEEDaRKT_ENKUlS8_E_clINS0_7SegmentIdEEEEDaS8_
FNDA:17,_ZZNK7fishnet8geometry4RingIdE13intersectionsINS0_7SegmentIdEEEEDaRKT_ENKUlS8_E_clIS5_EEDaS8_
FNDA:16,_ZZNK7fishnet8geometry4RingIdE13intersectionsINS0_7SegmentIiEEEEDaRKT_ENKUlS8_E_clINS4_IdEEEEDaS8_
FNDA:33,_ZZNK7fishnet8geometry4RingIdE13intersectionsINS0_3RayIiEEEEDaRKT_ENKUlS8_E0_clISt8optionalINS0_5Vec2DIdEEEEEDaS8_
FNDA:23,_ZZNK7fishnet8geometry4RingIdE13intersectionsINS0_4LineIdEEEEDaRKT_ENKUlS8_E0_clISt8optionalINS0_5Vec2DIdEEEEEDaS8_
FNDA:33,_ZZNK7fishnet8geometry4RingIdE13intersectionsINS0_4LineIiEEEEDaRKT_ENKUlS8_E0_clISt8optionalINS0_5Vec2DIdEEEEEDaS8_
FNDA:15,_ZZNK7fishnet8geometry4RingIdE13intersectionsINS0_7SegmentIdEEEEDaRKT_ENKUlS8_E0_clISt8optionalINS0_5Vec2DIdEEEEEDaS8_
FNDA:16,_ZZNK7fishnet8geometry4RingIdE13intersectionsINS0_7SegmentIiEEEEDaRKT_ENKUlS8_E0_clISt8optionalINS0_5Vec2DIdEEEEEDaS8_
FNDA:4659,_ZNK7fishnet8geometry4RingIdE8containsINS0_7SegmentIdEEEEbRKT_
FNDA:44,_ZNK7fishnet8geometry4RingIdE8containsINS0_7SegmentIiEEEEbRKT_
FNDA:9,_ZNK7fishnet8geometry4RingIiE8containsINS0_7SegmentIdEEEEbRKT_
FNDA:0,_ZNK7fishnet8geometry4RingIiE8containsINS0_7SegmentIiEEEEbRKT_
FNDA:9183,_ZZNK7fishnet8geometry4RingIdE8containsINS0_7SegmentIdEEEEbRKT_ENKUlRKNS0_5Vec2DIdEESC_E_clESC_SC_
FNDA:88,_ZZNK7fishnet8geometry4RingIdE8containsINS0_7SegmentIiEEEEbRKT_ENKUlRKNS0_5Vec2DIdEESC_E_clESC_SC_
FNDA:18,_ZZNK7fishnet8geometry4RingIiE8containsINS0_7SegmentIdEEEEbRKT_ENKUlRKNS0_5Vec2DIdEESC_E_clESC_SC_
FNDA:0,_ZZNK7fishnet8geometry4RingIiE8containsINS0_7SegmentIiEEEEbRKT_ENKUlRKNS0_5Vec2DIdEESC_E_clESC_SC_
FNDA:7866,_ZNK7fishnet8geometry4RingIdEeqIdEEbRKNS1_IT_EE
FNDA:2,_ZNK7fishnet8geometry4RingIdEeqIiEEbRKNS1_IT_EE
FNDA:1,_ZNK7fishnet8geometry4RingIiEeqIdEEbRKNS1_IT_EE
FNDA:5,_ZNK7fishnet8geometry4RingIiEeqIiEEbRKNS1_IT_EE
FNDA:1241,_ZZNK7fishnet8geometry4RingIdEeqIdEEbRKNS1_IT_EEENKUlmE_clEm
FNDA:7,_ZZNK7fishnet8geometry4RingIdEeqIiEEbRKNS1_IT_EEENKUlmE_clEm
FNDA:0,_ZZNK7fishnet8geometry4RingIiEeqIdEEbRKNS1_IT_EEENKUlmE_clEm
FNDA:16,_ZZNK7fishnet8geometry4RingIiEeqIiEEbRKNS1_IT_EEENKUlmE_clEm
FNDA:7,_ZZNK7fishnet8geometry4RingIdEeqIdEEbRKNS1_IT_EEENKUlmE0_clEm
FNDA:0,_ZZNK7fishnet8geometry4RingIdEeqIiEEbRKNS1_IT_EEENKUlmE0_clEm
FNDA:0,_ZZNK7fishnet8geometry4RingIiEeqIdEEbRKNS1_IT_EEENKUlmE0_clEm
FNDA:6,_ZZNK7fishnet8geometry4RingIiEeqIiEEbRKNS1_IT_EEENKUlmE0_clEm
FNDA:1579,_ZNK7fishnet8geometry4RingIdE7crossesIdEEbRKNS1_IT_EE
FNDA:6,_ZNK7fishnet8geometry4RingIdE7crossesIiEEbRKNS1_IT_EE
FNDA:1,_ZNK7fishnet8geometry4RingIiE7crossesIdEEbRKNS1_IT_EE
FNDA:0,_ZNK7fishnet8geometry4RingIiE7crossesIiEEbRKNS1_IT_EE
FNDA:9879,_ZZNK7fishnet8geometry4RingIdE7crossesIdEEbRKNS1_IT_EEENKUlRKS4_E_clINS0_7SegmentIdEEEEDaS9_
FNDA:40,_ZZNK7fishnet8geometry4RingIdE7crossesIiEEbRKNS1_IT_EEENKUlRKS4_E_clINS0_7SegmentIdEEEEDaS9_
FNDA:4,_ZZNK7fishnet8geometry4RingIiE7crossesIdEEbRKNS1_IT_EEENKUlRKS4_E_clINS0_7SegmentIiEEEEDaS9_
FNDA:0,_ZZNK7fishnet8geometry4RingIiE7crossesIiEEbRKNS1_IT_EEENKUlRKS4_E_clINS0_7SegmentIiEEEEDaS9_
FNDA:9622,_ZZNK7fishnet8geometry4RingIdE7crossesIdEEbRKNS1_IT_EEENKUlRKS4_E0_clINS0_7SegmentIdEEEEDaS9_
FNDA:18,_ZZNK7fishnet8geometry4RingIdE7crossesIiEEbRKNS1_IT_EEENKUlRKS4_E0_clINS0_7SegmentIiEEEEDaS9_
FNDA:8,_ZZNK7fishnet8geometry4RingIiE7crossesIdEEbRKNS1_IT_EEENKUlRKS4_E0_clINS0_7SegmentIdEEEEDaS9_
FNDA:0,_ZZNK7fishnet8geometry4RingIiE7crossesIiEEbRKNS1_IT_EEENKUlRKS4_E0_clINS0_7SegmentIiEEEEDaS9_
FNDA:669,_ZNK7fishnet8geometry4RingIdE8containsIdEEbRKNS1_IT_EE
FNDA:7,_ZNK7fishnet8geometry4RingIdE8containsIiEEbRKNS1_IT_EE
FNDA:3,_ZNK7fishnet8geometry4RingIiE8containsIdEEbRKNS1_IT_EE
FNDA:0,_ZNK7fishnet8geometry4RingIiE8containsIiEEbRKNS1_IT_EE
FNDA:2142,_ZZNK7fishnet8geometry4RingIdE8containsIdEEbRKNS1_IT_EEENKUlRKNS0_7SegmentIdEEE_clESB_
FNDA:21,_ZZNK7fishnet8geometry4RingIdE8containsIiEEbRKNS1_IT_EEENKUlRKNS0_7SegmentIiEEE_clESB_
FNDA:3,_ZZNK7fishnet8geometry4RingIiE8containsIdEEbRKNS1_IT_EEENKUlRKNS0_7SegmentIdEEE_clESB_
FNDA:0,_ZZNK7fishnet8geometry4RingIiE8containsIiEEbRKNS1_IT_EEENKUlRKNS0_7SegmentIiEEE_clESB_
FNDA:9,_ZNK7fishnet8geometry4RingIdE7touchesIdEEbRKNS1_IT_EE
FNDA:3,_ZNK7fishnet8geometry4RingIdE7touchesIiEEbRKNS1_IT_EE
FNDA:1,_ZNK7fishnet8geometry4RingIiE7touchesIdEEbRKNS1_IT_EE
FNDA:53,_ZNK7fishnet8geometry4RingIdE8distanceIdEEdRKNS1_IT_EE
FNDA:2,_ZNK7fishnet8geometry4RingIdE8distanceIiEEdRKNS1_IT_EE
FNDA:21,_ZNK7fishnet8geometry4RingIdE8toStringB5cxx11Ev
FNDA:1,_ZNK7fishnet8geometry4RingIiE8toStringB5cxx11Ev
FNDA:22,_ZN7fishnet8geometry4RingIdE10toSegmentsINSt6ranges14transform_viewINS4_8ref_viewIKSt6vectorINS0_7SegmentIdEESaIS9_EEEEZNKS2_9getPointsEvEUlRKT_E_EEEESB_SG_
FNDA:5390,_ZN7fishnet8geometry4RingIdE10toSegmentsISt6vectorINS0_5Vec2DIdEESaIS6_EEEES4_INS0_7SegmentIdEESaISA_EERKT_
FNDA:41,_ZN7fishnet8geometry4RingIiE10toSegmentsISt6vectorINS0_5Vec2DIiEESaIS6_EEEES4_INS0_7SegmentIiEESaISA_EERKT_
FNDA:67,_ZNKSt4hashIN7fishnet8geometry4RingIdEEEclERKS3_
FNDA:255,_ZZNKSt4hashIN7fishnet8geometry4RingIdEEEclERKS3_ENKUlRKT_E_clINS1_7SegmentIdEEEEDaS9_
FNDA:18,_ZN7fishnet8geometry4RingIdE9makeValidEv
FNDA:6,_ZN7fishnet8geometry4RingIiE9makeValidEv
FNDA:4687,_ZNK7fishnet8geometry4RingIdE16getPointLocationINS0_5Vec2DIdEEEENS0_13PointLocationERKT_
FNDA:94,_ZNK7fishnet8geometry4RingIdE16getPointLocationINS0_5Vec2DIiEEEENS0_13PointLocationERKT_
FNDA:9,_ZNK7fishnet8geometry4RingIiE16getPointLocationINS0_5Vec2DIdEEEENS0_13PointLocationERKT_
FNDA:0,_ZNK7fishnet8geometry4RingIiE16getPointLocationINS0_5Vec2DIiEEEENS0_13PointLocationERKT_
FNDA:22,_ZN7fishnet8geometry4RingIdEC2INSt6ranges14transform_viewINS4_8ref_viewIKSt6vectorINS0_7SegmentIdEESaIS9_EEEEZNKS2_9getPointsEvEUlRKT_E_EEEESG_
FNDA:5173,_ZN7fishnet8geometry4RingIdEC2ISt6vectorINS0_5Vec2DIdEESaIS6_EEEERKT_
FNDA:34,_ZN7fishnet8geometry4RingIiEC2ISt6vectorINS0_5Vec2DIiEESaIS6_EEEERKT_
FNF:123
FNH:104
DA:39,5453
DA:40,5453
DA:41,5453
DA:42,1
DA:43,5452
DA:44,40086
DA:45,34634
DA:46,0
DA:47,34634
DA:49,5452
DA:50,5452
DA:51,5452
DA:52,499
DA:54,5452
DA:61,24
DA:62,136
DA:63,112
DA:64,6
DA:65,6
DA:68,24
DA:78,4790
DA:79,4790
DA:80,4790
DA:81,301418
DA:82,296672
DA:83,44
DA:84,296628
DA:85,296628
DA:86,290548
DA:87,6988
DA:88,6988
DA:89,908
DA:90,6080
DA:92,4746
DA:99,5229
DA:100,5229
DA:101,5229
DA:102,5229
DA:104,24
DA:105,24
DA:106,24
DA:107,24
DA:109,224
DA:110,448
DA:111,224
DA:112,224
DA:113,225
DA:116,1
DA:117,1
DA:118,1
DA:119,4
DA:121,1
DA:122,1
DA:132,12920
DA:133,12920
DA:136,905
DA:137,905
DA:138,9173
DA:146,310
DA:147,310
DA:148,310
DA:149,1814
DA:150,1504
DA:152,310
DA:160,82
DA:161,82
DA:162,411
DA:163,329
DA:165,82
DA:173,25
DA:174,25
DA:175,25
DA:176,25
DA:177,25
DA:178,131
DA:179,106
DA:180,106
DA:181,13
DA:182,106
DA:183,22
DA:184,106
DA:185,22
DA:186,106
DA:187,13
DA:189,25
DA:192,4672
DA:193,4672
DA:196,43
DA:197,43
DA:200,41
DA:201,41
DA:204,9
DA:205,9
DA:228,19608
DA:230,2857
DA:231,0
DA:232,31
DA:233,0
DA:235,0
DA:237,147146
DA:238,127561
DA:239,127561
DA:241,127495
DA:242,7909
DA:243,119586
DA:244,13
DA:247,11
DA:248,0
DA:250,119651
DA:251,18
DA:252,6
DA:253,5
DA:255,12
DA:256,7
DA:258,119633
DA:259,13
DA:262,19585
DA:266,19
DA:267,19
DA:268,38
DA:269,191
DA:270,139
DA:271,52
DA:272,33
DA:274,19
DA:284,4712
DA:285,4712
DA:286,2
DA:287,4710
DA:288,4710
DA:289,300759
DA:290,296138
DA:291,89
DA:292,296049
DA:293,296049
DA:294,22
DA:297,4621
DA:298,8176
DA:299,9289
DA:301,8163
DA:302,4628
DA:303,4628
DA:304,1086
DA:306,3535
DA:307,4710
DA:311,7874
DA:312,7874
DA:313,6269
DA:314,1605
DA:316,1605
DA:317,1605
DA:318,1605
DA:319,6676
DA:320,5297
DA:321,226
DA:322,226
DA:325,1605
DA:326,1379
DA:328,1360
DA:329,226
DA:330,1490
DA:331,1264
DA:332,8
DA:334,226
DA:336,17
DA:337,0
DA:339,16
DA:340,13
DA:342,3
DA:346,1586
DA:347,11509
DA:348,11234
DA:352,679
DA:353,2091
DA:354,2166
DA:355,358
DA:357,2166
DA:358,679
DA:362,13
DA:363,13
DA:364,12
DA:365,19
DA:366,18
DA:368,1
DA:372,55
DA:373,55
DA:374,2
DA:375,53
DA:379,22
DA:380,22
DA:381,22
DA:382,133
DA:383,111
DA:384,111
DA:385,111
DA:387,22
DA:388,22
DA:405,67
DA:406,322
DA:407,67
DA:408,67
LF:201
LH:195
end_of_record
TN:
SF:/home/lolo/Documents/fishnet/lib/geometry/objects/shapes/include/fishnet/SimplePolygon.hpp
FN:18,18,_ZN7fishnet8geometry13SimplePolygonIdEC2ERKNS0_4RingIdEE
FN:18,18,_ZN7fishnet8geometry13SimplePolygonIiEC2ERKNS0_4RingIiEE
FN:20,20,_ZN7fishnet8geometry13SimplePolygonIdEC2EOSt16initializer_listINS0_5Vec2DIdEEE
FN:20,20,_ZN7fishnet8geometry13SimplePolygonIiEC2EOSt16initializer_listINS0_5Vec2DIiEEE
FN:22,22,_ZN7fishnet8geometry13SimplePolygonIdEC2INSt6ranges14transform_viewINS4_8ref_viewIKSt6vectorINS0_7SegmentIdEESaIS9_EEEEZNKS0_4RingIdE9getPointsEvEUlRKT_E_EEEESI_
FN:22,22,_ZN7fishnet8geometry13SimplePolygonIdEC2ISt6vectorINS0_5Vec2DIdEESaIS6_EEEERKT_
FN:22,22,_ZN7fishnet8geometry13SimplePolygonIiEC2ISt6vectorINS0_5Vec2DIiEESaIS6_EEEERKT_
FN:24,24,_ZN7fishnet8geometry13SimplePolygonIiEC2ISt6vectorINS0_7SegmentIiEESaIS6_EEEERKT_
FN:30,32,_ZNK7fishnet8geometry13SimplePolygonIdE11getBoundaryEv
FN:34,36,_ZNK7fishnet8geometry13SimplePolygonIdE8getHolesEv
FN:38,40,_ZNK7fishnet8geometry13SimplePolygonIdE4aaBBEv
FN:43,45,_ZNK7fishnet8geometry13SimplePolygonIdEeqIdEEbRKNS1_IT_EE
FN:47,49,_ZNK7fishnet8geometry13SimplePolygonIdE8isInHoleIS2_EEbRKT_
FN:69,71,_ZNKSt4hashIN7fishnet8geometry13SimplePolygonIdEEEclERKS3_
FNDA:4896,_ZN7fishnet8geometry13SimplePolygonIdEC2ERKNS0_4RingIdEE
FNDA:2,_ZN7fishnet8geometry13SimplePolygonIiEC2ERKNS0_4RingIiEE
FNDA:21,_ZN7fishnet8geometry13SimplePolygonIdEC2EOSt16initializer_listINS0_5Vec2DIdEEE
FNDA:2,_ZN7fishnet8geometry13SimplePolygonIiEC2EOSt16initializer_listINS0_5Vec2DIiEEE
FNDA:1,_ZN7fishnet8geometry13SimplePolygonIdEC2INSt6ranges14transform_viewINS4_8ref_viewIKSt6vectorINS0_7SegmentIdEESaIS9_EEEEZNKS0_4RingIdE9getPointsEvEUlRKT_E_EEEESI_
FNDA:199,_ZN7fishnet8geometry13SimplePolygonIdEC2ISt6vectorINS0_5Vec2DIdEESaIS6_EEEERKT_
FNDA:2,_ZN7fishnet8geometry13SimplePolygonIiEC2ISt6vectorINS0_5Vec2DIiEESaIS6_EEEERKT_
FNDA:2,_ZN7fishnet8geometry13SimplePolygonIiEC2ISt6vectorINS0_7SegmentIiEESaIS6_EEEERKT_
FNDA:584,_ZNK7fishnet8geometry13SimplePolygonIdE11getBoundaryEv
FNDA:5,_ZNK7fishnet8geometry13SimplePolygonIdE8getHolesEv
FNDA:22,_ZNK7fishnet8geometry13SimplePolygonIdE4aaBBEv
FNDA:181,_ZNK7fishnet8geometry13SimplePolygonIdEeqIdEEbRKNS1_IT_EE
FNDA:8,_ZNK7fishnet8geometry13SimplePolygonIdE8isInHoleIS2_EEbRKT_
FNDA:67,_ZNKSt4hashIN7fishnet8geometry13SimplePolygonIdEEEclERKS3_
FNF:14
FNH:14
DA:18,4898
DA:20,23
DA:22,202
DA:24,2
DA:30,584
DA:31,584
DA:34,5
DA:35,5
DA:38,22
DA:39,22
DA:43,181
DA:44,181
DA:47,8
DA:48,8
DA:69,67
DA:70,67
LF:16
LH:16
end_of_record
TN:
SF:/home/lolo/Documents/fishnet/lib/graph/adjacency/include/fishnet/AdjacencyMap.hpp
FN:100,100,_ZZZNK7fishnet5graph12AdjacencyMapI6IDNodeSt4hashIS2_ESt8equal_toIS2_ESt6vectorIS2_SaIS2_EEE17getAdjacencyPairsEvENKUlRKT_E_clISt4pairIKS2_S9_EEEDaSD_ENKUlSD_E_clIS2_EEDaSD_
FN:100,100,_ZZZNK7fishnet5graph12AdjacencyMapI6XYNodeSt4hashIS2_ESt8equal_toIS2_ESt6vectorIS2_SaIS2_EEE17getAdjacencyPairsEvENKUlRKT_E_clISt4pairIKS2_S9_EEEDaSD_ENKUlSD_E_clIS2_EEDaSD_
FN:100,100,_ZZZNK7fishnet5graph12AdjacencyMapImSt4hashImESt8equal_toImESt6vectorImSaImEEE17getAdjacencyPairsEvENKUlRKT_E_clISt4pairIKmS8_EEEDaSC_ENKUlSC_E_clImEEDaSC_
FN:104,106,_ZN7fishnet5graph12AdjacencyMapI6IDNodeSt4hashIS2_ESt8equal_toIS2_ESt6vectorIS2_SaIS2_EEE5clearEv
FN:104,106,_ZN7fishnet5graph12AdjacencyMapI6XYNodeSt4hashIS2_ESt8equal_toIS2_ESt6vectorIS2_SaIS2_EEE5clearEv
FN:104,106,_ZN7fishnet5graph12AdjacencyMapImSt4hashImESt8equal_toImESt6vectorImSaImEEE5clearEv
FN:31,35,_ZN7fishnet5graph12AdjacencyMapI10DataIDNodeINSt7__cxx1112basic_stringIcSt11char_traitsIcESaIcEEEESt4hashIS9_ESt8equal_toIS9_ESt6vectorIS9_SaIS9_EEE12addAdjacencyES9_S9_
FN:31,35,_ZN7fishnet5graph12AdjacencyMapI6IDNodeSt4hashIS2_ESt8equal_toIS2_ESt6vectorIS2_SaIS2_EEE12addAdjacencyES2_S2_
FN:31,35,_ZN7fishnet5graph12AdjacencyMapI6XYNodeSt4hashIS2_ESt8equal_toIS2_ESt6vectorIS2_SaIS2_EEE12addAdjacencyES2_S2_
FN:31,35,_ZN7fishnet5graph12AdjacencyMapImSt4hashImESt8equal_toImESt6vectorImSaImEEE12addAdjacencyEmm
FN:37,39,_ZN7fishnet5graph12AdjacencyMapI6IDNodeSt4hashIS2_ESt8equal_toIS2_ESt6vectorIS2_SaIS2_EEE14addAdjacenciesIRS7_ISt4pairIS2_S2_ESaISD_EEEEvOT_
FN:37,39,_ZN7fishnet5graph12AdjacencyMapI6IDNodeSt4hashIS2_ESt8equal_toIS2_ESt6vectorIS2_SaIS2_EEE14addAdjacenciesIS7_ISt4pairIS2_S2_ESaISD_EEEEvOT_
FN:37,39,_ZN7fishnet5graph12AdjacencyMapImSt4hashImESt8equal_toImESt6vectorImSaImEEE14addAdjacenciesIS6_ISt4pairImmESaISC_EEEEvOT_
FN:38,38,_ZZN7fishnet5graph12AdjacencyMapI6IDNodeSt4hashIS2_ESt8equal_toIS2_ESt6vectorIS2_SaIS2_EEE14addAdjacenciesIRS7_ISt4pairIS2_S2_ESaISD_EEEEvOT_ENKUlRSH_E_clISD_EEDaSJ_
FN:38,38,_ZZN7fishnet5graph12AdjacencyMapI6IDNodeSt4hashIS2_ESt8equal_toIS2_ESt6vectorIS2_SaIS2_EEE14addAdjacenciesIS7_ISt4pairIS2_S2_ESaISD_EEEEvOT_ENKUlRSG_E_clISD_EEDaSI_
FN:38,38,_ZZN7fishnet5graph12AdjacencyMapImSt4hashImESt8equal_toImESt6vectorImSaImEEE14addAdjacenciesIS6_ISt4pairImmESaISC_EEEEvOT_ENKUlRSF_E_clISC_EEDaSH_
FN:41,43,_ZN7fishnet5graph12AdjacencyMapI6IDNodeSt4hashIS2_ESt8equal_toIS2_ESt6vectorIS2_SaIS2_EEE7addNodeERKS2_
FN:41,43,_ZN7fishnet5graph12AdjacencyMapI6XYNodeSt4hashIS2_ESt8equal_toIS2_ESt6vectorIS2_SaIS2_EEE7addNodeERKS2_
FN:41,43,_ZN7fishnet5graph12AdjacencyMapImSt4hashImESt8equal_toImESt6vectorImSaImEEE7addNodeERKm
FN:49,51,_ZN7fishnet5graph12AdjacencyMapI6IDNodeSt4hashIS2_ESt8equal_toIS2_ESt6vectorIS2_SaIS2_EEE8addNodesIRS9_EEbOT_
FN:49,51,_ZN7fishnet5graph12AdjacencyMapI6XYNodeSt4hashIS2_ESt8equal_toIS2_ESt6vectorIS2_SaIS2_EEE8addNodesIRNSt6ranges13elements_viewINSC_8ref_viewISt13unordered_mapIiS2_S3_IiES5_IiESaISt4pairIKiS2_EEEEELm1EEEEEbOT_
FN:49,51,_ZN7fishnet5graph12AdjacencyMapI6XYNodeSt4hashIS2_ESt8equal_toIS2_ESt6vectorIS2_SaIS2_EEE8addNodesIRS9_EEbOT_
FN:49,51,_ZN7fishnet5graph12AdjacencyMapImSt4hashImESt8equal_toImESt6vectorImSaImEEE8addNodesIS8_EEbOT_
FN:50,50,_ZZN7fishnet5graph12AdjacencyMapI6IDNodeSt4hashIS2_ESt8equal_toIS2_ESt6vectorIS2_SaIS2_EEE8addNodesIRS9_EEbOT_ENKUlbSD_E_clIS2_EEDabSD_
FN:50,50,_ZZN7fishnet5graph12AdjacencyMapI6XYNodeSt4hashIS2_ESt8equal_toIS2_ESt6vectorIS2_SaIS2_EEE8addNodesIRNSt6ranges13elements_viewINSC_8ref_viewISt13unordered_mapIiS2_S3_IiES5_IiESaISt4pairIKiS2_EEEEELm1EEEEEbOT_ENKUlbSQ_E_clIS2_EEDabSQ_
FN:50,50,_ZZN7fishnet5graph12AdjacencyMapI6XYNodeSt4hashIS2_ESt8equal_toIS2_ESt6vectorIS2_SaIS2_EEE8addNodesIRS9_EEbOT_ENKUlbSD_E_clIS2_EEDabSD_
FN:50,50,_ZZN7fishnet5graph12AdjacencyMapImSt4hashImESt8equal_toImESt6vectorImSaImEEE8addNodesIS8_EEbOT_ENKUlbSB_E_clImEEDabSB_
FN:53,60,_ZN7fishnet5graph12AdjacencyMapI6IDNodeSt4hashIS2_ESt8equal_toIS2_ESt6vectorIS2_SaIS2_EEE10removeNodeERKS2_
FN:53,60,_ZN7fishnet5graph12AdjacencyMapI6XYNodeSt4hashIS2_ESt8equal_toIS2_ESt6vectorIS2_SaIS2_EEE10removeNodeERKS2_
FN:53,60,_ZN7fishnet5graph12AdjacencyMapImSt4hashImESt8equal_toImESt6vectorImSaImEEE10removeNodeERKm
FN:62,64,_ZN7fishnet5graph12AdjacencyMapImSt4hashImESt8equal_toImESt6vectorImSaImEEE11removeNodesINSt6ranges14transform_viewINSB_8ref_viewIS6_I11ExampleNodeSaISE_EEEEZN24CachingMemgraphAdjacencyISE_E11removeNodesIRSG_EEbOT_EUlRKSM_E_EEEEvSN_
FN:62,64,_ZN7fishnet5graph12AdjacencyMapImSt4hashImESt8equal_toImESt6vectorImSaImEEE11removeNodesINSt6ranges14transform_viewINSB_9take_viewINSC_INSB_9iota_viewImjEEZN29MemgraphTest_removeNodes_Test8TestBodyEvEUlmE_EEEEZN24CachingMemgraphAdjacencyI11ExampleNodeE11removeNodesIRSJ_EEbOT_EUlRKSP_E_EEEEvSQ_
FN:63,63,_ZZN7fishnet5graph12AdjacencyMapImSt4hashImESt8equal_toImESt6vectorImSaImEEE11removeNodesINSt6ranges14transform_viewINSB_8ref_viewIS6_I11ExampleNodeSaISE_EEEEZN24CachingMemgraphAdjacencyISE_E11removeNodesIRSG_EEbOT_EUlRKSM_E_EEEEvSN_ENKUlSN_E_clImEEDaSN_
FN:63,63,_ZZN7fishnet5graph12AdjacencyMapImSt4hashImESt8equal_toImESt6vectorImSaImEEE11removeNodesINSt6ranges14transform_viewINSB_9take_viewINSC_INSB_9iota_viewImjEEZN29MemgraphTest_removeNodes_Test8TestBodyEvEUlmE_EEEEZN24CachingMemgraphAdjacencyI11ExampleNodeE11removeNodesIRSJ_EEbOT_EUlRKSP_E_EEEEvSQ_ENKUlSQ_E_clImEEDaSQ_
FN:66,71,_ZN7fishnet5graph12AdjacencyMapI6IDNodeSt4hashIS2_ESt8equal_toIS2_ESt6vectorIS2_SaIS2_EEE15removeAdjacencyERKS2_SC_
FN:66,71,_ZN7fishnet5graph12AdjacencyMapI6XYNodeSt4hashIS2_ESt8equal_toIS2_ESt6vectorIS2_SaIS2_EEE15removeAdjacencyERKS2_SC_
FN:66,71,_ZN7fishnet5graph12AdjacencyMapImSt4hashImESt8equal_toImESt6vectorImSaImEEE15removeAdjacencyERKmSB_
FN:68,68,_ZZN7fishnet5graph12AdjacencyMapI6IDNodeSt4hashIS2_ESt8equal_toIS2_ESt6vectorIS2_SaIS2_EEE15removeAdjacencyERKS2_SC_ENKUlRS2_E_clESD_
FN:68,68,_ZZN7fishnet5graph12AdjacencyMapI6XYNodeSt4hashIS2_ESt8equal_toIS2_ESt6vectorIS2_SaIS2_EEE15removeAdjacencyERKS2_SC_ENKUlRS2_E_clESD_
FN:68,68,_ZZN7fishnet5graph12AdjacencyMapImSt4hashImESt8equal_toImESt6vectorImSaImEEE15removeAdjacencyERKmSB_ENKUlRmE_clESC_
FN:73,75,_ZN7fishnet5graph12AdjacencyMapImSt4hashImESt8equal_toImESt6vectorImSaImEEE17removeAdjacenciesINSt6ranges14transform_viewINSB_11filter_viewINSB_8ref_viewIS6_ISt4pairI11ExampleNodeSG_ESaISH_EEEEZN35MemgraphTest_removeAdjacencies_Test8TestBodyEvEUlRKT_E_EEZN24CachingMemgraphAdjacencyISG_E17removeAdjacenciesIRSQ_EEbOSM_EUlSO_E_EEEEvSV_
FN:74,74,_ZZN7fishnet5graph12AdjacencyMapImSt4hashImESt8equal_toImESt6vectorImSaImEEE17removeAdjacenciesINSt6ranges14transform_viewINSB_11filter_viewINSB_8ref_viewIS6_ISt4pairI11ExampleNodeSG_ESaISH_EEEEZN35MemgraphTest_removeAdjacencies_Test8TestBodyEvEUlRKT_E_EEZN24CachingMemgraphAdjacencyISG_E17removeAdjacenciesIRSQ_EEbOSM_EUlSO_E_EEEEvSV_ENKUlSV_E_clISF_ImmEEEDaSV_
FN:77,79,_ZNK7fishnet5graph12AdjacencyMapI10DataIDNodeINSt7__cxx1112basic_stringIcSt11char_traitsIcESaIcEEEESt4hashIS9_ESt8equal_toIS9_ESt6vectorIS9_SaIS9_EEE8containsERKS9_
FN:77,79,_ZNK7fishnet5graph12AdjacencyMapI6IDNodeSt4hashIS2_ESt8equal_toIS2_ESt6vectorIS2_SaIS2_EEE8containsERKS2_
FN:77,79,_ZNK7fishnet5graph12AdjacencyMapI6XYNodeSt4hashIS2_ESt8equal_toIS2_ESt6vectorIS2_SaIS2_EEE8containsERKS2_
FN:77,79,_ZNK7fishnet5graph12AdjacencyMapImSt4hashImESt8equal_toImESt6vectorImSaImEEE8containsERKm
FN:81,83,_ZNK7fishnet5graph12AdjacencyMapI10DataIDNodeINSt7__cxx1112basic_stringIcSt11char_traitsIcESaIcEEEESt4hashIS9_ESt8equal_toIS9_ESt6vectorIS9_SaIS9_EEE12hasAdjacencyERKS9_SJ_
FN:81,83,_ZNK7fishnet5graph12AdjacencyMapI6IDNodeSt4hashIS2_ESt8equal_toIS2_ESt6vectorIS2_SaIS2_EEE12hasAdjacencyERKS2_SC_
FN:81,83,_ZNK7fishnet5graph12AdjacencyMapI6XYNodeSt4hashIS2_ESt8equal_toIS2_ESt6vectorIS2_SaIS2_EEE12hasAdjacencyERKS2_SC_
FN:81,83,_ZNK7fishnet5graph12AdjacencyMapImSt4hashImESt8equal_toImESt6vectorImSaImEEE12hasAdjacencyERKmSB_
FN:82,82,_ZZNK7fishnet5graph12AdjacencyMapI10DataIDNodeINSt7__cxx1112basic_stringIcSt11char_traitsIcESaIcEEEESt4hashIS9_ESt8equal_toIS9_ESt6vectorIS9_SaIS9_EEE12hasAdjacencyERKS9_SJ_ENKUlSJ_E_clESJ_
FN:82,82,_ZZNK7fishnet5graph12AdjacencyMapI6IDNodeSt4hashIS2_ESt8equal_toIS2_ESt6vectorIS2_SaIS2_EEE12hasAdjacencyERKS2_SC_ENKUlSC_E_clESC_
FN:82,82,_ZZNK7fishnet5graph12AdjacencyMapI6XYNodeSt4hashIS2_ESt8equal_toIS2_ESt6vectorIS2_SaIS2_EEE12hasAdjacencyERKS2_SC_ENKUlSC_E_clESC_
FN:82,82,_ZZNK7fishnet5graph12AdjacencyMapImSt4hashImESt8equal_toImESt6vectorImSaImEEE12hasAdjacencyERKmSB_ENKUlSB_E_clESB_
FN:85,90,_ZNK7fishnet5graph12AdjacencyMapI10DataIDNodeINSt7__cxx1112basic_stringIcSt11char_traitsIcESaIcEEEESt4hashIS9_ESt8equal_toIS9_ESt6vectorIS9_SaIS9_EEE9adjacencyERKS9_
FN:85,90,_ZNK7fishnet5graph12AdjacencyMapI6IDNodeSt4hashIS2_ESt8equal_toIS2_ESt6vectorIS2_SaIS2_EEE9adjacencyERKS2_
FN:85,90,_ZNK7fishnet5graph12AdjacencyMapI6XYNodeSt4hashIS2_ESt8equal_toIS2_ESt6vectorIS2_SaIS2_EEE9adjacencyERKS2_
FN:85,90,_ZNK7fishnet5graph12AdjacencyMapImSt4hashImESt8equal_toImESt6vectorImSaImEEE9adjacencyERKm
FN:92,94,_ZNK7fishnet5graph12AdjacencyMapI6IDNodeSt4hashIS2_ESt8equal_toIS2_ESt6vectorIS2_SaIS2_EEE5nodesEv
FN:92,94,_ZNK7fishnet5graph12AdjacencyMapI6XYNodeSt4hashIS2_ESt8equal_toIS2_ESt6vectorIS2_SaIS2_EEE5nodesEv
FN:92,94,_ZNK7fishnet5graph12AdjacencyMapImSt4hashImESt8equal_toImESt6vectorImSaImEEE5nodesEv
FN:96,102,_ZNK7fishnet5graph12AdjacencyMapI6IDNodeSt4hashIS2_ESt8equal_toIS2_ESt6vectorIS2_SaIS2_EEE17getAdjacencyPairsEv
FN:96,102,_ZNK7fishnet5graph12AdjacencyMapI6XYNodeSt4hashIS2_ESt8equal_toIS2_ESt6vectorIS2_SaIS2_EEE17getAdjacencyPairsEv
FN:96,102,_ZNK7fishnet5graph12AdjacencyMapImSt4hashImESt8equal_toImESt6vectorImSaImEEE17getAdjacencyPairsEv
FN:98,98,_ZZNK7fishnet5graph12AdjacencyMapI6IDNodeSt4hashIS2_ESt8equal_toIS2_ESt6vectorIS2_SaIS2_EEE17getAdjacencyPairsEvENKUlRKT_E_clISt4pairIKS2_S9_EEEDaSD_
FN:98,98,_ZZNK7fishnet5graph12AdjacencyMapI6XYNodeSt4hashIS2_ESt8equal_toIS2_ESt6vectorIS2_SaIS2_EEE17getAdjacencyPairsEvENKUlRKT_E_clISt4pairIKS2_S9_EEEDaSD_
FN:98,98,_ZZNK7fishnet5graph12AdjacencyMapImSt4hashImESt8equal_toImESt6vectorImSaImEEE17getAdjacencyPairsEvENKUlRKT_E_clISt4pairIKmS8_EEEDaSC_
FNDA:31,_ZZZNK7fishnet5graph12AdjacencyMapI6IDNodeSt4hashIS2_ESt8equal_toIS2_ESt6vectorIS2_SaIS2_EEE17getAdjacencyPairsEvENKUlRKT_E_clISt4pairIKS2_S9_EEEDaSD_ENKUlSD_E_clIS2_EEDaSD_
FNDA:4818,_ZZZNK7fishnet5graph12AdjacencyMapI6XYNodeSt4hashIS2_ESt8equal_toIS2_ESt6vectorIS2_SaIS2_EEE17getAdjacencyPairsEvENKUlRKT_E_clISt4pairIKS2_S9_EEEDaSD_ENKUlSD_E_clIS2_EEDaSD_
FNDA:24,_ZZZNK7fishnet5graph12AdjacencyMapImSt4hashImESt8equal_toImESt6vectorImSaImEEE17getAdjacencyPairsEvENKUlRKT_E_clISt4pairIKmS8_EEEDaSC_ENKUlSC_E_clImEEDaSC_
FNDA:1,_ZN7fishnet5graph12AdjacencyMapI6IDNodeSt4hashIS2_ESt8equal_toIS2_ESt6vectorIS2_SaIS2_EEE5clearEv
FNDA:2,_ZN7fishnet5graph12AdjacencyMapI6XYNodeSt4hashIS2_ESt8equal_toIS2_ESt6vectorIS2_SaIS2_EEE5clearEv
FNDA:1,_ZN7fishnet5graph12AdjacencyMapImSt4hashImESt8equal_toImESt6vectorImSaImEEE5clearEv
FNDA:297,_ZN7fishnet5graph12AdjacencyMapI10DataIDNodeINSt7__cxx1112basic_stringIcSt11char_traitsIcESaIcEEEESt4hashIS9_ESt8equal_toIS9_ESt6vectorIS9_SaIS9_EEE12addAdjacencyES9_S9_
FNDA:459,_ZN7fishnet5graph12AdjacencyMapI6IDNodeSt4hashIS2_ESt8equal_toIS2_ESt6vectorIS2_SaIS2_EEE12addAdjacencyES2_S2_
FNDA:5016,_ZN7fishnet5graph12AdjacencyMapI6XYNodeSt4hashIS2_ESt8equal_toIS2_ESt6vectorIS2_SaIS2_EEE12addAdjacencyES2_S2_
FNDA:254,_ZN7fishnet5graph12AdjacencyMapImSt4hashImESt8equal_toImESt6vectorImSaImEEE12addAdjacencyEmm
FNDA:2,_ZN7fishnet5graph12AdjacencyMapI6IDNodeSt4hashIS2_ESt8equal_toIS2_ESt6vectorIS2_SaIS2_EEE14addAdjacenciesIRS7_ISt4pairIS2_S2_ESaISD_EEEEvOT_
FNDA:2,_ZN7fishnet5graph12AdjacencyMapI6IDNodeSt4hashIS2_ESt8equal_toIS2_ESt6vectorIS2_SaIS2_EEE14addAdjacenciesIS7_ISt4pairIS2_S2_ESaISD_EEEEvOT_
FNDA:2,_ZN7fishnet5graph12AdjacencyMapImSt4hashImESt8equal_toImESt6vectorImSaImEEE14addAdjacenciesIS6_ISt4pairImmESaISC_EEEEvOT_
FNDA:4,_ZZN7fishnet5graph12AdjacencyMapI6IDNodeSt4hashIS2_ESt8equal_toIS2_ESt6vectorIS2_SaIS2_EEE14addAdjacenciesIRS7_ISt4pairIS2_S2_ESaISD_EEEEvOT_ENKUlRSH_E_clISD_EEDaSJ_
FNDA:4,_ZZN7fishnet5graph12AdjacencyMapI6IDNodeSt4hashIS2_ESt8equal_toIS2_ESt6vectorIS2_SaIS2_EEE14addAdjacenciesIS7_ISt4pairIS2_S2_ESaISD_EEEEvOT_ENKUlRSG_E_clISD_EEDaSI_
FNDA:200,_ZZN7fishnet5graph12AdjacencyMapImSt4hashImESt8equal_toImESt6vectorImSaImEEE14addAdjacenciesIS6_ISt4pairImmESaISC_EEEEvOT_ENKUlRSF_E_clISC_EEDaSH_
FNDA:225,_ZN7fishnet5graph12AdjacencyMapI6IDNodeSt4hashIS2_ESt8equal_toIS2_ESt6vectorIS2_SaIS2_EEE7addNodeERKS2_
FNDA:215,_ZN7fishnet5graph12AdjacencyMapI6XYNodeSt4hashIS2_ESt8equal_toIS2_ESt6vectorIS2_SaIS2_EEE7addNodeERKS2_
FNDA:1265,_ZN7fishnet5graph12AdjacencyMapImSt4hashImESt8equal_toImESt6vectorImSaImEEE7addNodeERKm
FNDA:38,_ZN7fishnet5graph12AdjacencyMapI6IDNodeSt4hashIS2_ESt8equal_toIS2_ESt6vectorIS2_SaIS2_EEE8addNodesIRS9_EEbOT_
FNDA:1,_ZN7fishnet5graph12AdjacencyMapI6XYNodeSt4hashIS2_ESt8equal_toIS2_ESt6vectorIS2_SaIS2_EEE8addNodesIRNSt6ranges13elements_viewINSC_8ref_viewISt13unordered_mapIiS2_S3_IiES5_IiESaISt4pairIKiS2_EEEEELm1EEEEEbOT_
FNDA:5,_ZN7fishnet5graph12AdjacencyMapI6XYNodeSt4hashIS2_ESt8equal_toIS2_ESt6vectorIS2_SaIS2_EEE8addNodesIRS9_EEbOT_
FNDA:2,_ZN7fishnet5graph12AdjacencyMapImSt4hashImESt8equal_toImESt6vectorImSaImEEE8addNodesIS8_EEbOT_
FNDA:150,_ZZN7fishnet5graph12AdjacencyMapI6IDNodeSt4hashIS2_ESt8equal_toIS2_ESt6vectorIS2_SaIS2_EEE8addNodesIRS9_EEbOT_ENKUlbSD_E_clIS2_EEDabSD_
FNDA:49,_ZZN7fishnet5graph12AdjacencyMapI6XYNodeSt4hashIS2_ESt8equal_toIS2_ESt6vectorIS2_SaIS2_EEE8addNodesIRNSt6ranges13elements_viewINSC_8ref_viewISt13unordered_mapIiS2_S3_IiES5_IiESaISt4pairIKiS2_EEEEELm1EEEEEbOT_ENKUlbSQ_E_clIS2_EEDabSQ_
FNDA:80,_ZZN7fishnet5graph12AdjacencyMapI6XYNodeSt4hashIS2_ESt8equal_toIS2_ESt6vectorIS2_SaIS2_EEE8addNodesIRS9_EEbOT_ENKUlbSD_E_clIS2_EEDabSD_
FNDA:1250,_ZZN7fishnet5graph12AdjacencyMapImSt4hashImESt8equal_toImESt6vectorImSaImEEE8addNodesIS8_EEbOT_ENKUlbSB_E_clImEEDabSB_
FNDA:2,_ZN7fishnet5graph12AdjacencyMapI6IDNodeSt4hashIS2_ESt8equal_toIS2_ESt6vectorIS2_SaIS2_EEE10removeNodeERKS2_
FNDA:3,_ZN7fishnet5graph12AdjacencyMapI6XYNodeSt4hashIS2_ESt8equal_toIS2_ESt6vectorIS2_SaIS2_EEE10removeNodeERKS2_
FNDA:128,_ZN7fishnet5graph12AdjacencyMapImSt4hashImESt8equal_toImESt6vectorImSaImEEE10removeNodeERKm
FNDA:1,_ZN7fishnet5graph12AdjacencyMapImSt4hashImESt8equal_toImESt6vectorImSaImEEE11removeNodesINSt6ranges14transform_viewINSB_8ref_viewIS6_I11ExampleNodeSaISE_EEEEZN24CachingMemgraphAdjacencyISE_E11removeNodesIRSG_EEbOT_EUlRKSM_E_EEEEvSN_
FNDA:1,_ZN7fishnet5graph12AdjacencyMapImSt4hashImESt8equal_toImESt6vectorImSaImEEE11removeNodesINSt6ranges14transform_viewINSB_9take_viewINSC_INSB_9iota_viewImjEEZN29MemgraphTest_removeNodes_Test8TestBodyEvEUlmE_EEEEZN24CachingMemgraphAdjacencyI11ExampleNodeE11removeNodesIRSJ_EEbOT_EUlRKSP_E_EEEEvSQ_
FNDA:2,_ZZN7fishnet5graph12AdjacencyMapImSt4hashImESt8equal_toImESt6vectorImSaImEEE11removeNodesINSt6ranges14transform_viewINSB_8ref_viewIS6_I11ExampleNodeSaISE_EEEEZN24CachingMemgraphAdjacencyISE_E11removeNodesIRSG_EEbOT_EUlRKSM_E_EEEEvSN_ENKUlSN_E_clImEEDaSN_
FNDA:125,_ZZN7fishnet5graph12AdjacencyMapImSt4hashImESt8equal_toImESt6vectorImSaImEEE11removeNodesINSt6ranges14transform_viewINSB_9take_viewINSC_INSB_9iota_viewImjEEZN29MemgraphTest_removeNodes_Test8TestBodyEvEUlmE_EEEEZN24CachingMemgraphAdjacencyI11ExampleNodeE11removeNodesIRSJ_EEbOT_EUlRKSP_E_EEEEvSQ_ENKUlSQ_E_clImEEDaSQ_
FNDA:11,_ZN7fishnet5graph12AdjacencyMapI6IDNodeSt4hashIS2_ESt8equal_toIS2_ESt6vectorIS2_SaIS2_EEE15removeAdjacencyERKS2_SC_
FNDA:5,_ZN7fishnet5graph12AdjacencyMapI6XYNodeSt4hashIS2_ESt8equal_toIS2_ESt6vectorIS2_SaIS2_EEE15removeAdjacencyERKS2_SC_
FNDA:103,_ZN7fishnet5graph12AdjacencyMapImSt4hashImESt8equal_toImESt6vectorImSaImEEE15removeAdjacencyERKmSB_
FNDA:12,_ZZN7fishnet5graph12AdjacencyMapI6IDNodeSt4hashIS2_ESt8equal_toIS2_ESt6vectorIS2_SaIS2_EEE15removeAdjacencyERKS2_SC_ENKUlRS2_E_clESD_
FNDA:8,_ZZN7fishnet5graph12AdjacencyMapI6XYNodeSt4hashIS2_ESt8equal_toIS2_ESt6vectorIS2_SaIS2_EEE15removeAdjacencyERKS2_SC_ENKUlRS2_E_clESD_
FNDA:102,_ZZN7fishnet5graph12AdjacencyMapImSt4hashImESt8equal_toImESt6vectorImSaImEEE15removeAdjacencyERKmSB_ENKUlRmE_clESC_
FNDA:1,_ZN7fishnet5graph12AdjacencyMapImSt4hashImESt8equal_toImESt6vectorImSaImEEE17removeAdjacenciesINSt6ranges14transform_viewINSB_11filter_viewINSB_8ref_viewIS6_ISt4pairI11ExampleNodeSG_ESaISH_EEEEZN35MemgraphTest_removeAdjacencies_Test8TestBodyEvEUlRKT_E_EEZN24CachingMemgraphAdjacencyISG_E17removeAdjacenciesIRSQ_EEbOSM_EUlSO_E_EEEEvSV_
FNDA:99,_ZZN7fishnet5graph12AdjacencyMapImSt4hashImESt8equal_toImESt6vectorImSaImEEE17removeAdjacenciesINSt6ranges14transform_viewINSB_11filter_viewINSB_8ref_viewIS6_ISt4pairI11ExampleNodeSG_ESaISH_EEEEZN35MemgraphTest_removeAdjacencies_Test8TestBodyEvEUlRKT_E_EEZN24CachingMemgraphAdjacencyISG_E17removeAdjacenciesIRSQ_EEbOSM_EUlSO_E_EEEEvSV_ENKUlSV_E_clISF_ImmEEEDaSV_
FNDA:230,_ZNK7fishnet5graph12AdjacencyMapI10DataIDNodeINSt7__cxx1112basic_stringIcSt11char_traitsIcESaIcEEEESt4hashIS9_ESt8equal_toIS9_ESt6vectorIS9_SaIS9_EEE8containsERKS9_
FNDA:591,_ZNK7fishnet5graph12AdjacencyMapI6IDNodeSt4hashIS2_ESt8equal_toIS2_ESt6vectorIS2_SaIS2_EEE8containsERKS2_
FNDA:5163,_ZNK7fishnet5graph12AdjacencyMapI6XYNodeSt4hashIS2_ESt8equal_toIS2_ESt6vectorIS2_SaIS2_EEE8containsERKS2_
FNDA:2245,_ZNK7fishnet5graph12AdjacencyMapImSt4hashImESt8equal_toImESt6vectorImSaImEEE8containsERKm
FNDA:198,_ZNK7fishnet5graph12AdjacencyMapI10DataIDNodeINSt7__cxx1112basic_stringIcSt11char_traitsIcESaIcEEEESt4hashIS9_ESt8equal_toIS9_ESt6vectorIS9_SaIS9_EEE12hasAdjacencyERKS9_SJ_
FNDA:423,_ZNK7fishnet5graph12AdjacencyMapI6IDNodeSt4hashIS2_ESt8equal_toIS2_ESt6vectorIS2_SaIS2_EEE12hasAdjacencyERKS2_SC_
FNDA:4984,_ZNK7fishnet5graph12AdjacencyMapI6XYNodeSt4hashIS2_ESt8equal_toIS2_ESt6vectorIS2_SaIS2_EEE12hasAdjacencyERKS2_SC_
FNDA:422,_ZNK7fishnet5graph12AdjacencyMapImSt4hashImESt8equal_toImESt6vectorImSaImEEE12hasAdjacencyERKmSB_
FNDA:121,_ZZNK7fishnet5graph12AdjacencyMapI10DataIDNodeINSt7__cxx1112basic_stringIcSt11char_traitsIcESaIcEEEESt4hashIS9_ESt8equal_toIS9_ESt6vectorIS9_SaIS9_EEE12hasAdjacencyERKS9_SJ_ENKUlSJ_E_clESJ_
FNDA:528,_ZZNK7fishnet5graph12AdjacencyMapI6IDNodeSt4hashIS2_ESt8equal_toIS2_ESt6vectorIS2_SaIS2_EEE12hasAdjacencyERKS2_SC_ENKUlSC_E_clESC_
FNDA:128602,_ZZNK7fishnet5graph12AdjacencyMapI6XYNodeSt4hashIS2_ESt8equal_toIS2_ESt6vectorIS2_SaIS2_EEE12hasAdjacencyERKS2_SC_ENKUlSC_E_clESC_
FNDA:268,_ZZNK7fishnet5graph12AdjacencyMapImSt4hashImESt8equal_toImESt6vectorImSaImEEE12hasAdjacencyERKmSB_ENKUlSB_E_clESB_
FNDA:32,_ZNK7fishnet5graph12AdjacencyMapI10DataIDNodeINSt7__cxx1112basic_stringIcSt11char_traitsIcESaIcEEEESt4hashIS9_ESt8equal_toIS9_ESt6vectorIS9_SaIS9_EEE9adjacencyERKS9_
FNDA:77,_ZNK7fishnet5graph12AdjacencyMapI6IDNodeSt4hashIS2_ESt8equal_toIS2_ESt6vectorIS2_SaIS2_EEE9adjacencyERKS2_
FNDA:150,_ZNK7fishnet5graph12AdjacencyMapI6XYNodeSt4hashIS2_ESt8equal_toIS2_ESt6vectorIS2_SaIS2_EEE9adjacencyERKS2_
FNDA:181,_ZNK7fishnet5graph12AdjacencyMapImSt4hashImESt8equal_toImESt6vectorImSaImEEE9adjacencyERKm
FNDA:42,_ZNK7fishnet5graph12AdjacencyMapI6IDNodeSt4hashIS2_ESt8equal_toIS2_ESt6vectorIS2_SaIS2_EEE5nodesEv
FNDA:25,_ZNK7fishnet5graph12AdjacencyMapI6XYNodeSt4hashIS2_ESt8equal_toIS2_ESt6vectorIS2_SaIS2_EEE5nodesEv
FNDA:19,_ZNK7fishnet5graph12AdjacencyMapImSt4hashImESt8equal_toImESt6vectorImSaImEEE5nodesEv
FNDA:15,_ZNK7fishnet5graph12AdjacencyMapI6IDNodeSt4hashIS2_ESt8equal_toIS2_ESt6vectorIS2_SaIS2_EEE17getAdjacencyPairsEv
FNDA:9,_ZNK7fishnet5graph12AdjacencyMapI6XYNodeSt4hashIS2_ESt8equal_toIS2_ESt6vectorIS2_SaIS2_EEE17getAdjacencyPairsEv
FNDA:6,_ZNK7fishnet5graph12AdjacencyMapImSt4hashImESt8equal_toImESt6vectorImSaImEEE17getAdjacencyPairsEv
FNDA:35,_ZZNK7fishnet5graph12AdjacencyMapI6IDNodeSt4hashIS2_ESt8equal_toIS2_ESt6vectorIS2_SaIS2_EEE17getAdjacencyPairsEvENKUlRKT_E_clISt4pairIKS2_S9_EEEDaSD_
FNDA:114,_ZZNK7fishnet5graph12AdjacencyMapI6XYNodeSt4hashIS2_ESt8equal_toIS2_ESt6vectorIS2_SaIS2_EEE17getAdjacencyPairsEvENKUlRKT_E_clISt4pairIKS2_S9_EEEDaSD_
FNDA:35,_ZZNK7fishnet5graph12AdjacencyMapImSt4hashImESt8equal_toImESt6vectorImSaImEEE17getAdjacencyPairsEvENKUlRKT_E_clISt4pairIKmS8_EEEDaSC_
FNF:67
FNH:67
DA:31,6026
DA:32,6026
DA:33,6026
DA:34,6026
DA:35,6026
DA:37,6
DA:38,214
DA:39,6
DA:41,1705
DA:42,1705
DA:49,46
DA:50,1575
DA:53,133
DA:54,133
DA:55,133
DA:56,4
DA:58,129
DA:60,133
DA:62,2
DA:63,129
DA:64,2
DA:66,119
DA:67,119
DA:68,239
DA:69,117
DA:71,119
DA:73,1
DA:74,100
DA:75,1
DA:77,8229
DA:78,8229
DA:81,6027
DA:82,135546
DA:85,440
DA:86,440
DA:87,399
DA:89,41
DA:92,86
DA:93,86
DA:96,30
DA:97,30
DA:98,90
DA:99,184
DA:100,5057
DA:101,30
DA:104,4
DA:105,4
DA:106,4
LF:48
LH:48
end_of_record
TN:
SF:/home/lolo/Documents/fishnet/lib/graph/algorithm/include/fishnet/BFSAlgorithm.hpp
FN:113,119,_ZN7fishnet5graph3BFS19connectedComponentsINS0_6__impl11SimpleGraphINS3_8BaseEdgeI6XYNodeLb0ESt4hashIS6_ESt8equal_toIS6_EEENS0_12AdjacencyMapIS6_S8_SA_St6vectorIS6_SaIS6_EEEEEEN23ConnectedComponentsTest23DistanceXYNodePredicateEEEDaRKT_St10shared_ptrINS_4util13BlockingQueueISt4pairIiSD_INSK_9node_typeESaISR_EEEEEERKT0_
FN:113,119,_ZN7fishnet5graph3BFS19connectedComponentsINS0_6__impl22WeightedGraphDecoratorINS3_11SimpleGraphINS3_8BaseEdgeI6XYNodeLb0ESt4hashIS7_ESt8equal_toIS7_EEENS0_12AdjacencyMapIS7_S9_SB_St6vectorIS7_SaIS7_EEEEEEd16DistanceFunctionEE14MergePredicateEEDaRKT_St10shared_ptrINS_4util13BlockingQueueISt4pairIiSE_INSM_9node_typeESaIST_EEEEEERKT0_
FN:144,151,_ZN7fishnet5graph3BFS8findPathINS0_6__impl11SimpleGraphINS3_8BaseEdgeI10DataIDNodeINSt7__cxx1112basic_stringIcSt11char_traitsIcESaIcEEEELb0ESt4hashISD_ESt8equal_toISD_EEENS0_12AdjacencyMapISD_SF_SH_St6vectorISD_SaISD_EEEEEEEEDaRKT_RKNSP_9node_typeESU_
FN:144,151,_ZN7fishnet5graph3BFS8findPathINS0_6__impl11SimpleGraphINS3_8BaseEdgeI10DataIDNodeINSt7__cxx1112basic_stringIcSt11char_traitsIcESaIcEEEELb1ESt4hashISD_ESt8equal_toISD_EEENS0_12AdjacencyMapISD_SF_SH_St6vectorISD_SaISD_EEEEEEEEDaRKT_RKNSP_9node_typeESU_
FN:144,151,_ZN7fishnet5graph3BFS8findPathINS0_6__impl11SimpleGraphINS3_8BaseEdgeImLb1ESt4hashImESt8equal_toImEEENS0_12AdjacencyMapImS7_S9_St6vectorImSaImEEEEEEEEDaRKT_RKNSH_9node_typeESM_
FN:163,175,_ZN7fishnet5graph3BFS7getPathINS0_6__impl11SimpleGraphINS3_8BaseEdgeI10DataIDNodeINSt7__cxx1112basic_stringIcSt11char_traitsIcESaIcEEEELb0ESt4hashISD_ESt8equal_toISD_EEENS0_12AdjacencyMapISD_SF_SH_St6vectorISD_SaISD_EEEEEEEEDaRKT_RKNSP_9node_typeESU_
FN:163,175,_ZN7fishnet5graph3BFS7getPathINS0_6__impl11SimpleGraphINS3_8BaseEdgeI10DataIDNodeINSt7__cxx1112basic_stringIcSt11char_traitsIcESaIcEEEELb1ESt4hashISD_ESt8equal_toISD_EEENS0_12AdjacencyMapISD_SF_SH_St6vectorISD_SaISD_EEEEEEEEDaRKT_RKNSP_9node_typeESU_
FN:31,48,_ZN7fishnet5graph6__implL3bfsINS1_11SimpleGraphINS1_8BaseEdgeI10DataIDNodeINSt7__cxx1112basic_stringIcSt11char_traitsIcESaIcEEEELb0ESt4hashISC_ESt8equal_toISC_EEENS0_12AdjacencyMapISC_SE_SG_St6vectorISC_SaISC_EEEEEENS0_10SearchPathISH_SE_SG_EENS1_18DefaultBiPredicateISC_EEEEvRKT_RT0_RKNSS_9node_typeERKT1_
FN:31,48,_ZN7fishnet5graph6__implL3bfsINS1_11SimpleGraphINS1_8BaseEdgeI10DataIDNodeINSt7__cxx1112basic_stringIcSt11char_traitsIcESaIcEEEELb1ESt4hashISC_ESt8equal_toISC_EEENS0_12AdjacencyMapISC_SE_SG_St6vectorISC_SaISC_EEEEEENS0_10SearchPathISH_SE_SG_EENS1_18DefaultBiPredicateISC_EEEEvRKT_RT0_RKNSS_9node_typeERKT1_
FN:31,48,_ZN7fishnet5graph6__implL3bfsINS1_11SimpleGraphINS1_8BaseEdgeI6IDNodeLb0ESt4hashIS5_ESt8equal_toIS5_EEENS0_12AdjacencyMapIS5_S7_S9_St6vectorIS5_SaIS5_EEEEEENS0_19ConnectedComponentsIS5_S7_S9_EENS1_18DefaultBiPredicateIS5_EEEEvRKT_RT0_RKNSL_9node_typeERKT1_
FN:31,48,_ZN7fishnet5graph6__implL3bfsINS1_11SimpleGraphINS1_8BaseEdgeI6XYNodeLb0ESt4hashIS5_ESt8equal_toIS5_EEENS0_12AdjacencyMapIS5_S7_S9_St6vectorIS5_SaIS5_EEEEEENS0_19ConnectedComponentsIS5_S7_S9_EEN23ConnectedComponentsTest23DistanceXYNodePredicateEEEvRKT_RT0_RKNSL_9node_typeERKT1_
FN:31,48,_ZN7fishnet5graph6__implL3bfsINS1_11SimpleGraphINS1_8BaseEdgeI6XYNodeLb0ESt4hashIS5_ESt8equal_toIS5_EEENS0_12AdjacencyMapIS5_S7_S9_St6vectorIS5_SaIS5_EEEEEENS0_29ConcurrentConnectedComponentsIS5_S7_S9_EEN23ConnectedComponentsTest23DistanceXYNodePredicateEEEvRKT_RT0_RKNSL_9node_typeERKT1_
FN:31,48,_ZN7fishnet5graph6__implL3bfsINS1_11SimpleGraphINS1_8BaseEdgeImLb1ESt4hashImESt8equal_toImEEENS0_12AdjacencyMapImS6_S8_St6vectorImSaImEEEEEENS0_10SearchPathIS9_S6_S8_EENS1_18DefaultBiPredicateImEEEEvRKT_RT0_RKNSK_9node_typeERKT1_
FN:31,48,_ZN7fishnet5graph6__implL3bfsINS1_22WeightedGraphDecoratorINS1_11SimpleGraphINS1_8BaseEdgeI6XYNodeLb0ESt4hashIS6_ESt8equal_toIS6_EEENS0_12AdjacencyMapIS6_S8_SA_St6vectorIS6_SaIS6_EEEEEEd16DistanceFunctionEENS0_29ConcurrentConnectedComponentsIS6_S8_SA_EE14MergePredicateEEvRKT_RT0_RKNSN_9node_typeERKT1_
FN:59,69,_ZN7fishnet5graph6__implL7bfs_allINS1_11SimpleGraphINS1_8BaseEdgeI6IDNodeLb0ESt4hashIS5_ESt8equal_toIS5_EEENS0_12AdjacencyMapIS5_S7_S9_St6vectorIS5_SaIS5_EEEEEESG_NS0_19ConnectedComponentsIS5_S7_S9_EENS1_18DefaultBiPredicateIS5_EEEEvRKT0_RT1_RKT2_
FN:59,69,_ZN7fishnet5graph6__implL7bfs_allINS1_11SimpleGraphINS1_8BaseEdgeI6XYNodeLb0ESt4hashIS5_ESt8equal_toIS5_EEENS0_12AdjacencyMapIS5_S7_S9_St6vectorIS5_SaIS5_EEEEEESG_NS0_19ConnectedComponentsIS5_S7_S9_EEN23ConnectedComponentsTest23DistanceXYNodePredicateEEEvRKT0_RT1_RKT2_
FN:59,69,_ZN7fishnet5graph6__implL7bfs_allINS1_11SimpleGraphINS1_8BaseEdgeI6XYNodeLb0ESt4hashIS5_ESt8equal_toIS5_EEENS0_12AdjacencyMapIS5_S7_S9_St6vectorIS5_SaIS5_EEEEEESG_NS0_29ConcurrentConnectedComponentsIS5_S7_S9_EEN23ConnectedComponentsTest23DistanceXYNodePredicateEEEvRKT0_RT1_RKT2_
FN:59,69,_ZN7fishnet5graph6__implL7bfs_allINS1_22WeightedGraphDecoratorINS1_11SimpleGraphINS1_8BaseEdgeI6XYNodeLb0ESt4hashIS6_ESt8equal_toIS6_EEENS0_12AdjacencyMapIS6_S8_SA_St6vectorIS6_SaIS6_EEEEEEd16DistanceFunctionEESJ_NS0_29ConcurrentConnectedComponentsIS6_S8_SA_EE14MergePredicateEEvRKT0_RT1_RKT2_
FN:83,89,_ZN7fishnet5graph3BFS19connectedComponentsINS0_6__impl11SimpleGraphINS3_8BaseEdgeI6IDNodeLb0ESt4hashIS6_ESt8equal_toIS6_EEENS0_12AdjacencyMapIS6_S8_SA_St6vectorIS6_SaIS6_EEEEEENS3_18DefaultBiPredicateIS6_EEEEDaRKT_RKT0_
FN:83,89,_ZN7fishnet5graph3BFS19connectedComponentsINS0_6__impl11SimpleGraphINS3_8BaseEdgeI6XYNodeLb0ESt4hashIS6_ESt8equal_toIS6_EEENS0_12AdjacencyMapIS6_S8_SA_St6vectorIS6_SaIS6_EEEEEEN23ConnectedComponentsTest23DistanceXYNodePredicateEEEDaRKT_RKT0_
FN:99,101,_ZN7fishnet5graph3BFS19connectedComponentsINS0_6__impl11SimpleGraphINS3_8BaseEdgeI6IDNodeLb0ESt4hashIS6_ESt8equal_toIS6_EEENS0_12AdjacencyMapIS6_S8_SA_St6vectorIS6_SaIS6_EEEEEEEEDaRKT_
FNDA:1,_ZN7fishnet5graph3BFS19connectedComponentsINS0_6__impl11SimpleGraphINS3_8BaseEdgeI6XYNodeLb0ESt4hashIS6_ESt8equal_toIS6_EEENS0_12AdjacencyMapIS6_S8_SA_St6vectorIS6_SaIS6_EEEEEEN23ConnectedComponentsTest23DistanceXYNodePredicateEEEDaRKT_St10shared_ptrINS_4util13BlockingQueueISt4pairIiSD_INSK_9node_typeESaISR_EEEEEERKT0_
FNDA:1,_ZN7fishnet5graph3BFS19connectedComponentsINS0_6__impl22WeightedGraphDecoratorINS3_11SimpleGraphINS3_8BaseEdgeI6XYNodeLb0ESt4hashIS7_ESt8equal_toIS7_EEENS0_12AdjacencyMapIS7_S9_SB_St6vectorIS7_SaIS7_EEEEEEd16DistanceFunctionEE14MergePredicateEEDaRKT_St10shared_ptrINS_4util13BlockingQueueISt4pairIiSE_INSM_9node_typeESaIST_EEEEEERKT0_
FNDA:3,_ZN7fishnet5graph3BFS8findPathINS0_6__impl11SimpleGraphINS3_8BaseEdgeI10DataIDNodeINSt7__cxx1112basic_stringIcSt11char_traitsIcESaIcEEEELb0ESt4hashISD_ESt8equal_toISD_EEENS0_12AdjacencyMapISD_SF_SH_St6vectorISD_SaISD_EEEEEEEEDaRKT_RKNSP_9node_typeESU_
FNDA:6,_ZN7fishnet5graph3BFS8findPathINS0_6__impl11SimpleGraphINS3_8BaseEdgeI10DataIDNodeINSt7__cxx1112basic_stringIcSt11char_traitsIcESaIcEEEELb1ESt4hashISD_ESt8equal_toISD_EEENS0_12AdjacencyMapISD_SF_SH_St6vectorISD_SaISD_EEEEEEEEDaRKT_RKNSP_9node_typeESU_
FNDA:42,_ZN7fishnet5graph3BFS8findPathINS0_6__impl11SimpleGraphINS3_8BaseEdgeImLb1ESt4hashImESt8equal_toImEEENS0_12AdjacencyMapImS7_S9_St6vectorImSaImEEEEEEEEDaRKT_RKNSH_9node_typeESM_
FNDA:3,_ZN7fishnet5graph3BFS7getPathINS0_6__impl11SimpleGraphINS3_8BaseEdgeI10DataIDNodeINSt7__cxx1112basic_stringIcSt11char_traitsIcESaIcEEEELb0ESt4hashISD_ESt8equal_toISD_EEENS0_12AdjacencyMapISD_SF_SH_St6vectorISD_SaISD_EEEEEEEEDaRKT_RKNSP_9node_typeESU_
FNDA:6,_ZN7fishnet5graph3BFS7getPathINS0_6__impl11SimpleGraphINS3_8BaseEdgeI10DataIDNodeINSt7__cxx1112basic_stringIcSt11char_traitsIcESaIcEEEELb1ESt4hashISD_ESt8equal_toISD_EEENS0_12AdjacencyMapISD_SF_SH_St6vectorISD_SaISD_EEEEEEEEDaRKT_RKNSP_9node_typeESU_
FNDA:3,_ZN7fishnet5graph6__implL3bfsINS1_11SimpleGraphINS1_8BaseEdgeI10DataIDNodeINSt7__cxx1112basic_stringIcSt11char_traitsIcESaIcEEEELb0ESt4hashISC_ESt8equal_toISC_EEENS0_12AdjacencyMapISC_SE_SG_St6vectorISC_SaISC_EEEEEENS0_10SearchPathISH_SE_SG_EENS1_18DefaultBiPredicateISC_EEEEvRKT_RT0_RKNSS_9node_typeERKT1_
FNDA:6,_ZN7fishnet5graph6__implL3bfsINS1_11SimpleGraphINS1_8BaseEdgeI10DataIDNodeINSt7__cxx1112basic_stringIcSt11char_traitsIcESaIcEEEELb1ESt4hashISC_ESt8equal_toISC_EEENS0_12AdjacencyMapISC_SE_SG_St6vectorISC_SaISC_EEEEEENS0_10SearchPathISH_SE_SG_EENS1_18DefaultBiPredicateISC_EEEEvRKT_RT0_RKNSS_9node_typeERKT1_
FNDA:1,_ZN7fishnet5graph6__implL3bfsINS1_11SimpleGraphINS1_8BaseEdgeI6IDNodeLb0ESt4hashIS5_ESt8equal_toIS5_EEENS0_12AdjacencyMapIS5_S7_S9_St6vectorIS5_SaIS5_EEEEEENS0_19ConnectedComponentsIS5_S7_S9_EENS1_18DefaultBiPredicateIS5_EEEEvRKT_RT0_RKNSL_9node_typeERKT1_
FNDA:7,_ZN7fishnet5graph6__implL3bfsINS1_11SimpleGraphINS1_8BaseEdgeI6XYNodeLb0ESt4hashIS5_ESt8equal_toIS5_EEENS0_12AdjacencyMapIS5_S7_S9_St6vectorIS5_SaIS5_EEEEEENS0_19ConnectedComponentsIS5_S7_S9_EEN23ConnectedComponentsTest23DistanceXYNodePredicateEEEvRKT_RT0_RKNSL_9node_typeERKT1_
FNDA:7,_ZN7fishnet5graph6__implL3bfsINS1_11SimpleGraphINS1_8BaseEdgeI6XYNodeLb0ESt4hashIS5_ESt8equal_toIS5_EEENS0_12AdjacencyMapIS5_S7_S9_St6vectorIS5_SaIS5_EEEEEENS0_29ConcurrentConnectedComponentsIS5_S7_S9_EEN23ConnectedComponentsTest23DistanceXYNodePredicateEEEvRKT_RT0_RKNSL_9node_typeERKT1_
FNDA:42,_ZN7fishnet5graph6__implL3bfsINS1_11SimpleGraphINS1_8BaseEdgeImLb1ESt4hashImESt8equal_toImEEENS0_12AdjacencyMapImS6_S8_St6vectorImSaImEEEEEENS0_10SearchPathIS9_S6_S8_EENS1_18DefaultBiPredicateImEEEEvRKT_RT0_RKNSK_9node_typeERKT1_
FNDA:49,_ZN7fishnet5graph6__implL3bfsINS1_22WeightedGraphDecoratorINS1_11SimpleGraphINS1_8BaseEdgeI6XYNodeLb0ESt4hashIS6_ESt8equal_toIS6_EEENS0_12AdjacencyMapIS6_S8_SA_St6vectorIS6_SaIS6_EEEEEEd16DistanceFunctionEENS0_29ConcurrentConnectedComponentsIS6_S8_SA_EE14MergePredicateEEvRKT_RT0_RKNSN_9node_typeERKT1_
FNDA:1,_ZN7fishnet5graph6__implL7bfs_allINS1_11SimpleGraphINS1_8BaseEdgeI6IDNodeLb0ESt4hashIS5_ESt8equal_toIS5_EEENS0_12AdjacencyMapIS5_S7_S9_St6vectorIS5_SaIS5_EEEEEESG_NS0_19ConnectedComponentsIS5_S7_S9_EENS1_18DefaultBiPredicateIS5_EEEEvRKT0_RT1_RKT2_
FNDA:1,_ZN7fishnet5graph6__implL7bfs_allINS1_11SimpleGraphINS1_8BaseEdgeI6XYNodeLb0ESt4hashIS5_ESt8equal_toIS5_EEENS0_12AdjacencyMapIS5_S7_S9_St6vectorIS5_SaIS5_EEEEEESG_NS0_19ConnectedComponentsIS5_S7_S9_EEN23ConnectedComponentsTest23DistanceXYNodePredicateEEEvRKT0_RT1_RKT2_
FNDA:1,_ZN7fishnet5graph6__implL7bfs_allINS1_11SimpleGraphINS1_8BaseEdgeI6XYNodeLb0ESt4hashIS5_ESt8equal_toIS5_EEENS0_12AdjacencyMapIS5_S7_S9_St6vectorIS5_SaIS5_EEEEEESG_NS0_29ConcurrentConnectedComponentsIS5_S7_S9_EEN23ConnectedComponentsTest23DistanceXYNodePredicateEEEvRKT0_RT1_RKT2_
FNDA:1,_ZN7fishnet5graph6__implL7bfs_allINS1_22WeightedGraphDecoratorINS1_11SimpleGraphINS1_8BaseEdgeI6XYNodeLb0ESt4hashIS6_ESt8equal_toIS6_EEENS0_12AdjacencyMapIS6_S8_SA_St6vectorIS6_SaIS6_EEEEEEd16DistanceFunctionEESJ_NS0_29ConcurrentConnectedComponentsIS6_S8_SA_EE14MergePredicateEEvRKT0_RT1_RKT2_
FNDA:1,_ZN7fishnet5graph3BFS19connectedComponentsINS0_6__impl11SimpleGraphINS3_8BaseEdgeI6IDNodeLb0ESt4hashIS6_ESt8equal_toIS6_EEENS0_12AdjacencyMapIS6_S8_SA_St6vectorIS6_SaIS6_EEEEEENS3_18DefaultBiPredicateIS6_EEEEDaRKT_RKT0_
FNDA:1,_ZN7fishnet5graph3BFS19connectedComponentsINS0_6__impl11SimpleGraphINS3_8BaseEdgeI6XYNodeLb0ESt4hashIS6_ESt8equal_toIS6_EEENS0_12AdjacencyMapIS6_S8_SA_St6vectorIS6_SaIS6_EEEEEEN23ConnectedComponentsTest23DistanceXYNodePredicateEEEDaRKT_RKT0_
FNDA:1,_ZN7fishnet5graph3BFS19connectedComponentsINS0_6__impl11SimpleGraphINS3_8BaseEdgeI6IDNodeLb0ESt4hashIS6_ESt8equal_toIS6_EEENS0_12AdjacencyMapIS6_S8_SA_St6vectorIS6_SaIS6_EEEEEEEEDaRKT_
FNF:21
FNH:21
DA:31,115
DA:33,115
DA:34,115
DA:35,291
DA:36,147
DA:37,147
DA:38,147
DA:39,2702
DA:40,2555
DA:41,45
DA:42,45
DA:43,45
DA:46,147
DA:48,115
DA:59,4
DA:60,4
DA:61,84
DA:62,76
DA:63,0
DA:65,76
DA:66,64
DA:83,2
DA:86,2
DA:87,2
DA:88,2
DA:89,0
DA:99,1
DA:100,2
DA:113,2
DA:116,2
DA:117,2
DA:118,2
DA:119,0
DA:144,51
DA:148,51
DA:149,51
DA:150,51
DA:151,0
DA:163,9
DA:165,9
DA:166,9
DA:167,4
DA:169,5
DA:170,5
DA:171,14
DA:172,9
DA:174,5
DA:175,9
LF:48
LH:44
end_of_record
TN:
SF:/home/lolo/Documents/fishnet/lib/graph/algorithm/include/fishnet/ConcurrentConnectedComponents.hpp
FN:19,21,_ZN7fishnet5graph29ConcurrentConnectedComponentsI6XYNodeSt4hashIS2_ESt8equal_toIS2_EE11handleCloseEv
FN:23,23,_ZN7fishnet5graph29ConcurrentConnectedComponentsI6XYNodeSt4hashIS2_ESt8equal_toIS2_EEC2ESt10shared_ptrINS_4util13BlockingQueueISt4pairIiSt6vectorIS2_SaIS2_EEEEEE
FN:24,24,_ZN7fishnet5graph29ConcurrentConnectedComponentsI6XYNodeSt4hashIS2_ESt8equal_toIS2_EED0Ev
FN:24,24,_ZN7fishnet5graph29ConcurrentConnectedComponentsI6XYNodeSt4hashIS2_ESt8equal_toIS2_EED2Ev
FNDA:56,_ZN7fishnet5graph29ConcurrentConnectedComponentsI6XYNodeSt4hashIS2_ESt8equal_toIS2_EE11handleCloseEv
FNDA:2,_ZN7fishnet5graph29ConcurrentConnectedComponentsI6XYNodeSt4hashIS2_ESt8equal_toIS2_EEC2ESt10shared_ptrINS_4util13BlockingQueueISt4pairIiSt6vectorIS2_SaIS2_EEEEEE
FNDA:0,_ZN7fishnet5graph29ConcurrentConnectedComponentsI6XYNodeSt4hashIS2_ESt8equal_toIS2_EED0Ev
FNDA:4,_ZN7fishnet5graph29ConcurrentConnectedComponentsI6XYNodeSt4hashIS2_ESt8equal_toIS2_EED2Ev
FNF:4
FNH:3
DA:19,56
DA:20,56
DA:21,56
DA:23,2
DA:24,4
LF:5
LH:5
end_of_record
TN:
SF:/home/lolo/Documents/fishnet/lib/graph/algorithm/include/fishnet/ConnectedComponents.hpp
FN:20,22,_ZN7fishnet5graph19ConnectedComponentsI6IDNodeSt4hashIS2_ESt8equal_toIS2_EE11handleCloseEv
FN:20,22,_ZN7fishnet5graph19ConnectedComponentsI6XYNodeSt4hashIS2_ESt8equal_toIS2_EE11handleCloseEv
FN:26,30,_ZN7fishnet5graph19ConnectedComponentsI6IDNodeSt4hashIS2_ESt8equal_toIS2_EEC2Ev
FN:26,30,_ZN7fishnet5graph19ConnectedComponentsI6XYNodeSt4hashIS2_ESt8equal_toIS2_EEC2Ev
FN:32,39,_ZN7fishnet5graph19ConnectedComponentsI6IDNodeSt4hashIS2_ESt8equal_toIS2_EE6onOpenERKS2_
FN:32,39,_ZN7fishnet5graph19ConnectedComponentsI6XYNodeSt4hashIS2_ESt8equal_toIS2_EE6onOpenERKS2_
FN:42,44,_ZN7fishnet5graph19ConnectedComponentsI6IDNodeSt4hashIS2_ESt8equal_toIS2_EE6onEdgeERKS2_S9_
FN:42,44,_ZN7fishnet5graph19ConnectedComponentsI6XYNodeSt4hashIS2_ESt8equal_toIS2_EE6onEdgeERKS2_S9_
FN:46,53,_ZN7fishnet5graph19ConnectedComponentsI6IDNodeSt4hashIS2_ESt8equal_toIS2_EE7onCloseERKS2_
FN:46,53,_ZN7fishnet5graph19ConnectedComponentsI6XYNodeSt4hashIS2_ESt8equal_toIS2_EE7onCloseERKS2_
FN:55,57,_ZNK7fishnet5graph19ConnectedComponentsI6IDNodeSt4hashIS2_ESt8equal_toIS2_EE4stopEv
FN:55,57,_ZNK7fishnet5graph19ConnectedComponentsI6XYNodeSt4hashIS2_ESt8equal_toIS2_EE4stopEv
FN:59,61,_ZNK7fishnet5graph19ConnectedComponentsI6IDNodeSt4hashIS2_ESt8equal_toIS2_EE3getEv
FN:68,76,_ZNK7fishnet5graph19ConnectedComponentsI6IDNodeSt4hashIS2_ESt8equal_toIS2_EE5asMapEv
FN:68,76,_ZNK7fishnet5graph19ConnectedComponentsI6XYNodeSt4hashIS2_ESt8equal_toIS2_EE5asMapEv
FN:77,77,_ZN7fishnet5graph19ConnectedComponentsI6IDNodeSt4hashIS2_ESt8equal_toIS2_EED0Ev
FN:77,77,_ZN7fishnet5graph19ConnectedComponentsI6IDNodeSt4hashIS2_ESt8equal_toIS2_EED2Ev
FN:77,77,_ZN7fishnet5graph19ConnectedComponentsI6XYNodeSt4hashIS2_ESt8equal_toIS2_EED0Ev
FN:77,77,_ZN7fishnet5graph19ConnectedComponentsI6XYNodeSt4hashIS2_ESt8equal_toIS2_EED2Ev
FNDA:1,_ZN7fishnet5graph19ConnectedComponentsI6IDNodeSt4hashIS2_ESt8equal_toIS2_EE11handleCloseEv
FNDA:7,_ZN7fishnet5graph19ConnectedComponentsI6XYNodeSt4hashIS2_ESt8equal_toIS2_EE11handleCloseEv
FNDA:1,_ZN7fishnet5graph19ConnectedComponentsI6IDNodeSt4hashIS2_ESt8equal_toIS2_EEC2Ev
FNDA:3,_ZN7fishnet5graph19ConnectedComponentsI6XYNodeSt4hashIS2_ESt8equal_toIS2_EEC2Ev
FNDA:2,_ZN7fishnet5graph19ConnectedComponentsI6IDNodeSt4hashIS2_ESt8equal_toIS2_EE6onOpenERKS2_
FNDA:74,_ZN7fishnet5graph19ConnectedComponentsI6XYNodeSt4hashIS2_ESt8equal_toIS2_EE6onOpenERKS2_
FNDA:1,_ZN7fishnet5graph19ConnectedComponentsI6IDNodeSt4hashIS2_ESt8equal_toIS2_EE6onEdgeERKS2_S9_
FNDA:11,_ZN7fishnet5graph19ConnectedComponentsI6XYNodeSt4hashIS2_ESt8equal_toIS2_EE6onEdgeERKS2_S9_
FNDA:2,_ZN7fishnet5graph19ConnectedComponentsI6IDNodeSt4hashIS2_ESt8equal_toIS2_EE7onCloseERKS2_
FNDA:74,_ZN7fishnet5graph19ConnectedComponentsI6XYNodeSt4hashIS2_ESt8equal_toIS2_EE7onCloseERKS2_
FNDA:4,_ZNK7fishnet5graph19ConnectedComponentsI6IDNodeSt4hashIS2_ESt8equal_toIS2_EE4stopEv
FNDA:148,_ZNK7fishnet5graph19ConnectedComponentsI6XYNodeSt4hashIS2_ESt8equal_toIS2_EE4stopEv
FNDA:1,_ZNK7fishnet5graph19ConnectedComponentsI6IDNodeSt4hashIS2_ESt8equal_toIS2_EE3getEv
FNDA:1,_ZNK7fishnet5graph19ConnectedComponentsI6IDNodeSt4hashIS2_ESt8equal_toIS2_EE5asMapEv
FNDA:3,_ZNK7fishnet5graph19ConnectedComponentsI6XYNodeSt4hashIS2_ESt8equal_toIS2_EE5asMapEv
FNDA:0,_ZN7fishnet5graph19ConnectedComponentsI6IDNodeSt4hashIS2_ESt8equal_toIS2_EED0Ev
FNDA:1,_ZN7fishnet5graph19ConnectedComponentsI6IDNodeSt4hashIS2_ESt8equal_toIS2_EED2Ev
FNDA:0,_ZN7fishnet5graph19ConnectedComponentsI6XYNodeSt4hashIS2_ESt8equal_toIS2_EED0Ev
FNDA:5,_ZN7fishnet5graph19ConnectedComponentsI6XYNodeSt4hashIS2_ESt8equal_toIS2_EED2Ev
FNF:19
FNH:17
DA:20,8
DA:21,8
DA:26,4
DA:27,4
DA:28,4
DA:29,4
DA:30,4
DA:32,76
DA:34,76
DA:35,64
DA:37,76
DA:38,76
DA:39,76
DA:42,12
DA:43,12
DA:46,76
DA:47,76
DA:49,76
DA:50,64
DA:51,64
DA:53,76
DA:55,152
DA:56,152
DA:59,1
DA:60,1
DA:68,4
DA:69,4
DA:70,68
DA:71,140
DA:72,76
DA:75,4
DA:77,6
LF:32
LH:32
end_of_record
TN:
SF:/home/lolo/Documents/fishnet/lib/graph/algorithm/include/fishnet/Contraction.hpp
FN:116,134,_ZN7fishnet5graph6__implL26constructFromComponentsMapINS1_22WeightedGraphDecoratorINS1_11SimpleGraphINS1_8BaseEdgeI6XYNodeLb0ESt4hashIS6_ESt8equal_toIS6_EEENS0_12AdjacencyMapIS6_S8_SA_St6vectorIS6_SaIS6_EEEEEEd16DistanceFunctionEESJ_RSt13unordered_mapIS6_iS8_SA_SaISt4pairIKS6_iEEENS_4util8IdentityEEEvRKT_RT0_OT1_OSK_IiNSW_9node_typeES7_IiES9_IiESaISL_IKiS10_EEERKT2_
FN:188,211,_ZN7fishnet5graph8contractINS0_6__impl22WeightedGraphDecoratorINS2_11SimpleGraphINS2_8BaseEdgeI6XYNodeLb0ESt4hashIS6_ESt8equal_toIS6_EEENS0_12AdjacencyMapIS6_S8_SA_St6vectorIS6_SaIS6_EEEEEEd16DistanceFunctionEESJ_14MergePredicate13MergeFunctionNS_4util8IdentityEEEvRKT_RKT1_RKT2_RKT3_RT0_h
FN:199,199,_ZZN7fishnet5graph8contractINS0_6__impl22WeightedGraphDecoratorINS2_11SimpleGraphINS2_8BaseEdgeI6XYNodeLb0ESt4hashIS6_ESt8equal_toIS6_EEENS0_12AdjacencyMapIS6_S8_SA_St6vectorIS6_SaIS6_EEEEEEd16DistanceFunctionEESJ_14MergePredicate13MergeFunctionNS_4util8IdentityEEEvRKT_RKT1_RKT2_RKT3_RT0_hENKUlvE_clEv
FN:31,52,_ZN7fishnet5graph6__implL11mergeWorkerI6XYNodeS3_13MergeFunctionNS_4util8IdentityEEESt6vectorISt4pairIiT0_ESaISA_EESt10shared_ptrINS5_13BlockingQueueIS8_IiS7_IT_SaISF_EEEEEERKT1_RKT2_
FN:343,347,_ZN7fishnet5graph8contractINS0_6__impl22WeightedGraphDecoratorINS2_11SimpleGraphINS2_8BaseEdgeI6XYNodeLb0ESt4hashIS6_ESt8equal_toIS6_EEENS0_12AdjacencyMapIS6_S8_SA_St6vectorIS6_SaIS6_EEEEEEd16DistanceFunctionEE14MergePredicate13MergeFunctionEET_RKSM_RKT0_RKT1_h
FNDA:1,_ZN7fishnet5graph6__implL26constructFromComponentsMapINS1_22WeightedGraphDecoratorINS1_11SimpleGraphINS1_8BaseEdgeI6XYNodeLb0ESt4hashIS6_ESt8equal_toIS6_EEENS0_12AdjacencyMapIS6_S8_SA_St6vectorIS6_SaIS6_EEEEEEd16DistanceFunctionEESJ_RSt13unordered_mapIS6_iS8_SA_SaISt4pairIKS6_iEEENS_4util8IdentityEEEvRKT_RT0_OT1_OSK_IiNSW_9node_typeES7_IiES9_IiESaISL_IKiS10_EEERKT2_
FNDA:1,_ZN7fishnet5graph8contractINS0_6__impl22WeightedGraphDecoratorINS2_11SimpleGraphINS2_8BaseEdgeI6XYNodeLb0ESt4hashIS6_ESt8equal_toIS6_EEENS0_12AdjacencyMapIS6_S8_SA_St6vectorIS6_SaIS6_EEEEEEd16DistanceFunctionEESJ_14MergePredicate13MergeFunctionNS_4util8IdentityEEEvRKT_RKT1_RKT2_RKT3_RT0_h
FNDA:1,_ZZN7fishnet5graph8contractINS0_6__impl22WeightedGraphDecoratorINS2_11SimpleGraphINS2_8BaseEdgeI6XYNodeLb0ESt4hashIS6_ESt8equal_toIS6_EEENS0_12AdjacencyMapIS6_S8_SA_St6vectorIS6_SaIS6_EEEEEEd16DistanceFunctionEESJ_14MergePredicate13MergeFunctionNS_4util8IdentityEEEvRKT_RKT1_RKT2_RKT3_RT0_hENKUlvE_clEv
FNDA:1,_ZN7fishnet5graph6__implL11mergeWorkerI6XYNodeS3_13MergeFunctionNS_4util8IdentityEEESt6vectorISt4pairIiT0_ESaISA_EESt10shared_ptrINS5_13BlockingQueueIS8_IiS7_IT_SaISF_EEEEEERKT1_RKT2_
FNDA:1,_ZN7fishnet5graph8contractINS0_6__impl22WeightedGraphDecoratorINS2_11SimpleGraphINS2_8BaseEdgeI6XYNodeLb0ESt4hashIS6_ESt8equal_toIS6_EEENS0_12AdjacencyMapIS6_S8_SA_St6vectorIS6_SaIS6_EEEEEEd16DistanceFunctionEE14MergePredicate13MergeFunctionEET_RKSM_RKT0_RKT1_h
FNF:5
FNH:5
DA:31,1
DA:32,1
DA:33,1
DA:35,50
DA:36,50
DA:37,1
DA:38,1
DA:40,49
DA:41,49
DA:42,50
DA:43,1
DA:49,49
DA:50,49
DA:51,2
DA:52,1
DA:116,1
DA:117,1
DA:118,51
DA:119,50
DA:120,0
DA:123,1
DA:124,1
DA:125,1
DA:126,1226
DA:127,1225
DA:128,1224
DA:129,2448
DA:133,1
DA:134,1
DA:188,1
DA:193,1
DA:194,0
DA:195,1
DA:196,1
DA:197,1
DA:198,2
DA:199,2
DA:201,1
DA:202,1
DA:203,1
DA:204,1
DA:205,2
DA:206,50
DA:207,49
DA:210,1
DA:211,1
DA:343,1
DA:344,1
DA:345,1
DA:346,1
DA:347,0
LF:51
LH:48
end_of_record
TN:
SF:/home/lolo/Documents/fishnet/lib/graph/algorithm/include/fishnet/DFSAlgorithm.hpp
FN:24,44,_ZN7fishnet5graph6__implL3dfsINS1_11SimpleGraphINS1_8BaseEdgeI10DataIDNodeINSt7__cxx1112basic_stringIcSt11char_traitsIcESaIcEEEELb0ESt4hashISC_ESt8equal_toISC_EEENS0_12AdjacencyMapISC_SE_SG_St6vectorISC_SaISC_EEEEEENS0_10SearchPathISH_SE_SG_EENS1_18DefaultBiPredicateISC_EEEEvRKT_RNS0_12SearchResultIT0_NSW_9node_typeESD_ISX_ESF_ISX_EEERKNSS_9node_typeERKT1_
FN:58,75,_ZN7fishnet5graph3DFSL7getPathINS0_6__impl11SimpleGraphINS3_8BaseEdgeI10DataIDNodeINSt7__cxx1112basic_stringIcSt11char_traitsIcESaIcEEEELb0ESt4hashISD_ESt8equal_toISD_EEENS0_12AdjacencyMapISD_SF_SH_St6vectorISD_SaISD_EEEEEEEEDaRKT_RKNSP_9node_typeESU_
FNDA:2,_ZN7fishnet5graph6__implL3dfsINS1_11SimpleGraphINS1_8BaseEdgeI10DataIDNodeINSt7__cxx1112basic_stringIcSt11char_traitsIcESaIcEEEELb0ESt4hashISC_ESt8equal_toISC_EEENS0_12AdjacencyMapISC_SE_SG_St6vectorISC_SaISC_EEEEEENS0_10SearchPathISH_SE_SG_EENS1_18DefaultBiPredicateISC_EEEEvRKT_RNS0_12SearchResultIT0_NSW_9node_typeESD_ISX_ESF_ISX_EEERKNSS_9node_typeERKT1_
FNDA:2,_ZN7fishnet5graph3DFSL7getPathINS0_6__impl11SimpleGraphINS3_8BaseEdgeI10DataIDNodeINSt7__cxx1112basic_stringIcSt11char_traitsIcESaIcEEEELb0ESt4hashISD_ESt8equal_toISD_EEENS0_12AdjacencyMapISD_SF_SH_St6vectorISD_SaISD_EEEEEEEEDaRKT_RKNSP_9node_typeESU_
FNF:2
FNH:2
DA:24,2
DA:26,2
DA:27,2
DA:28,2
DA:29,12
DA:30,5
DA:31,5
DA:32,5
DA:33,16
DA:34,11
DA:35,7
DA:36,7
DA:37,7
DA:40,5
DA:44,2
DA:58,2
DA:63,2
DA:64,2
DA:65,2
DA:66,2
DA:67,0
DA:69,2
DA:70,2
DA:71,7
DA:72,5
DA:74,2
DA:75,2
LF:27
LH:26
end_of_record
TN:
SF:/home/lolo/Documents/fishnet/lib/graph/algorithm/include/fishnet/DefaultBiPredicate.hpp
FN:6,8,_ZNK7fishnet5graph6__impl18DefaultBiPredicateI10DataIDNodeINSt7__cxx1112basic_stringIcSt11char_traitsIcESaIcEEEEEclERKSA_SD_
FN:6,8,_ZNK7fishnet5graph6__impl18DefaultBiPredicateI6IDNodeEclERKS3_S6_
FN:6,8,_ZNK7fishnet5graph6__impl18DefaultBiPredicateImEclERKmS5_
FNDA:34,_ZNK7fishnet5graph6__impl18DefaultBiPredicateI10DataIDNodeINSt7__cxx1112basic_stringIcSt11char_traitsIcESaIcEEEEEclERKSA_SD_
FNDA:1,_ZNK7fishnet5graph6__impl18DefaultBiPredicateI6IDNodeEclERKS3_S6_
FNDA:6,_ZNK7fishnet5graph6__impl18DefaultBiPredicateImEclERKmS5_
FNF:3
FNH:3
DA:6,41
DA:7,41
LF:2
LH:2
end_of_record
TN:
SF:/home/lolo/Documents/fishnet/lib/graph/algorithm/include/fishnet/SearchPath.hpp
FN:26,26,_ZN7fishnet5graph10SearchPathINS0_6__impl8BaseEdgeI10DataIDNodeINSt7__cxx1112basic_stringIcSt11char_traitsIcESaIcEEEELb0ESt4hashISB_ESt8equal_toISB_EEESD_SF_EC2ERKSB_
FN:26,26,_ZN7fishnet5graph10SearchPathINS0_6__impl8BaseEdgeI10DataIDNodeINSt7__cxx1112basic_stringIcSt11char_traitsIcESaIcEEEELb1ESt4hashISB_ESt8equal_toISB_EEESD_SF_EC2ERKSB_
FN:26,26,_ZN7fishnet5graph10SearchPathINS0_6__impl8BaseEdgeImLb1ESt4hashImESt8equal_toImEEES5_S7_EC2ERKm
FN:28,32,_ZN7fishnet5graph10SearchPathINS0_6__impl8BaseEdgeI10DataIDNodeINSt7__cxx1112basic_stringIcSt11char_traitsIcESaIcEEEELb0ESt4hashISB_ESt8equal_toISB_EEESD_SF_E6onOpenERKSB_
FN:28,32,_ZN7fishnet5graph10SearchPathINS0_6__impl8BaseEdgeI10DataIDNodeINSt7__cxx1112basic_stringIcSt11char_traitsIcESaIcEEEELb1ESt4hashISB_ESt8equal_toISB_EEESD_SF_E6onOpenERKSB_
FN:28,32,_ZN7fishnet5graph10SearchPathINS0_6__impl8BaseEdgeImLb1ESt4hashImESt8equal_toImEEES5_S7_E6onOpenERKm
FN:34,38,_ZN7fishnet5graph10SearchPathINS0_6__impl8BaseEdgeI10DataIDNodeINSt7__cxx1112basic_stringIcSt11char_traitsIcESaIcEEEELb0ESt4hashISB_ESt8equal_toISB_EEESD_SF_E7onCloseERKSB_
FN:34,38,_ZN7fishnet5graph10SearchPathINS0_6__impl8BaseEdgeI10DataIDNodeINSt7__cxx1112basic_stringIcSt11char_traitsIcESaIcEEEELb1ESt4hashISB_ESt8equal_toISB_EEESD_SF_E7onCloseERKSB_
FN:34,38,_ZN7fishnet5graph10SearchPathINS0_6__impl8BaseEdgeImLb1ESt4hashImESt8equal_toImEEES5_S7_E7onCloseERKm
FN:40,42,_ZN7fishnet5graph10SearchPathINS0_6__impl8BaseEdgeI10DataIDNodeINSt7__cxx1112basic_stringIcSt11char_traitsIcESaIcEEEELb0ESt4hashISB_ESt8equal_toISB_EEESD_SF_E6onEdgeERKSB_SJ_
FN:40,42,_ZN7fishnet5graph10SearchPathINS0_6__impl8BaseEdgeI10DataIDNodeINSt7__cxx1112basic_stringIcSt11char_traitsIcESaIcEEEELb1ESt4hashISB_ESt8equal_toISB_EEESD_SF_E6onEdgeERKSB_SJ_
FN:40,42,_ZN7fishnet5graph10SearchPathINS0_6__impl8BaseEdgeImLb1ESt4hashImESt8equal_toImEEES5_S7_E6onEdgeERKmSB_
FN:44,46,_ZNK7fishnet5graph10SearchPathINS0_6__impl8BaseEdgeI10DataIDNodeINSt7__cxx1112basic_stringIcSt11char_traitsIcESaIcEEEELb0ESt4hashISB_ESt8equal_toISB_EEESD_SF_E4stopEv
FN:44,46,_ZNK7fishnet5graph10SearchPathINS0_6__impl8BaseEdgeI10DataIDNodeINSt7__cxx1112basic_stringIcSt11char_traitsIcESaIcEEEELb1ESt4hashISB_ESt8equal_toISB_EEESD_SF_E4stopEv
FN:44,46,_ZNK7fishnet5graph10SearchPathINS0_6__impl8BaseEdgeImLb1ESt4hashImESt8equal_toImEEES5_S7_E4stopEv
FN:48,58,_ZNK7fishnet5graph10SearchPathINS0_6__impl8BaseEdgeI10DataIDNodeINSt7__cxx1112basic_stringIcSt11char_traitsIcESaIcEEEELb0ESt4hashISB_ESt8equal_toISB_EEESD_SF_E3getEv
FN:48,58,_ZNK7fishnet5graph10SearchPathINS0_6__impl8BaseEdgeI10DataIDNodeINSt7__cxx1112basic_stringIcSt11char_traitsIcESaIcEEEELb1ESt4hashISB_ESt8equal_toISB_EEESD_SF_E3getEv
FN:48,58,_ZNK7fishnet5graph10SearchPathINS0_6__impl8BaseEdgeImLb1ESt4hashImESt8equal_toImEEES5_S7_E3getEv
FN:59,59,_ZN7fishnet5graph10SearchPathINS0_6__impl8BaseEdgeI10DataIDNodeINSt7__cxx1112basic_stringIcSt11char_traitsIcESaIcEEEELb0ESt4hashISB_ESt8equal_toISB_EEESD_SF_ED0Ev
FN:59,59,_ZN7fishnet5graph10SearchPathINS0_6__impl8BaseEdgeI10DataIDNodeINSt7__cxx1112basic_stringIcSt11char_traitsIcESaIcEEEELb0ESt4hashISB_ESt8equal_toISB_EEESD_SF_ED2Ev
FN:59,59,_ZN7fishnet5graph10SearchPathINS0_6__impl8BaseEdgeI10DataIDNodeINSt7__cxx1112basic_stringIcSt11char_traitsIcESaIcEEEELb1ESt4hashISB_ESt8equal_toISB_EEESD_SF_ED0Ev
FN:59,59,_ZN7fishnet5graph10SearchPathINS0_6__impl8BaseEdgeI10DataIDNodeINSt7__cxx1112basic_stringIcSt11char_traitsIcESaIcEEEELb1ESt4hashISB_ESt8equal_toISB_EEESD_SF_ED2Ev
FN:59,59,_ZN7fishnet5graph10SearchPathINS0_6__impl8BaseEdgeImLb1ESt4hashImESt8equal_toImEEES5_S7_ED0Ev
FN:59,59,_ZN7fishnet5graph10SearchPathINS0_6__impl8BaseEdgeImLb1ESt4hashImESt8equal_toImEEES5_S7_ED2Ev
FNDA:5,_ZN7fishnet5graph10SearchPathINS0_6__impl8BaseEdgeI10DataIDNodeINSt7__cxx1112basic_stringIcSt11char_traitsIcESaIcEEEELb0ESt4hashISB_ESt8equal_toISB_EEESD_SF_EC2ERKSB_
FNDA:6,_ZN7fishnet5graph10SearchPathINS0_6__impl8BaseEdgeI10DataIDNodeINSt7__cxx1112basic_stringIcSt11char_traitsIcESaIcEEEELb1ESt4hashISB_ESt8equal_toISB_EEESD_SF_EC2ERKSB_
FNDA:42,_ZN7fishnet5graph10SearchPathINS0_6__impl8BaseEdgeImLb1ESt4hashImESt8equal_toImEEES5_S7_EC2ERKm
FNDA:24,_ZN7fishnet5graph10SearchPathINS0_6__impl8BaseEdgeI10DataIDNodeINSt7__cxx1112basic_stringIcSt11char_traitsIcESaIcEEEELb0ESt4hashISB_ESt8equal_toISB_EEESD_SF_E6onOpenERKSB_
FNDA:21,_ZN7fishnet5graph10SearchPathINS0_6__impl8BaseEdgeI10DataIDNodeINSt7__cxx1112basic_stringIcSt11char_traitsIcESaIcEEEELb1ESt4hashISB_ESt8equal_toISB_EEESD_SF_E6onOpenERKSB_
FNDA:48,_ZN7fishnet5graph10SearchPathINS0_6__impl8BaseEdgeImLb1ESt4hashImESt8equal_toImEEES5_S7_E6onOpenERKm
FNDA:17,_ZN7fishnet5graph10SearchPathINS0_6__impl8BaseEdgeI10DataIDNodeINSt7__cxx1112basic_stringIcSt11char_traitsIcESaIcEEEELb0ESt4hashISB_ESt8equal_toISB_EEESD_SF_E7onCloseERKSB_
FNDA:15,_ZN7fishnet5graph10SearchPathINS0_6__impl8BaseEdgeI10DataIDNodeINSt7__cxx1112basic_stringIcSt11char_traitsIcESaIcEEEELb1ESt4hashISB_ESt8equal_toISB_EEESD_SF_E7onCloseERKSB_
FNDA:44,_ZN7fishnet5graph10SearchPathINS0_6__impl8BaseEdgeImLb1ESt4hashImESt8equal_toImEEES5_S7_E7onCloseERKm
FNDA:19,_ZN7fishnet5graph10SearchPathINS0_6__impl8BaseEdgeI10DataIDNodeINSt7__cxx1112basic_stringIcSt11char_traitsIcESaIcEEEELb0ESt4hashISB_ESt8equal_toISB_EEESD_SF_E6onEdgeERKSB_SJ_
FNDA:15,_ZN7fishnet5graph10SearchPathINS0_6__impl8BaseEdgeI10DataIDNodeINSt7__cxx1112basic_stringIcSt11char_traitsIcESaIcEEEELb1ESt4hashISB_ESt8equal_toISB_EEESD_SF_E6onEdgeERKSB_SJ_
FNDA:6,_ZN7fishnet5graph10SearchPathINS0_6__impl8BaseEdgeImLb1ESt4hashImESt8equal_toImEEES5_S7_E6onEdgeERKmSB_
FNDA:21,_ZNK7fishnet5graph10SearchPathINS0_6__impl8BaseEdgeI10DataIDNodeINSt7__cxx1112basic_stringIcSt11char_traitsIcESaIcEEEELb0ESt4hashISB_ESt8equal_toISB_EEESD_SF_E4stopEv
FNDA:18,_ZNK7fishnet5graph10SearchPathINS0_6__impl8BaseEdgeI10DataIDNodeINSt7__cxx1112basic_stringIcSt11char_traitsIcESaIcEEEELb1ESt4hashISB_ESt8equal_toISB_EEESD_SF_E4stopEv
FNDA:47,_ZNK7fishnet5graph10SearchPathINS0_6__impl8BaseEdgeImLb1ESt4hashImESt8equal_toImEEES5_S7_E4stopEv
FNDA:5,_ZNK7fishnet5graph10SearchPathINS0_6__impl8BaseEdgeI10DataIDNodeINSt7__cxx1112basic_stringIcSt11char_traitsIcESaIcEEEELb0ESt4hashISB_ESt8equal_toISB_EEESD_SF_E3getEv
FNDA:6,_ZNK7fishnet5graph10SearchPathINS0_6__impl8BaseEdgeI10DataIDNodeINSt7__cxx1112basic_stringIcSt11char_traitsIcESaIcEEEELb1ESt4hashISB_ESt8equal_toISB_EEESD_SF_E3getEv
FNDA:42,_ZNK7fishnet5graph10SearchPathINS0_6__impl8BaseEdgeImLb1ESt4hashImESt8equal_toImEEES5_S7_E3getEv
FNDA:0,_ZN7fishnet5graph10SearchPathINS0_6__impl8BaseEdgeI10DataIDNodeINSt7__cxx1112basic_stringIcSt11char_traitsIcESaIcEEEELb0ESt4hashISB_ESt8equal_toISB_EEESD_SF_ED0Ev
FNDA:5,_ZN7fishnet5graph10SearchPathINS0_6__impl8BaseEdgeI10DataIDNodeINSt7__cxx1112basic_stringIcSt11char_traitsIcESaIcEEEELb0ESt4hashISB_ESt8equal_toISB_EEESD_SF_ED2Ev
FNDA:0,_ZN7fishnet5graph10SearchPathINS0_6__impl8BaseEdgeI10DataIDNodeINSt7__cxx1112basic_stringIcSt11char_traitsIcESaIcEEEELb1ESt4hashISB_ESt8equal_toISB_EEESD_SF_ED0Ev
FNDA:6,_ZN7fishnet5graph10SearchPathINS0_6__impl8BaseEdgeI10DataIDNodeINSt7__cxx1112basic_stringIcSt11char_traitsIcESaIcEEEELb1ESt4hashISB_ESt8equal_toISB_EEESD_SF_ED2Ev
FNDA:0,_ZN7fishnet5graph10SearchPathINS0_6__impl8BaseEdgeImLb1ESt4hashImESt8equal_toImEEES5_S7_ED0Ev
FNDA:42,_ZN7fishnet5graph10SearchPathINS0_6__impl8BaseEdgeImLb1ESt4hashImESt8equal_toImEEES5_S7_ED2Ev
FNF:24
FNH:21
DA:26,53
DA:28,93
DA:29,93
DA:30,10
DA:32,93
DA:34,76
DA:35,76
DA:36,0
DA:38,76
DA:40,40
DA:41,40
DA:42,40
DA:44,86
DA:45,86
DA:48,53
DA:49,53
DA:50,43
DA:51,10
DA:52,10
DA:53,29
DA:54,19
DA:56,10
DA:57,10
DA:58,10
DA:59,53
LF:25
LH:24
end_of_record
TN:
SF:/home/lolo/Documents/fishnet/lib/graph/algorithm/include/fishnet/SearchResult.hpp
FN:23,25,_ZN7fishnet5graph12SearchResultINS0_10SearchPathINS0_6__impl8BaseEdgeI10DataIDNodeINSt7__cxx1112basic_stringIcSt11char_traitsIcESaIcEEEELb0ESt4hashISC_ESt8equal_toISC_EEESE_SG_EESC_SE_SG_EC2Ev
FN:23,25,_ZN7fishnet5graph12SearchResultINS0_10SearchPathINS0_6__impl8BaseEdgeI10DataIDNodeINSt7__cxx1112basic_stringIcSt11char_traitsIcESaIcEEEELb1ESt4hashISC_ESt8equal_toISC_EEESE_SG_EESC_SE_SG_EC2Ev
FN:23,25,_ZN7fishnet5graph12SearchResultINS0_10SearchPathINS0_6__impl8BaseEdgeImLb1ESt4hashImESt8equal_toImEEES6_S8_EEmS6_S8_EC2Ev
FN:23,25,_ZN7fishnet5graph12SearchResultINS0_19ConnectedComponentsI6IDNodeSt4hashIS3_ESt8equal_toIS3_EEES3_S5_S7_EC2Ev
FN:23,25,_ZN7fishnet5graph12SearchResultINS0_19ConnectedComponentsI6XYNodeSt4hashIS3_ESt8equal_toIS3_EEES3_S5_S7_EC2Ev
FN:27,29,_ZN7fishnet5graph12SearchResultINS0_10SearchPathINS0_6__impl8BaseEdgeI10DataIDNodeINSt7__cxx1112basic_stringIcSt11char_traitsIcESaIcEEEELb0ESt4hashISC_ESt8equal_toISC_EEESE_SG_EESC_SE_SG_E6onOpenERKSC_
FN:27,29,_ZN7fishnet5graph12SearchResultINS0_10SearchPathINS0_6__impl8BaseEdgeI10DataIDNodeINSt7__cxx1112basic_stringIcSt11char_traitsIcESaIcEEEELb1ESt4hashISC_ESt8equal_toISC_EEESE_SG_EESC_SE_SG_E6onOpenERKSC_
FN:27,29,_ZN7fishnet5graph12SearchResultINS0_10SearchPathINS0_6__impl8BaseEdgeImLb1ESt4hashImESt8equal_toImEEES6_S8_EEmS6_S8_E6onOpenERKm
FN:27,29,_ZN7fishnet5graph12SearchResultINS0_19ConnectedComponentsI6IDNodeSt4hashIS3_ESt8equal_toIS3_EEES3_S5_S7_E6onOpenERKS3_
FN:27,29,_ZN7fishnet5graph12SearchResultINS0_19ConnectedComponentsI6XYNodeSt4hashIS3_ESt8equal_toIS3_EEES3_S5_S7_E6onOpenERKS3_
FN:31,33,_ZN7fishnet5graph12SearchResultINS0_10SearchPathINS0_6__impl8BaseEdgeI10DataIDNodeINSt7__cxx1112basic_stringIcSt11char_traitsIcESaIcEEEELb0ESt4hashISC_ESt8equal_toISC_EEESE_SG_EESC_SE_SG_E7onCloseERKSC_
FN:31,33,_ZN7fishnet5graph12SearchResultINS0_10SearchPathINS0_6__impl8BaseEdgeI10DataIDNodeINSt7__cxx1112basic_stringIcSt11char_traitsIcESaIcEEEELb1ESt4hashISC_ESt8equal_toISC_EEESE_SG_EESC_SE_SG_E7onCloseERKSC_
FN:31,33,_ZN7fishnet5graph12SearchResultINS0_10SearchPathINS0_6__impl8BaseEdgeImLb1ESt4hashImESt8equal_toImEEES6_S8_EEmS6_S8_E7onCloseERKm
FN:31,33,_ZN7fishnet5graph12SearchResultINS0_19ConnectedComponentsI6IDNodeSt4hashIS3_ESt8equal_toIS3_EEES3_S5_S7_E7onCloseERKS3_
FN:31,33,_ZN7fishnet5graph12SearchResultINS0_19ConnectedComponentsI6XYNodeSt4hashIS3_ESt8equal_toIS3_EEES3_S5_S7_E7onCloseERKS3_
FN:35,37,_ZN7fishnet5graph12SearchResultINS0_10SearchPathINS0_6__impl8BaseEdgeI10DataIDNodeINSt7__cxx1112basic_stringIcSt11char_traitsIcESaIcEEEELb0ESt4hashISC_ESt8equal_toISC_EEESE_SG_EESC_SE_SG_E6onEdgeERKSC_SL_
FN:39,41,_ZNK7fishnet5graph12SearchResultINS0_10SearchPathINS0_6__impl8BaseEdgeI10DataIDNodeINSt7__cxx1112basic_stringIcSt11char_traitsIcESaIcEEEELb0ESt4hashISC_ESt8equal_toISC_EEESE_SG_EESC_SE_SG_E4stopEv
FN:43,47,_ZNK7fishnet5graph12SearchResultINS0_10SearchPathINS0_6__impl8BaseEdgeI10DataIDNodeINSt7__cxx1112basic_stringIcSt11char_traitsIcESaIcEEEELb0ESt4hashISC_ESt8equal_toISC_EEESE_SG_EESC_SE_SG_E15getStatusOfNodeERKSC_
FN:43,47,_ZNK7fishnet5graph12SearchResultINS0_10SearchPathINS0_6__impl8BaseEdgeI10DataIDNodeINSt7__cxx1112basic_stringIcSt11char_traitsIcESaIcEEEELb1ESt4hashISC_ESt8equal_toISC_EEESE_SG_EESC_SE_SG_E15getStatusOfNodeERKSC_
FN:43,47,_ZNK7fishnet5graph12SearchResultINS0_10SearchPathINS0_6__impl8BaseEdgeImLb1ESt4hashImESt8equal_toImEEES6_S8_EEmS6_S8_E15getStatusOfNodeERKm
FN:43,47,_ZNK7fishnet5graph12SearchResultINS0_19ConnectedComponentsI6IDNodeSt4hashIS3_ESt8equal_toIS3_EEES3_S5_S7_E15getStatusOfNodeERKS3_
FN:43,47,_ZNK7fishnet5graph12SearchResultINS0_19ConnectedComponentsI6XYNodeSt4hashIS3_ESt8equal_toIS3_EEES3_S5_S7_E15getStatusOfNodeERKS3_
FN:49,59,_ZN7fishnet5graph12SearchResultINS0_10SearchPathINS0_6__impl8BaseEdgeI10DataIDNodeINSt7__cxx1112basic_stringIcSt11char_traitsIcESaIcEEEELb0ESt4hashISC_ESt8equal_toISC_EEESE_SG_EESC_SE_SG_E4openERKSC_
FN:49,59,_ZN7fishnet5graph12SearchResultINS0_10SearchPathINS0_6__impl8BaseEdgeI10DataIDNodeINSt7__cxx1112basic_stringIcSt11char_traitsIcESaIcEEEELb1ESt4hashISC_ESt8equal_toISC_EEESE_SG_EESC_SE_SG_E4openERKSC_
FN:49,59,_ZN7fishnet5graph12SearchResultINS0_10SearchPathINS0_6__impl8BaseEdgeImLb1ESt4hashImESt8equal_toImEEES6_S8_EEmS6_S8_E4openERKm
FN:49,59,_ZN7fishnet5graph12SearchResultINS0_19ConnectedComponentsI6IDNodeSt4hashIS3_ESt8equal_toIS3_EEES3_S5_S7_E4openERKS3_
FN:49,59,_ZN7fishnet5graph12SearchResultINS0_19ConnectedComponentsI6XYNodeSt4hashIS3_ESt8equal_toIS3_EEES3_S5_S7_E4openERKS3_
FN:61,70,_ZN7fishnet5graph12SearchResultINS0_10SearchPathINS0_6__impl8BaseEdgeI10DataIDNodeINSt7__cxx1112basic_stringIcSt11char_traitsIcESaIcEEEELb0ESt4hashISC_ESt8equal_toISC_EEESE_SG_EESC_SE_SG_E5closeERKSC_
FN:61,70,_ZN7fishnet5graph12SearchResultINS0_10SearchPathINS0_6__impl8BaseEdgeI10DataIDNodeINSt7__cxx1112basic_stringIcSt11char_traitsIcESaIcEEEELb1ESt4hashISC_ESt8equal_toISC_EEESE_SG_EESC_SE_SG_E5closeERKSC_
FN:61,70,_ZN7fishnet5graph12SearchResultINS0_10SearchPathINS0_6__impl8BaseEdgeImLb1ESt4hashImESt8equal_toImEEES6_S8_EEmS6_S8_E5closeERKm
FN:61,70,_ZN7fishnet5graph12SearchResultINS0_19ConnectedComponentsI6IDNodeSt4hashIS3_ESt8equal_toIS3_EEES3_S5_S7_E5closeERKS3_
FN:61,70,_ZN7fishnet5graph12SearchResultINS0_19ConnectedComponentsI6XYNodeSt4hashIS3_ESt8equal_toIS3_EEES3_S5_S7_E5closeERKS3_
FN:72,74,_ZNK7fishnet5graph12SearchResultINS0_10SearchPathINS0_6__impl8BaseEdgeI10DataIDNodeINSt7__cxx1112basic_stringIcSt11char_traitsIcESaIcEEEELb0ESt4hashISC_ESt8equal_toISC_EEESE_SG_EESC_SE_SG_E6isOpenERKSC_
FN:72,74,_ZNK7fishnet5graph12SearchResultINS0_10SearchPathINS0_6__impl8BaseEdgeI10DataIDNodeINSt7__cxx1112basic_stringIcSt11char_traitsIcESaIcEEEELb1ESt4hashISC_ESt8equal_toISC_EEESE_SG_EESC_SE_SG_E6isOpenERKSC_
FN:72,74,_ZNK7fishnet5graph12SearchResultINS0_10SearchPathINS0_6__impl8BaseEdgeImLb1ESt4hashImESt8equal_toImEEES6_S8_EEmS6_S8_E6isOpenERKm
FN:72,74,_ZNK7fishnet5graph12SearchResultINS0_19ConnectedComponentsI6IDNodeSt4hashIS3_ESt8equal_toIS3_EEES3_S5_S7_E6isOpenERKS3_
FN:72,74,_ZNK7fishnet5graph12SearchResultINS0_19ConnectedComponentsI6XYNodeSt4hashIS3_ESt8equal_toIS3_EEES3_S5_S7_E6isOpenERKS3_
FN:76,78,_ZNK7fishnet5graph12SearchResultINS0_10SearchPathINS0_6__impl8BaseEdgeI10DataIDNodeINSt7__cxx1112basic_stringIcSt11char_traitsIcESaIcEEEELb0ESt4hashISC_ESt8equal_toISC_EEESE_SG_EESC_SE_SG_E8isClosedERKSC_
FN:76,78,_ZNK7fishnet5graph12SearchResultINS0_10SearchPathINS0_6__impl8BaseEdgeI10DataIDNodeINSt7__cxx1112basic_stringIcSt11char_traitsIcESaIcEEEELb1ESt4hashISC_ESt8equal_toISC_EEESE_SG_EESC_SE_SG_E8isClosedERKSC_
FN:76,78,_ZNK7fishnet5graph12SearchResultINS0_10SearchPathINS0_6__impl8BaseEdgeImLb1ESt4hashImESt8equal_toImEEES6_S8_EEmS6_S8_E8isClosedERKm
FN:76,78,_ZNK7fishnet5graph12SearchResultINS0_19ConnectedComponentsI6IDNodeSt4hashIS3_ESt8equal_toIS3_EEES3_S5_S7_E8isClosedERKS3_
FN:76,78,_ZNK7fishnet5graph12SearchResultINS0_19ConnectedComponentsI6XYNodeSt4hashIS3_ESt8equal_toIS3_EEES3_S5_S7_E8isClosedERKS3_
FN:80,82,_ZNK7fishnet5graph12SearchResultINS0_10SearchPathINS0_6__impl8BaseEdgeI10DataIDNodeINSt7__cxx1112basic_stringIcSt11char_traitsIcESaIcEEEELb0ESt4hashISC_ESt8equal_toISC_EEESE_SG_EESC_SE_SG_E9isUnknownERKSC_
FN:80,82,_ZNK7fishnet5graph12SearchResultINS0_10SearchPathINS0_6__impl8BaseEdgeI10DataIDNodeINSt7__cxx1112basic_stringIcSt11char_traitsIcESaIcEEEELb1ESt4hashISC_ESt8equal_toISC_EEESE_SG_EESC_SE_SG_E9isUnknownERKSC_
FN:80,82,_ZNK7fishnet5graph12SearchResultINS0_10SearchPathINS0_6__impl8BaseEdgeImLb1ESt4hashImESt8equal_toImEEES6_S8_EEmS6_S8_E9isUnknownERKm
FN:80,82,_ZNK7fishnet5graph12SearchResultINS0_19ConnectedComponentsI6IDNodeSt4hashIS3_ESt8equal_toIS3_EEES3_S5_S7_E9isUnknownERKS3_
FN:80,82,_ZNK7fishnet5graph12SearchResultINS0_19ConnectedComponentsI6XYNodeSt4hashIS3_ESt8equal_toIS3_EEES3_S5_S7_E9isUnknownERKS3_
FN:83,83,_ZN7fishnet5graph12SearchResultINS0_10SearchPathINS0_6__impl8BaseEdgeI10DataIDNodeINSt7__cxx1112basic_stringIcSt11char_traitsIcESaIcEEEELb0ESt4hashISC_ESt8equal_toISC_EEESE_SG_EESC_SE_SG_ED0Ev
FN:83,83,_ZN7fishnet5graph12SearchResultINS0_10SearchPathINS0_6__impl8BaseEdgeI10DataIDNodeINSt7__cxx1112basic_stringIcSt11char_traitsIcESaIcEEEELb0ESt4hashISC_ESt8equal_toISC_EEESE_SG_EESC_SE_SG_ED2Ev
FN:83,83,_ZN7fishnet5graph12SearchResultINS0_10SearchPathINS0_6__impl8BaseEdgeI10DataIDNodeINSt7__cxx1112basic_stringIcSt11char_traitsIcESaIcEEEELb1ESt4hashISC_ESt8equal_toISC_EEESE_SG_EESC_SE_SG_ED0Ev
FN:83,83,_ZN7fishnet5graph12SearchResultINS0_10SearchPathINS0_6__impl8BaseEdgeI10DataIDNodeINSt7__cxx1112basic_stringIcSt11char_traitsIcESaIcEEEELb1ESt4hashISC_ESt8equal_toISC_EEESE_SG_EESC_SE_SG_ED2Ev
FN:83,83,_ZN7fishnet5graph12SearchResultINS0_10SearchPathINS0_6__impl8BaseEdgeImLb1ESt4hashImESt8equal_toImEEES6_S8_EEmS6_S8_ED0Ev
FN:83,83,_ZN7fishnet5graph12SearchResultINS0_10SearchPathINS0_6__impl8BaseEdgeImLb1ESt4hashImESt8equal_toImEEES6_S8_EEmS6_S8_ED2Ev
FN:83,83,_ZN7fishnet5graph12SearchResultINS0_19ConnectedComponentsI6IDNodeSt4hashIS3_ESt8equal_toIS3_EEES3_S5_S7_ED0Ev
FN:83,83,_ZN7fishnet5graph12SearchResultINS0_19ConnectedComponentsI6IDNodeSt4hashIS3_ESt8equal_toIS3_EEES3_S5_S7_ED2Ev
FN:83,83,_ZN7fishnet5graph12SearchResultINS0_19ConnectedComponentsI6XYNodeSt4hashIS3_ESt8equal_toIS3_EEES3_S5_S7_ED0Ev
FN:83,83,_ZN7fishnet5graph12SearchResultINS0_19ConnectedComponentsI6XYNodeSt4hashIS3_ESt8equal_toIS3_EEES3_S5_S7_ED2Ev
FNDA:5,_ZN7fishnet5graph12SearchResultINS0_10SearchPathINS0_6__impl8BaseEdgeI10DataIDNodeINSt7__cxx1112basic_stringIcSt11char_traitsIcESaIcEEEELb0ESt4hashISC_ESt8equal_toISC_EEESE_SG_EESC_SE_SG_EC2Ev
FNDA:6,_ZN7fishnet5graph12SearchResultINS0_10SearchPathINS0_6__impl8BaseEdgeI10DataIDNodeINSt7__cxx1112basic_stringIcSt11char_traitsIcESaIcEEEELb1ESt4hashISC_ESt8equal_toISC_EEESE_SG_EESC_SE_SG_EC2Ev
FNDA:42,_ZN7fishnet5graph12SearchResultINS0_10SearchPathINS0_6__impl8BaseEdgeImLb1ESt4hashImESt8equal_toImEEES6_S8_EEmS6_S8_EC2Ev
FNDA:1,_ZN7fishnet5graph12SearchResultINS0_19ConnectedComponentsI6IDNodeSt4hashIS3_ESt8equal_toIS3_EEES3_S5_S7_EC2Ev
FNDA:3,_ZN7fishnet5graph12SearchResultINS0_19ConnectedComponentsI6XYNodeSt4hashIS3_ESt8equal_toIS3_EEES3_S5_S7_EC2Ev
FNDA:24,_ZN7fishnet5graph12SearchResultINS0_10SearchPathINS0_6__impl8BaseEdgeI10DataIDNodeINSt7__cxx1112basic_stringIcSt11char_traitsIcESaIcEEEELb0ESt4hashISC_ESt8equal_toISC_EEESE_SG_EESC_SE_SG_E6onOpenERKSC_
FNDA:21,_ZN7fishnet5graph12SearchResultINS0_10SearchPathINS0_6__impl8BaseEdgeI10DataIDNodeINSt7__cxx1112basic_stringIcSt11char_traitsIcESaIcEEEELb1ESt4hashISC_ESt8equal_toISC_EEESE_SG_EESC_SE_SG_E6onOpenERKSC_
FNDA:48,_ZN7fishnet5graph12SearchResultINS0_10SearchPathINS0_6__impl8BaseEdgeImLb1ESt4hashImESt8equal_toImEEES6_S8_EEmS6_S8_E6onOpenERKm
FNDA:2,_ZN7fishnet5graph12SearchResultINS0_19ConnectedComponentsI6IDNodeSt4hashIS3_ESt8equal_toIS3_EEES3_S5_S7_E6onOpenERKS3_
FNDA:74,_ZN7fishnet5graph12SearchResultINS0_19ConnectedComponentsI6XYNodeSt4hashIS3_ESt8equal_toIS3_EEES3_S5_S7_E6onOpenERKS3_
FNDA:17,_ZN7fishnet5graph12SearchResultINS0_10SearchPathINS0_6__impl8BaseEdgeI10DataIDNodeINSt7__cxx1112basic_stringIcSt11char_traitsIcESaIcEEEELb0ESt4hashISC_ESt8equal_toISC_EEESE_SG_EESC_SE_SG_E7onCloseERKSC_
FNDA:15,_ZN7fishnet5graph12SearchResultINS0_10SearchPathINS0_6__impl8BaseEdgeI10DataIDNodeINSt7__cxx1112basic_stringIcSt11char_traitsIcESaIcEEEELb1ESt4hashISC_ESt8equal_toISC_EEESE_SG_EESC_SE_SG_E7onCloseERKSC_
FNDA:44,_ZN7fishnet5graph12SearchResultINS0_10SearchPathINS0_6__impl8BaseEdgeImLb1ESt4hashImESt8equal_toImEEES6_S8_EEmS6_S8_E7onCloseERKm
FNDA:2,_ZN7fishnet5graph12SearchResultINS0_19ConnectedComponentsI6IDNodeSt4hashIS3_ESt8equal_toIS3_EEES3_S5_S7_E7onCloseERKS3_
FNDA:74,_ZN7fishnet5graph12SearchResultINS0_19ConnectedComponentsI6XYNodeSt4hashIS3_ESt8equal_toIS3_EEES3_S5_S7_E7onCloseERKS3_
FNDA:7,_ZN7fishnet5graph12SearchResultINS0_10SearchPathINS0_6__impl8BaseEdgeI10DataIDNodeINSt7__cxx1112basic_stringIcSt11char_traitsIcESaIcEEEELb0ESt4hashISC_ESt8equal_toISC_EEESE_SG_EESC_SE_SG_E6onEdgeERKSC_SL_
FNDA:7,_ZNK7fishnet5graph12SearchResultINS0_10SearchPathINS0_6__impl8BaseEdgeI10DataIDNodeINSt7__cxx1112basic_stringIcSt11char_traitsIcESaIcEEEELb0ESt4hashISC_ESt8equal_toISC_EEESE_SG_EESC_SE_SG_E4stopEv
FNDA:92,_ZNK7fishnet5graph12SearchResultINS0_10SearchPathINS0_6__impl8BaseEdgeI10DataIDNodeINSt7__cxx1112basic_stringIcSt11char_traitsIcESaIcEEEELb0ESt4hashISC_ESt8equal_toISC_EEESE_SG_EESC_SE_SG_E15getStatusOfNodeERKSC_
FNDA:64,_ZNK7fishnet5graph12SearchResultINS0_10SearchPathINS0_6__impl8BaseEdgeI10DataIDNodeINSt7__cxx1112basic_stringIcSt11char_traitsIcESaIcEEEELb1ESt4hashISC_ESt8equal_toISC_EEESE_SG_EESC_SE_SG_E15getStatusOfNodeERKSC_
FNDA:100,_ZNK7fishnet5graph12SearchResultINS0_10SearchPathINS0_6__impl8BaseEdgeImLb1ESt4hashImESt8equal_toImEEES6_S8_EEmS6_S8_E15getStatusOfNodeERKm
FNDA:9,_ZNK7fishnet5graph12SearchResultINS0_19ConnectedComponentsI6IDNodeSt4hashIS3_ESt8equal_toIS3_EEES3_S5_S7_E15getStatusOfNodeERKS3_
FNDA:2735,_ZNK7fishnet5graph12SearchResultINS0_19ConnectedComponentsI6XYNodeSt4hashIS3_ESt8equal_toIS3_EEES3_S5_S7_E15getStatusOfNodeERKS3_
FNDA:33,_ZN7fishnet5graph12SearchResultINS0_10SearchPathINS0_6__impl8BaseEdgeI10DataIDNodeINSt7__cxx1112basic_stringIcSt11char_traitsIcESaIcEEEELb0ESt4hashISC_ESt8equal_toISC_EEESE_SG_EESC_SE_SG_E4openERKSC_
FNDA:30,_ZN7fishnet5graph12SearchResultINS0_10SearchPathINS0_6__impl8BaseEdgeI10DataIDNodeINSt7__cxx1112basic_stringIcSt11char_traitsIcESaIcEEEELb1ESt4hashISC_ESt8equal_toISC_EEESE_SG_EESC_SE_SG_E4openERKSC_
FNDA:50,_ZN7fishnet5graph12SearchResultINS0_10SearchPathINS0_6__impl8BaseEdgeImLb1ESt4hashImESt8equal_toImEEES6_S8_EEmS6_S8_E4openERKm
FNDA:3,_ZN7fishnet5graph12SearchResultINS0_19ConnectedComponentsI6IDNodeSt4hashIS3_ESt8equal_toIS3_EEES3_S5_S7_E4openERKS3_
FNDA:85,_ZN7fishnet5graph12SearchResultINS0_19ConnectedComponentsI6XYNodeSt4hashIS3_ESt8equal_toIS3_EEES3_S5_S7_E4openERKS3_
FNDA:17,_ZN7fishnet5graph12SearchResultINS0_10SearchPathINS0_6__impl8BaseEdgeI10DataIDNodeINSt7__cxx1112basic_stringIcSt11char_traitsIcESaIcEEEELb0ESt4hashISC_ESt8equal_toISC_EEESE_SG_EESC_SE_SG_E5closeERKSC_
FNDA:15,_ZN7fishnet5graph12SearchResultINS0_10SearchPathINS0_6__impl8BaseEdgeI10DataIDNodeINSt7__cxx1112basic_stringIcSt11char_traitsIcESaIcEEEELb1ESt4hashISC_ESt8equal_toISC_EEESE_SG_EESC_SE_SG_E5closeERKSC_
FNDA:44,_ZN7fishnet5graph12SearchResultINS0_10SearchPathINS0_6__impl8BaseEdgeImLb1ESt4hashImESt8equal_toImEEES6_S8_EEmS6_S8_E5closeERKm
FNDA:2,_ZN7fishnet5graph12SearchResultINS0_19ConnectedComponentsI6IDNodeSt4hashIS3_ESt8equal_toIS3_EEES3_S5_S7_E5closeERKS3_
FNDA:74,_ZN7fishnet5graph12SearchResultINS0_19ConnectedComponentsI6XYNodeSt4hashIS3_ESt8equal_toIS3_EEES3_S5_S7_E5closeERKS3_
FNDA:38,_ZNK7fishnet5graph12SearchResultINS0_10SearchPathINS0_6__impl8BaseEdgeI10DataIDNodeINSt7__cxx1112basic_stringIcSt11char_traitsIcESaIcEEEELb0ESt4hashISC_ESt8equal_toISC_EEESE_SG_EESC_SE_SG_E6isOpenERKSC_
FNDA:30,_ZNK7fishnet5graph12SearchResultINS0_10SearchPathINS0_6__impl8BaseEdgeI10DataIDNodeINSt7__cxx1112basic_stringIcSt11char_traitsIcESaIcEEEELb1ESt4hashISC_ESt8equal_toISC_EEESE_SG_EESC_SE_SG_E6isOpenERKSC_
FNDA:50,_ZNK7fishnet5graph12SearchResultINS0_10SearchPathINS0_6__impl8BaseEdgeImLb1ESt4hashImESt8equal_toImEEES6_S8_EEmS6_S8_E6isOpenERKm
FNDA:3,_ZNK7fishnet5graph12SearchResultINS0_19ConnectedComponentsI6IDNodeSt4hashIS3_ESt8equal_toIS3_EEES3_S5_S7_E6isOpenERKS3_
FNDA:85,_ZNK7fishnet5graph12SearchResultINS0_19ConnectedComponentsI6XYNodeSt4hashIS3_ESt8equal_toIS3_EEES3_S5_S7_E6isOpenERKS3_
FNDA:17,_ZNK7fishnet5graph12SearchResultINS0_10SearchPathINS0_6__impl8BaseEdgeI10DataIDNodeINSt7__cxx1112basic_stringIcSt11char_traitsIcESaIcEEEELb0ESt4hashISC_ESt8equal_toISC_EEESE_SG_EESC_SE_SG_E8isClosedERKSC_
FNDA:15,_ZNK7fishnet5graph12SearchResultINS0_10SearchPathINS0_6__impl8BaseEdgeI10DataIDNodeINSt7__cxx1112basic_stringIcSt11char_traitsIcESaIcEEEELb1ESt4hashISC_ESt8equal_toISC_EEESE_SG_EESC_SE_SG_E8isClosedERKSC_
FNDA:44,_ZNK7fishnet5graph12SearchResultINS0_10SearchPathINS0_6__impl8BaseEdgeImLb1ESt4hashImESt8equal_toImEEES6_S8_EEmS6_S8_E8isClosedERKm
FNDA:2,_ZNK7fishnet5graph12SearchResultINS0_19ConnectedComponentsI6IDNodeSt4hashIS3_ESt8equal_toIS3_EEES3_S5_S7_E8isClosedERKS3_
FNDA:74,_ZNK7fishnet5graph12SearchResultINS0_19ConnectedComponentsI6XYNodeSt4hashIS3_ESt8equal_toIS3_EEES3_S5_S7_E8isClosedERKS3_
FNDA:37,_ZNK7fishnet5graph12SearchResultINS0_10SearchPathINS0_6__impl8BaseEdgeI10DataIDNodeINSt7__cxx1112basic_stringIcSt11char_traitsIcESaIcEEEELb0ESt4hashISC_ESt8equal_toISC_EEESE_SG_EESC_SE_SG_E9isUnknownERKSC_
FNDA:19,_ZNK7fishnet5graph12SearchResultINS0_10SearchPathINS0_6__impl8BaseEdgeI10DataIDNodeINSt7__cxx1112basic_stringIcSt11char_traitsIcESaIcEEEELb1ESt4hashISC_ESt8equal_toISC_EEESE_SG_EESC_SE_SG_E9isUnknownERKSC_
FNDA:6,_ZNK7fishnet5graph12SearchResultINS0_10SearchPathINS0_6__impl8BaseEdgeImLb1ESt4hashImESt8equal_toImEEES6_S8_EEmS6_S8_E9isUnknownERKm
FNDA:4,_ZNK7fishnet5graph12SearchResultINS0_19ConnectedComponentsI6IDNodeSt4hashIS3_ESt8equal_toIS3_EEES3_S5_S7_E9isUnknownERKS3_
FNDA:2576,_ZNK7fishnet5graph12SearchResultINS0_19ConnectedComponentsI6XYNodeSt4hashIS3_ESt8equal_toIS3_EEES3_S5_S7_E9isUnknownERKS3_
FNDA:0,_ZN7fishnet5graph12SearchResultINS0_10SearchPathINS0_6__impl8BaseEdgeI10DataIDNodeINSt7__cxx1112basic_stringIcSt11char_traitsIcESaIcEEEELb0ESt4hashISC_ESt8equal_toISC_EEESE_SG_EESC_SE_SG_ED0Ev
FNDA:5,_ZN7fishnet5graph12SearchResultINS0_10SearchPathINS0_6__impl8BaseEdgeI10DataIDNodeINSt7__cxx1112basic_stringIcSt11char_traitsIcESaIcEEEELb0ESt4hashISC_ESt8equal_toISC_EEESE_SG_EESC_SE_SG_ED2Ev
FNDA:0,_ZN7fishnet5graph12SearchResultINS0_10SearchPathINS0_6__impl8BaseEdgeI10DataIDNodeINSt7__cxx1112basic_stringIcSt11char_traitsIcESaIcEEEELb1ESt4hashISC_ESt8equal_toISC_EEESE_SG_EESC_SE_SG_ED0Ev
FNDA:6,_ZN7fishnet5graph12SearchResultINS0_10SearchPathINS0_6__impl8BaseEdgeI10DataIDNodeINSt7__cxx1112basic_stringIcSt11char_traitsIcESaIcEEEELb1ESt4hashISC_ESt8equal_toISC_EEESE_SG_EESC_SE_SG_ED2Ev
FNDA:0,_ZN7fishnet5graph12SearchResultINS0_10SearchPathINS0_6__impl8BaseEdgeImLb1ESt4hashImESt8equal_toImEEES6_S8_EEmS6_S8_ED0Ev
FNDA:42,_ZN7fishnet5graph12SearchResultINS0_10SearchPathINS0_6__impl8BaseEdgeImLb1ESt4hashImESt8equal_toImEEES6_S8_EEmS6_S8_ED2Ev
FNDA:0,_ZN7fishnet5graph12SearchResultINS0_19ConnectedComponentsI6IDNodeSt4hashIS3_ESt8equal_toIS3_EEES3_S5_S7_ED0Ev
FNDA:1,_ZN7fishnet5graph12SearchResultINS0_19ConnectedComponentsI6IDNodeSt4hashIS3_ESt8equal_toIS3_EEES3_S5_S7_ED2Ev
FNDA:0,_ZN7fishnet5graph12SearchResultINS0_19ConnectedComponentsI6XYNodeSt4hashIS3_ESt8equal_toIS3_EEES3_S5_S7_ED0Ev
FNDA:5,_ZN7fishnet5graph12SearchResultINS0_19ConnectedComponentsI6XYNodeSt4hashIS3_ESt8equal_toIS3_EEES3_S5_S7_ED2Ev
FNF:57
FNH:52
DA:23,57
DA:24,57
DA:25,57
DA:27,169
DA:28,169
DA:29,169
DA:31,152
DA:32,152
DA:33,152
DA:35,7
DA:36,7
DA:37,7
DA:39,7
DA:40,7
DA:43,3000
DA:44,3000
DA:45,1475
DA:46,1525
DA:49,201
DA:50,201
DA:51,32
DA:52,169
DA:53,0
DA:56,169
DA:58,169
DA:61,152
DA:62,152
DA:63,0
DA:64,152
DA:65,152
DA:67,0
DA:69,152
DA:72,206
DA:73,206
DA:76,152
DA:77,152
DA:80,2642
DA:81,2642
DA:83,59
LF:39
LH:36
end_of_record
TN:
SF:/home/lolo/Documents/fishnet/lib/graph/centrality/include/fishnet/DegreeCentrality.hpp
FN:11,17,_ZNK7fishnet5graph16DegreeCentralityclINS0_6__impl11SimpleGraphINS3_8BaseEdgeI6IDNodeLb0ESt4hashIS6_ESt8equal_toIS6_EEENS0_12AdjacencyMapIS6_S8_SA_St6vectorIS6_SaIS6_EEEEEEEESD_ISt4pairINT_9node_typeEmESaISL_EERKSJ_
FN:11,17,_ZNK7fishnet5graph16DegreeCentralityclINS0_6__impl11SimpleGraphINS3_8BaseEdgeI6XYNodeLb0ESt4hashIS6_ESt8equal_toIS6_EEENS0_12AdjacencyMapIS6_S8_SA_St6vectorIS6_SaIS6_EEEEEEEESD_ISt4pairINT_9node_typeEmESaISL_EERKSJ_
FN:15,15,_ZZNK7fishnet5graph16DegreeCentralityclINS0_6__impl11SimpleGraphINS3_8BaseEdgeI6IDNodeLb0ESt4hashIS6_ESt8equal_toIS6_EEENS0_12AdjacencyMapIS6_S8_SA_St6vectorIS6_SaIS6_EEEEEEEESD_ISt4pairINT_9node_typeEmESaISL_EERKSJ_ENKUlSP_E_clIS6_EEDaSP_
FN:15,15,_ZZNK7fishnet5graph16DegreeCentralityclINS0_6__impl11SimpleGraphINS3_8BaseEdgeI6XYNodeLb0ESt4hashIS6_ESt8equal_toIS6_EEENS0_12AdjacencyMapIS6_S8_SA_St6vectorIS6_SaIS6_EEEEEEEESD_ISt4pairINT_9node_typeEmESaISL_EERKSJ_ENKUlSP_E_clIS6_EEDaSP_
FNDA:2,_ZNK7fishnet5graph16DegreeCentralityclINS0_6__impl11SimpleGraphINS3_8BaseEdgeI6IDNodeLb0ESt4hashIS6_ESt8equal_toIS6_EEENS0_12AdjacencyMapIS6_S8_SA_St6vectorIS6_SaIS6_EEEEEEEESD_ISt4pairINT_9node_typeEmESaISL_EERKSJ_
FNDA:2,_ZNK7fishnet5graph16DegreeCentralityclINS0_6__impl11SimpleGraphINS3_8BaseEdgeI6XYNodeLb0ESt4hashIS6_ESt8equal_toIS6_EEENS0_12AdjacencyMapIS6_S8_SA_St6vectorIS6_SaIS6_EEEEEEEESD_ISt4pairINT_9node_typeEmESaISL_EERKSJ_
FNDA:15,_ZZNK7fishnet5graph16DegreeCentralityclINS0_6__impl11SimpleGraphINS3_8BaseEdgeI6IDNodeLb0ESt4hashIS6_ESt8equal_toIS6_EEENS0_12AdjacencyMapIS6_S8_SA_St6vectorIS6_SaIS6_EEEEEEEESD_ISt4pairINT_9node_typeEmESaISL_EERKSJ_ENKUlSP_E_clIS6_EEDaSP_
FNDA:6,_ZZNK7fishnet5graph16DegreeCentralityclINS0_6__impl11SimpleGraphINS3_8BaseEdgeI6XYNodeLb0ESt4hashIS6_ESt8equal_toIS6_EEENS0_12AdjacencyMapIS6_S8_SA_St6vectorIS6_SaIS6_EEEEEEEESD_ISt4pairINT_9node_typeEmESaISL_EERKSJ_ENKUlSP_E_clIS6_EEDaSP_
FNF:4
FNH:4
DA:11,4
DA:12,4
DA:13,4
DA:14,4
DA:15,25
DA:16,8
DA:17,0
LF:7
LH:6
end_of_record
TN:
SF:/home/lolo/Documents/fishnet/lib/graph/graph/include/fishnet/DirectedAcyclicGraph.hpp
FN:22,24,_ZN7fishnet5graph20DirectedAcyclicGraphINS0_6__impl11SimpleGraphINS2_8BaseEdgeImLb1ESt4hashImESt8equal_toImEEENS0_12AdjacencyMapImS6_S8_St6vectorImSaImEEEEEEE23hasCycleAfterAddingEdgeERKmSI_
FN:27,27,_ZN7fishnet5graph20DirectedAcyclicGraphINS0_6__impl11SimpleGraphINS2_8BaseEdgeI3JobLb1EN12JobAdjacency4HashESt8equal_toIS5_EEES6_EEEC2EOSB_
FN:27,27,_ZN7fishnet5graph20DirectedAcyclicGraphINS0_6__impl11SimpleGraphINS2_8BaseEdgeImLb1ESt4hashImESt8equal_toImEEENS0_12AdjacencyMapImS6_S8_St6vectorImSaImEEEEEEEC2EOSF_
FN:38,41,_ZN7fishnet5graph20DirectedAcyclicGraphINS0_6__impl11SimpleGraphINS2_8BaseEdgeImLb1ESt4hashImESt8equal_toImEEENS0_12AdjacencyMapImS6_S8_St6vectorImSaImEEEEEEEaSEOSG_
FN:43,43,_ZN7fishnet5graph20DirectedAcyclicGraphINS0_6__impl11SimpleGraphINS2_8BaseEdgeImLb1ESt4hashImESt8equal_toImEEENS0_12AdjacencyMapImS6_S8_St6vectorImSaImEEEEEEEC2Ev
FN:45,50,_ZN7fishnet5graph20DirectedAcyclicGraphINS0_6__impl11SimpleGraphINS2_8BaseEdgeImLb1ESt4hashImESt8equal_toImEEENS0_12AdjacencyMapImS6_S8_St6vectorImSaImEEEEEEE7addEdgeERKmSI_
FN:52,57,_ZN7fishnet5graph20DirectedAcyclicGraphINS0_6__impl11SimpleGraphINS2_8BaseEdgeImLb1ESt4hashImESt8equal_toImEEENS0_12AdjacencyMapImS6_S8_St6vectorImSaImEEEEEEE7addEdgeEOmSH_
FN:59,61,_ZN7fishnet5graph20DirectedAcyclicGraphINS0_6__impl11SimpleGraphINS2_8BaseEdgeImLb1ESt4hashImESt8equal_toImEEENS0_12AdjacencyMapImS6_S8_St6vectorImSaImEEEEEEE7addEdgeERKS9_
FN:63,68,_ZN7fishnet5graph20DirectedAcyclicGraphINS0_6__impl11SimpleGraphINS2_8BaseEdgeImLb1ESt4hashImESt8equal_toImEEENS0_12AdjacencyMapImS6_S8_St6vectorImSaImEEEEEEE8addEdgesINSt6ranges14transform_viewINSI_8ref_viewISB_IS9_SaIS9_EEEEZNSG_8addEdgesIRSM_EEvOT_EUlSR_E_EEEEvSR_
FN:63,68,_ZN7fishnet5graph20DirectedAcyclicGraphINS0_6__impl11SimpleGraphINS2_8BaseEdgeImLb1ESt4hashImESt8equal_toImEEENS0_12AdjacencyMapImS6_S8_St6vectorImSaImEEEEEEE8addEdgesIRSB_ISt4pairImmESaISJ_EEEEvOT_
FN:64,64,_ZZN7fishnet5graph20DirectedAcyclicGraphINS0_6__impl11SimpleGraphINS2_8BaseEdgeImLb1ESt4hashImESt8equal_toImEEENS0_12AdjacencyMapImS6_S8_St6vectorImSaImEEEEEEE8addEdgesINSt6ranges14transform_viewINSI_8ref_viewISB_IS9_SaIS9_EEEEZNSG_8addEdgesIRSM_EEvOT_EUlSR_E_EEEEvSR_ENKUlSR_E_clISt4pairImmEEEDaSR_
FN:64,64,_ZZN7fishnet5graph20DirectedAcyclicGraphINS0_6__impl11SimpleGraphINS2_8BaseEdgeImLb1ESt4hashImESt8equal_toImEEENS0_12AdjacencyMapImS6_S8_St6vectorImSaImEEEEEEE8addEdgesIRSB_ISt4pairImmESaISJ_EEEEvOT_ENKUlSO_E_clIRSJ_EEDaSO_
FN:70,72,_ZN7fishnet5graph20DirectedAcyclicGraphINS0_6__impl11SimpleGraphINS2_8BaseEdgeImLb1ESt4hashImESt8equal_toImEEENS0_12AdjacencyMapImS6_S8_St6vectorImSaImEEEEEEE8addEdgesIRSB_IS9_SaIS9_EEEEvOT_
FN:71,71,_ZZN7fishnet5graph20DirectedAcyclicGraphINS0_6__impl11SimpleGraphINS2_8BaseEdgeImLb1ESt4hashImESt8equal_toImEEENS0_12AdjacencyMapImS6_S8_St6vectorImSaImEEEEEEE8addEdgesIRSB_IS9_SaIS9_EEEEvOT_ENKUlSM_E_clIRS9_EEDaSM_
FN:74,76,_ZNK7fishnet5graph20DirectedAcyclicGraphINS0_6__impl11SimpleGraphINS2_8BaseEdgeImLb1ESt4hashImESt8equal_toImEEENS0_12AdjacencyMapImS6_S8_St6vectorImSaImEEEEEEE8inDegreeERKm
FN:78,80,_ZNK7fishnet5graph20DirectedAcyclicGraphINS0_6__impl11SimpleGraphINS2_8BaseEdgeImLb1ESt4hashImESt8equal_toImEEENS0_12AdjacencyMapImS6_S8_St6vectorImSaImEEEEEEE9outDegreeERKm
FN:82,84,_ZNK7fishnet5graph20DirectedAcyclicGraphINS0_6__impl11SimpleGraphINS2_8BaseEdgeImLb1ESt4hashImESt8equal_toImEEENS0_12AdjacencyMapImS6_S8_St6vectorImSaImEEEEEEE9rootNodesEv
FN:83,83,_ZZNK7fishnet5graph20DirectedAcyclicGraphINS0_6__impl11SimpleGraphINS2_8BaseEdgeImLb1ESt4hashImESt8equal_toImEEENS0_12AdjacencyMapImS6_S8_St6vectorImSaImEEEEEEE9rootNodesEvENKUlRKT_E_clImEEDaSJ_
FNDA:42,_ZN7fishnet5graph20DirectedAcyclicGraphINS0_6__impl11SimpleGraphINS2_8BaseEdgeImLb1ESt4hashImESt8equal_toImEEENS0_12AdjacencyMapImS6_S8_St6vectorImSaImEEEEEEE23hasCycleAfterAddingEdgeERKmSI_
FNDA:1,_ZN7fishnet5graph20DirectedAcyclicGraphINS0_6__impl11SimpleGraphINS2_8BaseEdgeI3JobLb1EN12JobAdjacency4HashESt8equal_toIS5_EEES6_EEEC2EOSB_
FNDA:15,_ZN7fishnet5graph20DirectedAcyclicGraphINS0_6__impl11SimpleGraphINS2_8BaseEdgeImLb1ESt4hashImESt8equal_toImEEENS0_12AdjacencyMapImS6_S8_St6vectorImSaImEEEEEEEC2EOSF_
FNDA:14,_ZN7fishnet5graph20DirectedAcyclicGraphINS0_6__impl11SimpleGraphINS2_8BaseEdgeImLb1ESt4hashImESt8equal_toImEEENS0_12AdjacencyMapImS6_S8_St6vectorImSaImEEEEEEEaSEOSG_
FNDA:14,_ZN7fishnet5graph20DirectedAcyclicGraphINS0_6__impl11SimpleGraphINS2_8BaseEdgeImLb1ESt4hashImESt8equal_toImEEENS0_12AdjacencyMapImS6_S8_St6vectorImSaImEEEEEEEC2Ev
FNDA:8,_ZN7fishnet5graph20DirectedAcyclicGraphINS0_6__impl11SimpleGraphINS2_8BaseEdgeImLb1ESt4hashImESt8equal_toImEEENS0_12AdjacencyMapImS6_S8_St6vectorImSaImEEEEEEE7addEdgeERKmSI_
FNDA:34,_ZN7fishnet5graph20DirectedAcyclicGraphINS0_6__impl11SimpleGraphINS2_8BaseEdgeImLb1ESt4hashImESt8equal_toImEEENS0_12AdjacencyMapImS6_S8_St6vectorImSaImEEEEEEE7addEdgeEOmSH_
FNDA:1,_ZN7fishnet5graph20DirectedAcyclicGraphINS0_6__impl11SimpleGraphINS2_8BaseEdgeImLb1ESt4hashImESt8equal_toImEEENS0_12AdjacencyMapImS6_S8_St6vectorImSaImEEEEEEE7addEdgeERKS9_
FNDA:1,_ZN7fishnet5graph20DirectedAcyclicGraphINS0_6__impl11SimpleGraphINS2_8BaseEdgeImLb1ESt4hashImESt8equal_toImEEENS0_12AdjacencyMapImS6_S8_St6vectorImSaImEEEEEEE8addEdgesINSt6ranges14transform_viewINSI_8ref_viewISB_IS9_SaIS9_EEEEZNSG_8addEdgesIRSM_EEvOT_EUlSR_E_EEEEvSR_
FNDA:1,_ZN7fishnet5graph20DirectedAcyclicGraphINS0_6__impl11SimpleGraphINS2_8BaseEdgeImLb1ESt4hashImESt8equal_toImEEENS0_12AdjacencyMapImS6_S8_St6vectorImSaImEEEEEEE8addEdgesIRSB_ISt4pairImmESaISJ_EEEEvOT_
FNDA:2,_ZZN7fishnet5graph20DirectedAcyclicGraphINS0_6__impl11SimpleGraphINS2_8BaseEdgeImLb1ESt4hashImESt8equal_toImEEENS0_12AdjacencyMapImS6_S8_St6vectorImSaImEEEEEEE8addEdgesINSt6ranges14transform_viewINSI_8ref_viewISB_IS9_SaIS9_EEEEZNSG_8addEdgesIRSM_EEvOT_EUlSR_E_EEEEvSR_ENKUlSR_E_clISt4pairImmEEEDaSR_
FNDA:4,_ZZN7fishnet5graph20DirectedAcyclicGraphINS0_6__impl11SimpleGraphINS2_8BaseEdgeImLb1ESt4hashImESt8equal_toImEEENS0_12AdjacencyMapImS6_S8_St6vectorImSaImEEEEEEE8addEdgesIRSB_ISt4pairImmESaISJ_EEEEvOT_ENKUlSO_E_clIRSJ_EEDaSO_
FNDA:1,_ZN7fishnet5graph20DirectedAcyclicGraphINS0_6__impl11SimpleGraphINS2_8BaseEdgeImLb1ESt4hashImESt8equal_toImEEENS0_12AdjacencyMapImS6_S8_St6vectorImSaImEEEEEEE8addEdgesIRSB_IS9_SaIS9_EEEEvOT_
FNDA:2,_ZZN7fishnet5graph20DirectedAcyclicGraphINS0_6__impl11SimpleGraphINS2_8BaseEdgeImLb1ESt4hashImESt8equal_toImEEENS0_12AdjacencyMapImS6_S8_St6vectorImSaImEEEEEEE8addEdgesIRSB_IS9_SaIS9_EEEEvOT_ENKUlSM_E_clIRS9_EEDaSM_
FNDA:16,_ZNK7fishnet5graph20DirectedAcyclicGraphINS0_6__impl11SimpleGraphINS2_8BaseEdgeImLb1ESt4hashImESt8equal_toImEEENS0_12AdjacencyMapImS6_S8_St6vectorImSaImEEEEEEE8inDegreeERKm
FNDA:5,_ZNK7fishnet5graph20DirectedAcyclicGraphINS0_6__impl11SimpleGraphINS2_8BaseEdgeImLb1ESt4hashImESt8equal_toImEEENS0_12AdjacencyMapImS6_S8_St6vectorImSaImEEEEEEE9outDegreeERKm
FNDA:1,_ZNK7fishnet5graph20DirectedAcyclicGraphINS0_6__impl11SimpleGraphINS2_8BaseEdgeImLb1ESt4hashImESt8equal_toImEEENS0_12AdjacencyMapImS6_S8_St6vectorImSaImEEEEEEE9rootNodesEv
FNDA:9,_ZZNK7fishnet5graph20DirectedAcyclicGraphINS0_6__impl11SimpleGraphINS2_8BaseEdgeImLb1ESt4hashImESt8equal_toImEEENS0_12AdjacencyMapImS6_S8_St6vectorImSaImEEEEEEE9rootNodesEvENKUlRKT_E_clImEEDaSJ_
FNF:18
FNH:18
DA:22,42
DA:23,42
DA:27,16
DA:38,14
DA:39,14
DA:40,14
DA:43,14
DA:45,8
DA:46,8
DA:47,2
DA:48,6
DA:49,6
DA:52,34
DA:53,34
DA:54,1
DA:55,33
DA:56,33
DA:59,1
DA:60,1
DA:63,2
DA:64,14
DA:65,6
DA:66,6
DA:68,2
DA:70,1
DA:71,3
DA:72,1
DA:74,16
DA:75,16
DA:78,5
DA:79,5
DA:82,1
DA:83,10
LF:33
LH:33
end_of_record
TN:
SF:/home/lolo/Documents/fishnet/lib/graph/graph/include/fishnet/GraphFactory.hpp
FN:11,13,_ZN7fishnet5graph12GraphFactory15UndirectedGraphImSt4hashImESt8equal_toImEEEDav
FN:16,21,_ZN7fishnet5graph12GraphFactory15UndirectedGraphI11ExampleNode17MemgraphAdjacencyIS3_EEEDaOT0_
FN:25,27,_ZN7fishnet5graph12GraphFactory13DirectedGraphImSt4hashImESt8equal_toImEEEDav
FN:30,35,_ZN7fishnet5graph12GraphFactory13DirectedGraphI3Job12JobAdjacencyEEDaOT0_
FN:38,40,_ZN7fishnet5graph12GraphFactory3DAGI3Job12JobAdjacencyEEDaOT0_
FN:43,45,_ZN7fishnet5graph12GraphFactory3DAGImSt4hashImESt8equal_toImEEEDav
FNDA:1,_ZN7fishnet5graph12GraphFactory15UndirectedGraphImSt4hashImESt8equal_toImEEEDav
FNDA:1,_ZN7fishnet5graph12GraphFactory15UndirectedGraphI11ExampleNode17MemgraphAdjacencyIS3_EEEDaOT0_
FNDA:15,_ZN7fishnet5graph12GraphFactory13DirectedGraphImSt4hashImESt8equal_toImEEEDav
FNDA:1,_ZN7fishnet5graph12GraphFactory13DirectedGraphI3Job12JobAdjacencyEEDaOT0_
FNDA:1,_ZN7fishnet5graph12GraphFactory3DAGI3Job12JobAdjacencyEEDaOT0_
FNDA:14,_ZN7fishnet5graph12GraphFactory3DAGImSt4hashImESt8equal_toImEEEDav
FNF:6
FNH:6
DA:11,1
DA:12,1
DA:16,1
DA:20,1
DA:25,15
DA:26,15
DA:30,1
DA:34,1
DA:38,1
DA:39,1
DA:43,14
DA:44,14
LF:12
LH:12
end_of_record
TN:
SF:/home/lolo/Documents/fishnet/lib/graph/graph/include/fishnet/SimpleGraph.hpp
FN:101,108,_ZN7fishnet5graph6__impl11SimpleGraphINS1_8BaseEdgeI6IDNodeLb0ESt4hashIS4_ESt8equal_toIS4_EEENS0_12AdjacencyMapIS4_S6_S8_St6vectorIS4_SaIS4_EEEEE8addEdgesIRSB_ISt4pairIS4_S4_ESaISI_EEEEvOT_
FN:104,104,_ZZN7fishnet5graph6__impl11SimpleGraphINS1_8BaseEdgeI6IDNodeLb0ESt4hashIS4_ESt8equal_toIS4_EEENS0_12AdjacencyMapIS4_S6_S8_St6vectorIS4_SaIS4_EEEEE8addEdgesIRSB_ISt4pairIS4_S4_ESaISI_EEEEvOT_ENKUlRSM_E_clISI_EEDaSO_
FN:110,112,_ZN7fishnet5graph6__impl11SimpleGraphINS1_8BaseEdgeI6IDNodeLb0ESt4hashIS4_ESt8equal_toIS4_EEENS0_12AdjacencyMapIS4_S6_S8_St6vectorIS4_SaIS4_EEEEE8addEdgesIRSB_IS9_SaIS9_EEEEvOT_
FN:114,118,_ZN7fishnet5graph6__impl11SimpleGraphINS1_8BaseEdgeI6XYNodeLb0ESt4hashIS4_ESt8equal_toIS4_EEENS0_12AdjacencyMapIS4_S6_S8_St6vectorIS4_SaIS4_EEEEE7addEdgeERKS9_
FN:120,125,_ZNK7fishnet5graph6__impl11SimpleGraphINS1_8BaseEdgeI10DataIDNodeINSt7__cxx1112basic_stringIcSt11char_traitsIcESaIcEEEELb0ESt4hashISB_ESt8equal_toISB_EEENS0_12AdjacencyMapISB_SD_SF_St6vectorISB_SaISB_EEEEE12containsEdgeERKSB_SO_
FN:120,125,_ZNK7fishnet5graph6__impl11SimpleGraphINS1_8BaseEdgeI10DataIDNodeINSt7__cxx1112basic_stringIcSt11char_traitsIcESaIcEEEELb1ESt4hashISB_ESt8equal_toISB_EEENS0_12AdjacencyMapISB_SD_SF_St6vectorISB_SaISB_EEEEE12containsEdgeERKSB_SO_
FN:120,125,_ZNK7fishnet5graph6__impl11SimpleGraphINS1_8BaseEdgeI11ExampleNodeLb0EN17MemgraphAdjacencyIS4_E4HashENS6_5EqualEEES6_E12containsEdgeERKS4_SC_
FN:120,125,_ZNK7fishnet5graph6__impl11SimpleGraphINS1_8BaseEdgeI6IDNodeLb0ESt4hashIS4_ESt8equal_toIS4_EEENS0_12AdjacencyMapIS4_S6_S8_St6vectorIS4_SaIS4_EEEEE12containsEdgeERKS4_SH_
FN:120,125,_ZNK7fishnet5graph6__impl11SimpleGraphINS1_8BaseEdgeI6IDNodeLb1ESt4hashIS4_ESt8equal_toIS4_EEENS0_12AdjacencyMapIS4_S6_S8_St6vectorIS4_SaIS4_EEEEE12containsEdgeERKS4_SH_
FN:120,125,_ZNK7fishnet5graph6__impl11SimpleGraphINS1_8BaseEdgeI6XYNodeLb0ESt4hashIS4_ESt8equal_toIS4_EEENS0_12AdjacencyMapIS4_S6_S8_St6vectorIS4_SaIS4_EEEEE12containsEdgeERKS4_SH_
FN:120,125,_ZNK7fishnet5graph6__impl11SimpleGraphINS1_8BaseEdgeImLb1ESt4hashImESt8equal_toImEEENS0_12AdjacencyMapImS5_S7_St6vectorImSaImEEEEE12containsEdgeERKmSG_
FN:127,129,_ZNK7fishnet5graph6__impl11SimpleGraphINS1_8BaseEdgeI6IDNodeLb0ESt4hashIS4_ESt8equal_toIS4_EEENS0_12AdjacencyMapIS4_S6_S8_St6vectorIS4_SaIS4_EEEEE12containsEdgeERKS9_
FN:127,129,_ZNK7fishnet5graph6__impl11SimpleGraphINS1_8BaseEdgeI6IDNodeLb1ESt4hashIS4_ESt8equal_toIS4_EEENS0_12AdjacencyMapIS4_S6_S8_St6vectorIS4_SaIS4_EEEEE12containsEdgeERKS9_
FN:127,129,_ZNK7fishnet5graph6__impl11SimpleGraphINS1_8BaseEdgeI6XYNodeLb0ESt4hashIS4_ESt8equal_toIS4_EEENS0_12AdjacencyMapIS4_S6_S8_St6vectorIS4_SaIS4_EEEEE12containsEdgeERKS9_
FN:131,136,_ZN7fishnet5graph6__impl11SimpleGraphINS1_8BaseEdgeI6IDNodeLb0ESt4hashIS4_ESt8equal_toIS4_EEENS0_12AdjacencyMapIS4_S6_S8_St6vectorIS4_SaIS4_EEEEE10removeEdgeERKS4_SH_
FN:131,136,_ZN7fishnet5graph6__impl11SimpleGraphINS1_8BaseEdgeI6IDNodeLb1ESt4hashIS4_ESt8equal_toIS4_EEENS0_12AdjacencyMapIS4_S6_S8_St6vectorIS4_SaIS4_EEEEE10removeEdgeERKS4_SH_
FN:131,136,_ZN7fishnet5graph6__impl11SimpleGraphINS1_8BaseEdgeI6XYNodeLb0ESt4hashIS4_ESt8equal_toIS4_EEENS0_12AdjacencyMapIS4_S6_S8_St6vectorIS4_SaIS4_EEEEE10removeEdgeERKS4_SH_
FN:138,140,_ZN7fishnet5graph6__impl11SimpleGraphINS1_8BaseEdgeI6XYNodeLb0ESt4hashIS4_ESt8equal_toIS4_EEENS0_12AdjacencyMapIS4_S6_S8_St6vectorIS4_SaIS4_EEEEE10removeEdgeERKS9_
FN:142,144,_ZNK7fishnet5graph6__impl11SimpleGraphINS1_8BaseEdgeI6IDNodeLb0ESt4hashIS4_ESt8equal_toIS4_EEENS0_12AdjacencyMapIS4_S6_S8_St6vectorIS4_SaIS4_EEEEE8getNodesEv
FN:142,144,_ZNK7fishnet5graph6__impl11SimpleGraphINS1_8BaseEdgeI6IDNodeLb1ESt4hashIS4_ESt8equal_toIS4_EEENS0_12AdjacencyMapIS4_S6_S8_St6vectorIS4_SaIS4_EEEEE8getNodesEv
FN:142,144,_ZNK7fishnet5graph6__impl11SimpleGraphINS1_8BaseEdgeI6XYNodeLb0ESt4hashIS4_ESt8equal_toIS4_EEENS0_12AdjacencyMapIS4_S6_S8_St6vectorIS4_SaIS4_EEEEE8getNodesEv
FN:142,144,_ZNK7fishnet5graph6__impl11SimpleGraphINS1_8BaseEdgeImLb1ESt4hashImESt8equal_toImEEENS0_12AdjacencyMapImS5_S7_St6vectorImSaImEEEEE8getNodesEv
FN:146,153,_ZNK7fishnet5graph6__impl11SimpleGraphINS1_8BaseEdgeI6IDNodeLb0ESt4hashIS4_ESt8equal_toIS4_EEENS0_12AdjacencyMapIS4_S6_S8_St6vectorIS4_SaIS4_EEEEE8getEdgesEv
FN:146,153,_ZNK7fishnet5graph6__impl11SimpleGraphINS1_8BaseEdgeI6IDNodeLb1ESt4hashIS4_ESt8equal_toIS4_EEENS0_12AdjacencyMapIS4_S6_S8_St6vectorIS4_SaIS4_EEEEE8getEdgesEv
FN:146,153,_ZNK7fishnet5graph6__impl11SimpleGraphINS1_8BaseEdgeI6XYNodeLb0ESt4hashIS4_ESt8equal_toIS4_EEENS0_12AdjacencyMapIS4_S6_S8_St6vectorIS4_SaIS4_EEEEE8getEdgesEv
FN:146,153,_ZNK7fishnet5graph6__impl11SimpleGraphINS1_8BaseEdgeImLb1ESt4hashImESt8equal_toImEEENS0_12AdjacencyMapImS5_S7_St6vectorImSaImEEEEE8getEdgesEv
FN:155,157,_ZNK7fishnet5graph6__impl11SimpleGraphINS1_8BaseEdgeI10DataIDNodeINSt7__cxx1112basic_stringIcSt11char_traitsIcESaIcEEEELb0ESt4hashISB_ESt8equal_toISB_EEENS0_12AdjacencyMapISB_SD_SF_St6vectorISB_SaISB_EEEEE13getNeighboursERKSB_
FN:155,157,_ZNK7fishnet5graph6__impl11SimpleGraphINS1_8BaseEdgeI10DataIDNodeINSt7__cxx1112basic_stringIcSt11char_traitsIcESaIcEEEELb1ESt4hashISB_ESt8equal_toISB_EEENS0_12AdjacencyMapISB_SD_SF_St6vectorISB_SaISB_EEEEE13getNeighboursERKSB_
FN:155,157,_ZNK7fishnet5graph6__impl11SimpleGraphINS1_8BaseEdgeI11ExampleNodeLb0EN17MemgraphAdjacencyIS4_E4HashENS6_5EqualEEES6_E13getNeighboursERKS4_
FN:155,157,_ZNK7fishnet5graph6__impl11SimpleGraphINS1_8BaseEdgeI6IDNodeLb0ESt4hashIS4_ESt8equal_toIS4_EEENS0_12AdjacencyMapIS4_S6_S8_St6vectorIS4_SaIS4_EEEEE13getNeighboursERKS4_
FN:155,157,_ZNK7fishnet5graph6__impl11SimpleGraphINS1_8BaseEdgeI6IDNodeLb1ESt4hashIS4_ESt8equal_toIS4_EEENS0_12AdjacencyMapIS4_S6_S8_St6vectorIS4_SaIS4_EEEEE13getNeighboursERKS4_
FN:155,157,_ZNK7fishnet5graph6__impl11SimpleGraphINS1_8BaseEdgeI6XYNodeLb0ESt4hashIS4_ESt8equal_toIS4_EEENS0_12AdjacencyMapIS4_S6_S8_St6vectorIS4_SaIS4_EEEEE13getNeighboursERKS4_
FN:155,157,_ZNK7fishnet5graph6__impl11SimpleGraphINS1_8BaseEdgeImLb1ESt4hashImESt8equal_toImEEENS0_12AdjacencyMapImS5_S7_St6vectorImSaImEEEEE13getNeighboursERKm
FN:159,166,_ZNK7fishnet5graph6__impl11SimpleGraphINS1_8BaseEdgeI6IDNodeLb0ESt4hashIS4_ESt8equal_toIS4_EEENS0_12AdjacencyMapIS4_S6_S8_St6vectorIS4_SaIS4_EEEEE16getReachableFromERKS4_
FN:159,166,_ZNK7fishnet5graph6__impl11SimpleGraphINS1_8BaseEdgeI6IDNodeLb1ESt4hashIS4_ESt8equal_toIS4_EEENS0_12AdjacencyMapIS4_S6_S8_St6vectorIS4_SaIS4_EEEEE16getReachableFromERKS4_
FN:159,166,_ZNK7fishnet5graph6__impl11SimpleGraphINS1_8BaseEdgeI6XYNodeLb0ESt4hashIS4_ESt8equal_toIS4_EEENS0_12AdjacencyMapIS4_S6_S8_St6vectorIS4_SaIS4_EEEEE16getReachableFromERKS4_
FN:159,166,_ZNK7fishnet5graph6__impl11SimpleGraphINS1_8BaseEdgeImLb1ESt4hashImESt8equal_toImEEENS0_12AdjacencyMapImS5_S7_St6vectorImSaImEEEEE16getReachableFromERKm
FN:161,161,_ZZNK7fishnet5graph6__impl11SimpleGraphINS1_8BaseEdgeI6IDNodeLb1ESt4hashIS4_ESt8equal_toIS4_EEENS0_12AdjacencyMapIS4_S6_S8_St6vectorIS4_SaIS4_EEEEE16getReachableFromERKS4_ENKUlSH_E_clESH_
FN:161,161,_ZZNK7fishnet5graph6__impl11SimpleGraphINS1_8BaseEdgeImLb1ESt4hashImESt8equal_toImEEENS0_12AdjacencyMapImS5_S7_St6vectorImSaImEEEEE16getReachableFromERKmENKUlSG_E_clESG_
FN:168,175,_ZNK7fishnet5graph6__impl11SimpleGraphINS1_8BaseEdgeI6IDNodeLb0ESt4hashIS4_ESt8equal_toIS4_EEENS0_12AdjacencyMapIS4_S6_S8_St6vectorIS4_SaIS4_EEEEE16getOutboundEdgesERKS4_
FN:168,175,_ZNK7fishnet5graph6__impl11SimpleGraphINS1_8BaseEdgeI6IDNodeLb1ESt4hashIS4_ESt8equal_toIS4_EEENS0_12AdjacencyMapIS4_S6_S8_St6vectorIS4_SaIS4_EEEEE16getOutboundEdgesERKS4_
FN:168,175,_ZNK7fishnet5graph6__impl11SimpleGraphINS1_8BaseEdgeI6XYNodeLb0ESt4hashIS4_ESt8equal_toIS4_EEENS0_12AdjacencyMapIS4_S6_S8_St6vectorIS4_SaIS4_EEEEE16getOutboundEdgesERKS4_
FN:177,184,_ZNK7fishnet5graph6__impl11SimpleGraphINS1_8BaseEdgeI6IDNodeLb0ESt4hashIS4_ESt8equal_toIS4_EEENS0_12AdjacencyMapIS4_S6_S8_St6vectorIS4_SaIS4_EEEEE15getInboundEdgesERKS4_
FN:177,184,_ZNK7fishnet5graph6__impl11SimpleGraphINS1_8BaseEdgeI6IDNodeLb1ESt4hashIS4_ESt8equal_toIS4_EEENS0_12AdjacencyMapIS4_S6_S8_St6vectorIS4_SaIS4_EEEEE15getInboundEdgesERKS4_
FN:177,184,_ZNK7fishnet5graph6__impl11SimpleGraphINS1_8BaseEdgeI6XYNodeLb0ESt4hashIS4_ESt8equal_toIS4_EEENS0_12AdjacencyMapIS4_S6_S8_St6vectorIS4_SaIS4_EEEEE15getInboundEdgesERKS4_
FN:186,188,_ZN7fishnet5graph6__impl11SimpleGraphINS1_8BaseEdgeI6IDNodeLb0ESt4hashIS4_ESt8equal_toIS4_EEENS0_12AdjacencyMapIS4_S6_S8_St6vectorIS4_SaIS4_EEEEE5clearEv
FN:186,188,_ZN7fishnet5graph6__impl11SimpleGraphINS1_8BaseEdgeI6XYNodeLb0ESt4hashIS4_ESt8equal_toIS4_EEENS0_12AdjacencyMapIS4_S6_S8_St6vectorIS4_SaIS4_EEEEE5clearEv
FN:194,194,_ZN7fishnet5graph6__impl11SimpleGraphINS1_8BaseEdgeI10DataIDNodeINSt7__cxx1112basic_stringIcSt11char_traitsIcESaIcEEEELb0ESt4hashISB_ESt8equal_toISB_EEENS0_12AdjacencyMapISB_SD_SF_St6vectorISB_SaISB_EEEEED0Ev
FN:194,194,_ZN7fishnet5graph6__impl11SimpleGraphINS1_8BaseEdgeI10DataIDNodeINSt7__cxx1112basic_stringIcSt11char_traitsIcESaIcEEEELb0ESt4hashISB_ESt8equal_toISB_EEENS0_12AdjacencyMapISB_SD_SF_St6vectorISB_SaISB_EEEEED2Ev
FN:194,194,_ZN7fishnet5graph6__impl11SimpleGraphINS1_8BaseEdgeI10DataIDNodeINSt7__cxx1112basic_stringIcSt11char_traitsIcESaIcEEEELb1ESt4hashISB_ESt8equal_toISB_EEENS0_12AdjacencyMapISB_SD_SF_St6vectorISB_SaISB_EEEEED0Ev
FN:194,194,_ZN7fishnet5graph6__impl11SimpleGraphINS1_8BaseEdgeI10DataIDNodeINSt7__cxx1112basic_stringIcSt11char_traitsIcESaIcEEEELb1ESt4hashISB_ESt8equal_toISB_EEENS0_12AdjacencyMapISB_SD_SF_St6vectorISB_SaISB_EEEEED2Ev
FN:194,194,_ZN7fishnet5graph6__impl11SimpleGraphINS1_8BaseEdgeI11ExampleNodeLb0EN17MemgraphAdjacencyIS4_E4HashENS6_5EqualEEES6_ED0Ev
FN:194,194,_ZN7fishnet5graph6__impl11SimpleGraphINS1_8BaseEdgeI11ExampleNodeLb0EN17MemgraphAdjacencyIS4_E4HashENS6_5EqualEEES6_ED2Ev
FN:194,194,_ZN7fishnet5graph6__impl11SimpleGraphINS1_8BaseEdgeI3JobLb1EN12JobAdjacency4HashESt8equal_toIS4_EEES5_ED0Ev
FN:194,194,_ZN7fishnet5graph6__impl11SimpleGraphINS1_8BaseEdgeI3JobLb1EN12JobAdjacency4HashESt8equal_toIS4_EEES5_ED2Ev
FN:194,194,_ZN7fishnet5graph6__impl11SimpleGraphINS1_8BaseEdgeI6IDNodeLb0ESt4hashIS4_ESt8equal_toIS4_EEENS0_12AdjacencyMapIS4_S6_S8_St6vectorIS4_SaIS4_EEEEED0Ev
FN:194,194,_ZN7fishnet5graph6__impl11SimpleGraphINS1_8BaseEdgeI6IDNodeLb0ESt4hashIS4_ESt8equal_toIS4_EEENS0_12AdjacencyMapIS4_S6_S8_St6vectorIS4_SaIS4_EEEEED2Ev
FN:194,194,_ZN7fishnet5graph6__impl11SimpleGraphINS1_8BaseEdgeI6IDNodeLb1ESt4hashIS4_ESt8equal_toIS4_EEENS0_12AdjacencyMapIS4_S6_S8_St6vectorIS4_SaIS4_EEEEED0Ev
FN:194,194,_ZN7fishnet5graph6__impl11SimpleGraphINS1_8BaseEdgeI6IDNodeLb1ESt4hashIS4_ESt8equal_toIS4_EEENS0_12AdjacencyMapIS4_S6_S8_St6vectorIS4_SaIS4_EEEEED2Ev
FN:194,194,_ZN7fishnet5graph6__impl11SimpleGraphINS1_8BaseEdgeI6XYNodeLb0ESt4hashIS4_ESt8equal_toIS4_EEENS0_12AdjacencyMapIS4_S6_S8_St6vectorIS4_SaIS4_EEEEED0Ev
FN:194,194,_ZN7fishnet5graph6__impl11SimpleGraphINS1_8BaseEdgeI6XYNodeLb0ESt4hashIS4_ESt8equal_toIS4_EEENS0_12AdjacencyMapIS4_S6_S8_St6vectorIS4_SaIS4_EEEEED2Ev
FN:194,194,_ZN7fishnet5graph6__impl11SimpleGraphINS1_8BaseEdgeImLb0ESt4hashImESt8equal_toImEEENS0_12AdjacencyMapImS5_S7_St6vectorImSaImEEEEED0Ev
FN:194,194,_ZN7fishnet5graph6__impl11SimpleGraphINS1_8BaseEdgeImLb0ESt4hashImESt8equal_toImEEENS0_12AdjacencyMapImS5_S7_St6vectorImSaImEEEEED2Ev
FN:194,194,_ZN7fishnet5graph6__impl11SimpleGraphINS1_8BaseEdgeImLb1ESt4hashImESt8equal_toImEEENS0_12AdjacencyMapImS5_S7_St6vectorImSaImEEEEED0Ev
FN:194,194,_ZN7fishnet5graph6__impl11SimpleGraphINS1_8BaseEdgeImLb1ESt4hashImESt8equal_toImEEENS0_12AdjacencyMapImS5_S7_St6vectorImSaImEEEEED2Ev
FN:23,23,_ZN7fishnet5graph6__impl11SimpleGraphINS1_8BaseEdgeI10DataIDNodeINSt7__cxx1112basic_stringIcSt11char_traitsIcESaIcEEEELb0ESt4hashISB_ESt8equal_toISB_EEENS0_12AdjacencyMapISB_SD_SF_St6vectorISB_SaISB_EEEEEC2Ev
FN:23,23,_ZN7fishnet5graph6__impl11SimpleGraphINS1_8BaseEdgeI10DataIDNodeINSt7__cxx1112basic_stringIcSt11char_traitsIcESaIcEEEELb1ESt4hashISB_ESt8equal_toISB_EEENS0_12AdjacencyMapISB_SD_SF_St6vectorISB_SaISB_EEEEEC2Ev
FN:23,23,_ZN7fishnet5graph6__impl11SimpleGraphINS1_8BaseEdgeI6IDNodeLb0ESt4hashIS4_ESt8equal_toIS4_EEENS0_12AdjacencyMapIS4_S6_S8_St6vectorIS4_SaIS4_EEEEEC2Ev
FN:23,23,_ZN7fishnet5graph6__impl11SimpleGraphINS1_8BaseEdgeI6IDNodeLb1ESt4hashIS4_ESt8equal_toIS4_EEENS0_12AdjacencyMapIS4_S6_S8_St6vectorIS4_SaIS4_EEEEEC2Ev
FN:23,23,_ZN7fishnet5graph6__impl11SimpleGraphINS1_8BaseEdgeI6XYNodeLb0ESt4hashIS4_ESt8equal_toIS4_EEENS0_12AdjacencyMapIS4_S6_S8_St6vectorIS4_SaIS4_EEEEEC2Ev
FN:23,23,_ZN7fishnet5graph6__impl11SimpleGraphINS1_8BaseEdgeImLb0ESt4hashImESt8equal_toImEEENS0_12AdjacencyMapImS5_S7_St6vectorImSaImEEEEEC2Ev
FN:23,23,_ZN7fishnet5graph6__impl11SimpleGraphINS1_8BaseEdgeImLb1ESt4hashImESt8equal_toImEEENS0_12AdjacencyMapImS5_S7_St6vectorImSaImEEEEEC2Ev
FN:25,25,_ZN7fishnet5graph6__impl11SimpleGraphINS1_8BaseEdgeI11ExampleNodeLb0EN17MemgraphAdjacencyIS4_E4HashENS6_5EqualEEES6_EC2EOS6_
FN:25,25,_ZN7fishnet5graph6__impl11SimpleGraphINS1_8BaseEdgeI3JobLb1EN12JobAdjacency4HashESt8equal_toIS4_EEES5_EC2EOS5_
FN:27,27,_ZN7fishnet5graph6__impl11SimpleGraphINS1_8BaseEdgeI3JobLb1EN12JobAdjacency4HashESt8equal_toIS4_EEES5_EC2EOSA_
FN:27,27,_ZN7fishnet5graph6__impl11SimpleGraphINS1_8BaseEdgeImLb1ESt4hashImESt8equal_toImEEENS0_12AdjacencyMapImS5_S7_St6vectorImSaImEEEEEC2EOSE_
FN:29,29,_ZN7fishnet5graph6__impl11SimpleGraphINS1_8BaseEdgeI6XYNodeLb0ESt4hashIS4_ESt8equal_toIS4_EEENS0_12AdjacencyMapIS4_S6_S8_St6vectorIS4_SaIS4_EEEEEC2ERKSF_
FN:31,34,_ZN7fishnet5graph6__impl11SimpleGraphINS1_8BaseEdgeI6IDNodeLb0ESt4hashIS4_ESt8equal_toIS4_EEENS0_12AdjacencyMapIS4_S6_S8_St6vectorIS4_SaIS4_EEEEEaSEOSF_
FN:31,34,_ZN7fishnet5graph6__impl11SimpleGraphINS1_8BaseEdgeI6IDNodeLb1ESt4hashIS4_ESt8equal_toIS4_EEENS0_12AdjacencyMapIS4_S6_S8_St6vectorIS4_SaIS4_EEEEEaSEOSF_
FN:31,34,_ZN7fishnet5graph6__impl11SimpleGraphINS1_8BaseEdgeI6XYNodeLb0ESt4hashIS4_ESt8equal_toIS4_EEENS0_12AdjacencyMapIS4_S6_S8_St6vectorIS4_SaIS4_EEEEEaSEOSF_
FN:31,34,_ZN7fishnet5graph6__impl11SimpleGraphINS1_8BaseEdgeImLb1ESt4hashImESt8equal_toImEEENS0_12AdjacencyMapImS5_S7_St6vectorImSaImEEEEEaSEOSE_
FN:36,39,_ZN7fishnet5graph6__impl11SimpleGraphINS1_8BaseEdgeI6XYNodeLb0ESt4hashIS4_ESt8equal_toIS4_EEENS0_12AdjacencyMapIS4_S6_S8_St6vectorIS4_SaIS4_EEEEEaSERKSF_
FN:41,43,_ZN7fishnet5graph6__impl11SimpleGraphINS1_8BaseEdgeI6IDNodeLb0ESt4hashIS4_ESt8equal_toIS4_EEENS0_12AdjacencyMapIS4_S6_S8_St6vectorIS4_SaIS4_EEEEEC2IRSD_EEOT_
FN:41,43,_ZN7fishnet5graph6__impl11SimpleGraphINS1_8BaseEdgeI6IDNodeLb1ESt4hashIS4_ESt8equal_toIS4_EEENS0_12AdjacencyMapIS4_S6_S8_St6vectorIS4_SaIS4_EEEEEC2IRSD_EEOT_
FN:41,43,_ZN7fishnet5graph6__impl11SimpleGraphINS1_8BaseEdgeI6XYNodeLb0ESt4hashIS4_ESt8equal_toIS4_EEENS0_12AdjacencyMapIS4_S6_S8_St6vectorIS4_SaIS4_EEEEEC2IRSD_EEOT_
FN:45,47,_ZN7fishnet5graph6__impl11SimpleGraphINS1_8BaseEdgeI6IDNodeLb0ESt4hashIS4_ESt8equal_toIS4_EEENS0_12AdjacencyMapIS4_S6_S8_St6vectorIS4_SaIS4_EEEEE7addNodeERKS4_
FN:45,47,_ZN7fishnet5graph6__impl11SimpleGraphINS1_8BaseEdgeI6IDNodeLb1ESt4hashIS4_ESt8equal_toIS4_EEENS0_12AdjacencyMapIS4_S6_S8_St6vectorIS4_SaIS4_EEEEE7addNodeERKS4_
FN:45,47,_ZN7fishnet5graph6__impl11SimpleGraphINS1_8BaseEdgeI6XYNodeLb0ESt4hashIS4_ESt8equal_toIS4_EEENS0_12AdjacencyMapIS4_S6_S8_St6vectorIS4_SaIS4_EEEEE7addNodeERKS4_
FN:45,47,_ZN7fishnet5graph6__impl11SimpleGraphINS1_8BaseEdgeImLb1ESt4hashImESt8equal_toImEEENS0_12AdjacencyMapImS5_S7_St6vectorImSaImEEEEE7addNodeERKm
FN:54,56,_ZN7fishnet5graph6__impl11SimpleGraphINS1_8BaseEdgeI6IDNodeLb0ESt4hashIS4_ESt8equal_toIS4_EEENS0_12AdjacencyMapIS4_S6_S8_St6vectorIS4_SaIS4_EEEEE7addNodeIJS4_EEEbRKS4_DpT_
FN:54,56,_ZN7fishnet5graph6__impl11SimpleGraphINS1_8BaseEdgeI6XYNodeLb0ESt4hashIS4_ESt8equal_toIS4_EEENS0_12AdjacencyMapIS4_S6_S8_St6vectorIS4_SaIS4_EEEEE7addNodeIJS4_EEEbRKS4_DpT_
FN:54,56,_ZN7fishnet5graph6__impl11SimpleGraphINS1_8BaseEdgeI6XYNodeLb0ESt4hashIS4_ESt8equal_toIS4_EEENS0_12AdjacencyMapIS4_S6_S8_St6vectorIS4_SaIS4_EEEEE7addNodeIJS4_S4_S4_EEEbRKS4_DpT_
FN:63,65,_ZN7fishnet5graph6__impl11SimpleGraphINS1_8BaseEdgeI6IDNodeLb0ESt4hashIS4_ESt8equal_toIS4_EEENS0_12AdjacencyMapIS4_S6_S8_St6vectorIS4_SaIS4_EEEEE8addNodesISD_EEbRT_
FN:63,65,_ZN7fishnet5graph6__impl11SimpleGraphINS1_8BaseEdgeI6IDNodeLb1ESt4hashIS4_ESt8equal_toIS4_EEENS0_12AdjacencyMapIS4_S6_S8_St6vectorIS4_SaIS4_EEEEE8addNodesISD_EEbRT_
FN:63,65,_ZN7fishnet5graph6__impl11SimpleGraphINS1_8BaseEdgeI6XYNodeLb0ESt4hashIS4_ESt8equal_toIS4_EEENS0_12AdjacencyMapIS4_S6_S8_St6vectorIS4_SaIS4_EEEEE8addNodesINSt6ranges13elements_viewINSH_8ref_viewISt13unordered_mapIiS4_S5_IiES7_IiESaISt4pairIKiS4_EEEEELm1EEEEEbRT_
FN:63,65,_ZN7fishnet5graph6__impl11SimpleGraphINS1_8BaseEdgeI6XYNodeLb0ESt4hashIS4_ESt8equal_toIS4_EEENS0_12AdjacencyMapIS4_S6_S8_St6vectorIS4_SaIS4_EEEEE8addNodesISD_EEbRT_
FN:67,69,_ZN7fishnet5graph6__impl11SimpleGraphINS1_8BaseEdgeI6IDNodeLb0ESt4hashIS4_ESt8equal_toIS4_EEENS0_12AdjacencyMapIS4_S6_S8_St6vectorIS4_SaIS4_EEEEE8addNodesISD_EEbOT_
FN:71,73,_ZNK7fishnet5graph6__impl11SimpleGraphINS1_8BaseEdgeI6IDNodeLb0ESt4hashIS4_ESt8equal_toIS4_EEENS0_12AdjacencyMapIS4_S6_S8_St6vectorIS4_SaIS4_EEEEE12containsNodeERKS4_
FN:71,73,_ZNK7fishnet5graph6__impl11SimpleGraphINS1_8BaseEdgeI6IDNodeLb1ESt4hashIS4_ESt8equal_toIS4_EEENS0_12AdjacencyMapIS4_S6_S8_St6vectorIS4_SaIS4_EEEEE12containsNodeERKS4_
FN:71,73,_ZNK7fishnet5graph6__impl11SimpleGraphINS1_8BaseEdgeI6XYNodeLb0ESt4hashIS4_ESt8equal_toIS4_EEENS0_12AdjacencyMapIS4_S6_S8_St6vectorIS4_SaIS4_EEEEE12containsNodeERKS4_
FN:71,73,_ZNK7fishnet5graph6__impl11SimpleGraphINS1_8BaseEdgeImLb1ESt4hashImESt8equal_toImEEENS0_12AdjacencyMapImS5_S7_St6vectorImSaImEEEEE12containsNodeERKm
FN:75,77,_ZN7fishnet5graph6__impl11SimpleGraphINS1_8BaseEdgeI6IDNodeLb0ESt4hashIS4_ESt8equal_toIS4_EEENS0_12AdjacencyMapIS4_S6_S8_St6vectorIS4_SaIS4_EEEEE10removeNodeERKS4_
FN:75,77,_ZN7fishnet5graph6__impl11SimpleGraphINS1_8BaseEdgeI6IDNodeLb1ESt4hashIS4_ESt8equal_toIS4_EEENS0_12AdjacencyMapIS4_S6_S8_St6vectorIS4_SaIS4_EEEEE10removeNodeERKS4_
FN:75,77,_ZN7fishnet5graph6__impl11SimpleGraphINS1_8BaseEdgeI6XYNodeLb0ESt4hashIS4_ESt8equal_toIS4_EEENS0_12AdjacencyMapIS4_S6_S8_St6vectorIS4_SaIS4_EEEEE10removeNodeERKS4_
FN:79,88,_ZN7fishnet5graph6__impl11SimpleGraphINS1_8BaseEdgeI10DataIDNodeINSt7__cxx1112basic_stringIcSt11char_traitsIcESaIcEEEELb0ESt4hashISB_ESt8equal_toISB_EEENS0_12AdjacencyMapISB_SD_SF_St6vectorISB_SaISB_EEEEE7addEdgeERKSB_SO_
FN:79,88,_ZN7fishnet5graph6__impl11SimpleGraphINS1_8BaseEdgeI10DataIDNodeINSt7__cxx1112basic_stringIcSt11char_traitsIcESaIcEEEELb1ESt4hashISB_ESt8equal_toISB_EEENS0_12AdjacencyMapISB_SD_SF_St6vectorISB_SaISB_EEEEE7addEdgeERKSB_SO_
FN:79,88,_ZN7fishnet5graph6__impl11SimpleGraphINS1_8BaseEdgeI11ExampleNodeLb0EN17MemgraphAdjacencyIS4_E4HashENS6_5EqualEEES6_E7addEdgeERKS4_SC_
FN:79,88,_ZN7fishnet5graph6__impl11SimpleGraphINS1_8BaseEdgeI6IDNodeLb0ESt4hashIS4_ESt8equal_toIS4_EEENS0_12AdjacencyMapIS4_S6_S8_St6vectorIS4_SaIS4_EEEEE7addEdgeERKS4_SH_
FN:79,88,_ZN7fishnet5graph6__impl11SimpleGraphINS1_8BaseEdgeI6IDNodeLb1ESt4hashIS4_ESt8equal_toIS4_EEENS0_12AdjacencyMapIS4_S6_S8_St6vectorIS4_SaIS4_EEEEE7addEdgeERKS4_SH_
FN:79,88,_ZN7fishnet5graph6__impl11SimpleGraphINS1_8BaseEdgeI6XYNodeLb0ESt4hashIS4_ESt8equal_toIS4_EEENS0_12AdjacencyMapIS4_S6_S8_St6vectorIS4_SaIS4_EEEEE7addEdgeERKS4_SH_
FN:79,88,_ZN7fishnet5graph6__impl11SimpleGraphINS1_8BaseEdgeImLb1ESt4hashImESt8equal_toImEEENS0_12AdjacencyMapImS5_S7_St6vectorImSaImEEEEE7addEdgeERKmSG_
FN:90,99,_ZN7fishnet5graph6__impl11SimpleGraphINS1_8BaseEdgeImLb1ESt4hashImESt8equal_toImEEENS0_12AdjacencyMapImS5_S7_St6vectorImSaImEEEEE7addEdgeEOmSF_
FNDA:2,_ZN7fishnet5graph6__impl11SimpleGraphINS1_8BaseEdgeI6IDNodeLb0ESt4hashIS4_ESt8equal_toIS4_EEENS0_12AdjacencyMapIS4_S6_S8_St6vectorIS4_SaIS4_EEEEE8addEdgesIRSB_ISt4pairIS4_S4_ESaISI_EEEEvOT_
FNDA:4,_ZZN7fishnet5graph6__impl11SimpleGraphINS1_8BaseEdgeI6IDNodeLb0ESt4hashIS4_ESt8equal_toIS4_EEENS0_12AdjacencyMapIS4_S6_S8_St6vectorIS4_SaIS4_EEEEE8addEdgesIRSB_ISt4pairIS4_S4_ESaISI_EEEEvOT_ENKUlRSM_E_clISI_EEDaSO_
FNDA:1,_ZN7fishnet5graph6__impl11SimpleGraphINS1_8BaseEdgeI6IDNodeLb0ESt4hashIS4_ESt8equal_toIS4_EEENS0_12AdjacencyMapIS4_S6_S8_St6vectorIS4_SaIS4_EEEEE8addEdgesIRSB_IS9_SaIS9_EEEEvOT_
FNDA:1180,_ZN7fishnet5graph6__impl11SimpleGraphINS1_8BaseEdgeI6XYNodeLb0ESt4hashIS4_ESt8equal_toIS4_EEENS0_12AdjacencyMapIS4_S6_S8_St6vectorIS4_SaIS4_EEEEE7addEdgeERKS9_
FNDA:99,_ZNK7fishnet5graph6__impl11SimpleGraphINS1_8BaseEdgeI10DataIDNodeINSt7__cxx1112basic_stringIcSt11char_traitsIcESaIcEEEELb0ESt4hashISB_ESt8equal_toISB_EEENS0_12AdjacencyMapISB_SD_SF_St6vectorISB_SaISB_EEEEE12containsEdgeERKSB_SO_
FNDA:99,_ZNK7fishnet5graph6__impl11SimpleGraphINS1_8BaseEdgeI10DataIDNodeINSt7__cxx1112basic_stringIcSt11char_traitsIcESaIcEEEELb1ESt4hashISB_ESt8equal_toISB_EEENS0_12AdjacencyMapISB_SD_SF_St6vectorISB_SaISB_EEEEE12containsEdgeERKSB_SO_
FNDA:1,_ZNK7fishnet5graph6__impl11SimpleGraphINS1_8BaseEdgeI11ExampleNodeLb0EN17MemgraphAdjacencyIS4_E4HashENS6_5EqualEEES6_E12containsEdgeERKS4_SC_
FNDA:197,_ZNK7fishnet5graph6__impl11SimpleGraphINS1_8BaseEdgeI6IDNodeLb0ESt4hashIS4_ESt8equal_toIS4_EEENS0_12AdjacencyMapIS4_S6_S8_St6vectorIS4_SaIS4_EEEEE12containsEdgeERKS4_SH_
FNDA:208,_ZNK7fishnet5graph6__impl11SimpleGraphINS1_8BaseEdgeI6IDNodeLb1ESt4hashIS4_ESt8equal_toIS4_EEENS0_12AdjacencyMapIS4_S6_S8_St6vectorIS4_SaIS4_EEEEE12containsEdgeERKS4_SH_
FNDA:3747,_ZNK7fishnet5graph6__impl11SimpleGraphINS1_8BaseEdgeI6XYNodeLb0ESt4hashIS4_ESt8equal_toIS4_EEENS0_12AdjacencyMapIS4_S6_S8_St6vectorIS4_SaIS4_EEEEE12containsEdgeERKS4_SH_
FNDA:113,_ZNK7fishnet5graph6__impl11SimpleGraphINS1_8BaseEdgeImLb1ESt4hashImESt8equal_toImEEENS0_12AdjacencyMapImS5_S7_St6vectorImSaImEEEEE12containsEdgeERKmSG_
FNDA:4,_ZNK7fishnet5graph6__impl11SimpleGraphINS1_8BaseEdgeI6IDNodeLb0ESt4hashIS4_ESt8equal_toIS4_EEENS0_12AdjacencyMapIS4_S6_S8_St6vectorIS4_SaIS4_EEEEE12containsEdgeERKS9_
FNDA:5,_ZNK7fishnet5graph6__impl11SimpleGraphINS1_8BaseEdgeI6IDNodeLb1ESt4hashIS4_ESt8equal_toIS4_EEENS0_12AdjacencyMapIS4_S6_S8_St6vectorIS4_SaIS4_EEEEE12containsEdgeERKS9_
FNDA:5,_ZNK7fishnet5graph6__impl11SimpleGraphINS1_8BaseEdgeI6XYNodeLb0ESt4hashIS4_ESt8equal_toIS4_EEENS0_12AdjacencyMapIS4_S6_S8_St6vectorIS4_SaIS4_EEEEE12containsEdgeERKS9_
FNDA:3,_ZN7fishnet5graph6__impl11SimpleGraphINS1_8BaseEdgeI6IDNodeLb0ESt4hashIS4_ESt8equal_toIS4_EEENS0_12AdjacencyMapIS4_S6_S8_St6vectorIS4_SaIS4_EEEEE10removeEdgeERKS4_SH_
FNDA:3,_ZN7fishnet5graph6__impl11SimpleGraphINS1_8BaseEdgeI6IDNodeLb1ESt4hashIS4_ESt8equal_toIS4_EEENS0_12AdjacencyMapIS4_S6_S8_St6vectorIS4_SaIS4_EEEEE10removeEdgeERKS4_SH_
FNDA:2,_ZN7fishnet5graph6__impl11SimpleGraphINS1_8BaseEdgeI6XYNodeLb0ESt4hashIS4_ESt8equal_toIS4_EEENS0_12AdjacencyMapIS4_S6_S8_St6vectorIS4_SaIS4_EEEEE10removeEdgeERKS4_SH_
FNDA:1,_ZN7fishnet5graph6__impl11SimpleGraphINS1_8BaseEdgeI6XYNodeLb0ESt4hashIS4_ESt8equal_toIS4_EEENS0_12AdjacencyMapIS4_S6_S8_St6vectorIS4_SaIS4_EEEEE10removeEdgeERKS9_
FNDA:18,_ZNK7fishnet5graph6__impl11SimpleGraphINS1_8BaseEdgeI6IDNodeLb0ESt4hashIS4_ESt8equal_toIS4_EEENS0_12AdjacencyMapIS4_S6_S8_St6vectorIS4_SaIS4_EEEEE8getNodesEv
FNDA:24,_ZNK7fishnet5graph6__impl11SimpleGraphINS1_8BaseEdgeI6IDNodeLb1ESt4hashIS4_ESt8equal_toIS4_EEENS0_12AdjacencyMapIS4_S6_S8_St6vectorIS4_SaIS4_EEEEE8getNodesEv
FNDA:25,_ZNK7fishnet5graph6__impl11SimpleGraphINS1_8BaseEdgeI6XYNodeLb0ESt4hashIS4_ESt8equal_toIS4_EEENS0_12AdjacencyMapIS4_S6_S8_St6vectorIS4_SaIS4_EEEEE8getNodesEv
FNDA:19,_ZNK7fishnet5graph6__impl11SimpleGraphINS1_8BaseEdgeImLb1ESt4hashImESt8equal_toImEEENS0_12AdjacencyMapImS5_S7_St6vectorImSaImEEEEE8getNodesEv
FNDA:8,_ZNK7fishnet5graph6__impl11SimpleGraphINS1_8BaseEdgeI6IDNodeLb0ESt4hashIS4_ESt8equal_toIS4_EEENS0_12AdjacencyMapIS4_S6_S8_St6vectorIS4_SaIS4_EEEEE8getEdgesEv
FNDA:7,_ZNK7fishnet5graph6__impl11SimpleGraphINS1_8BaseEdgeI6IDNodeLb1ESt4hashIS4_ESt8equal_toIS4_EEENS0_12AdjacencyMapIS4_S6_S8_St6vectorIS4_SaIS4_EEEEE8getEdgesEv
FNDA:9,_ZNK7fishnet5graph6__impl11SimpleGraphINS1_8BaseEdgeI6XYNodeLb0ESt4hashIS4_ESt8equal_toIS4_EEENS0_12AdjacencyMapIS4_S6_S8_St6vectorIS4_SaIS4_EEEEE8getEdgesEv
FNDA:4,_ZNK7fishnet5graph6__impl11SimpleGraphINS1_8BaseEdgeImLb1ESt4hashImESt8equal_toImEEENS0_12AdjacencyMapImS5_S7_St6vectorImSaImEEEEE8getEdgesEv
FNDA:17,_ZNK7fishnet5graph6__impl11SimpleGraphINS1_8BaseEdgeI10DataIDNodeINSt7__cxx1112basic_stringIcSt11char_traitsIcESaIcEEEELb0ESt4hashISB_ESt8equal_toISB_EEENS0_12AdjacencyMapISB_SD_SF_St6vectorISB_SaISB_EEEEE13getNeighboursERKSB_
FNDA:15,_ZNK7fishnet5graph6__impl11SimpleGraphINS1_8BaseEdgeI10DataIDNodeINSt7__cxx1112basic_stringIcSt11char_traitsIcESaIcEEEELb1ESt4hashISB_ESt8equal_toISB_EEENS0_12AdjacencyMapISB_SD_SF_St6vectorISB_SaISB_EEEEE13getNeighboursERKSB_
FNDA:1,_ZNK7fishnet5graph6__impl11SimpleGraphINS1_8BaseEdgeI11ExampleNodeLb0EN17MemgraphAdjacencyIS4_E4HashENS6_5EqualEEES6_E13getNeighboursERKS4_
FNDA:50,_ZNK7fishnet5graph6__impl11SimpleGraphINS1_8BaseEdgeI6IDNodeLb0ESt4hashIS4_ESt8equal_toIS4_EEENS0_12AdjacencyMapIS4_S6_S8_St6vectorIS4_SaIS4_EEEEE13getNeighboursERKS4_
FNDA:25,_ZNK7fishnet5graph6__impl11SimpleGraphINS1_8BaseEdgeI6IDNodeLb1ESt4hashIS4_ESt8equal_toIS4_EEENS0_12AdjacencyMapIS4_S6_S8_St6vectorIS4_SaIS4_EEEEE13getNeighboursERKS4_
FNDA:149,_ZNK7fishnet5graph6__impl11SimpleGraphINS1_8BaseEdgeI6XYNodeLb0ESt4hashIS4_ESt8equal_toIS4_EEENS0_12AdjacencyMapIS4_S6_S8_St6vectorIS4_SaIS4_EEEEE13getNeighboursERKS4_
FNDA:49,_ZNK7fishnet5graph6__impl11SimpleGraphINS1_8BaseEdgeImLb1ESt4hashImESt8equal_toImEEENS0_12AdjacencyMapImS5_S7_St6vectorImSaImEEEEE13getNeighboursERKm
FNDA:7,_ZNK7fishnet5graph6__impl11SimpleGraphINS1_8BaseEdgeI6IDNodeLb0ESt4hashIS4_ESt8equal_toIS4_EEENS0_12AdjacencyMapIS4_S6_S8_St6vectorIS4_SaIS4_EEEEE16getReachableFromERKS4_
FNDA:17,_ZNK7fishnet5graph6__impl11SimpleGraphINS1_8BaseEdgeI6IDNodeLb1ESt4hashIS4_ESt8equal_toIS4_EEENS0_12AdjacencyMapIS4_S6_S8_St6vectorIS4_SaIS4_EEEEE16getReachableFromERKS4_
FNDA:9,_ZNK7fishnet5graph6__impl11SimpleGraphINS1_8BaseEdgeI6XYNodeLb0ESt4hashIS4_ESt8equal_toIS4_EEENS0_12AdjacencyMapIS4_S6_S8_St6vectorIS4_SaIS4_EEEEE16getReachableFromERKS4_
FNDA:16,_ZNK7fishnet5graph6__impl11SimpleGraphINS1_8BaseEdgeImLb1ESt4hashImESt8equal_toImEEENS0_12AdjacencyMapImS5_S7_St6vectorImSaImEEEEE16getReachableFromERKm
FNDA:88,_ZZNK7fishnet5graph6__impl11SimpleGraphINS1_8BaseEdgeI6IDNodeLb1ESt4hashIS4_ESt8equal_toIS4_EEENS0_12AdjacencyMapIS4_S6_S8_St6vectorIS4_SaIS4_EEEEE16getReachableFromERKS4_ENKUlSH_E_clESH_
FNDA:73,_ZZNK7fishnet5graph6__impl11SimpleGraphINS1_8BaseEdgeImLb1ESt4hashImESt8equal_toImEEENS0_12AdjacencyMapImS5_S7_St6vectorImSaImEEEEE16getReachableFromERKmENKUlSG_E_clESG_
FNDA:15,_ZNK7fishnet5graph6__impl11SimpleGraphINS1_8BaseEdgeI6IDNodeLb0ESt4hashIS4_ESt8equal_toIS4_EEENS0_12AdjacencyMapIS4_S6_S8_St6vectorIS4_SaIS4_EEEEE16getOutboundEdgesERKS4_
FNDA:11,_ZNK7fishnet5graph6__impl11SimpleGraphINS1_8BaseEdgeI6IDNodeLb1ESt4hashIS4_ESt8equal_toIS4_EEENS0_12AdjacencyMapIS4_S6_S8_St6vectorIS4_SaIS4_EEEEE16getOutboundEdgesERKS4_
FNDA:5,_ZNK7fishnet5graph6__impl11SimpleGraphINS1_8BaseEdgeI6XYNodeLb0ESt4hashIS4_ESt8equal_toIS4_EEENS0_12AdjacencyMapIS4_S6_S8_St6vectorIS4_SaIS4_EEEEE16getOutboundEdgesERKS4_
FNDA:2,_ZNK7fishnet5graph6__impl11SimpleGraphINS1_8BaseEdgeI6IDNodeLb0ESt4hashIS4_ESt8equal_toIS4_EEENS0_12AdjacencyMapIS4_S6_S8_St6vectorIS4_SaIS4_EEEEE15getInboundEdgesERKS4_
FNDA:10,_ZNK7fishnet5graph6__impl11SimpleGraphINS1_8BaseEdgeI6IDNodeLb1ESt4hashIS4_ESt8equal_toIS4_EEENS0_12AdjacencyMapIS4_S6_S8_St6vectorIS4_SaIS4_EEEEE15getInboundEdgesERKS4_
FNDA:6,_ZNK7fishnet5graph6__impl11SimpleGraphINS1_8BaseEdgeI6XYNodeLb0ESt4hashIS4_ESt8equal_toIS4_EEENS0_12AdjacencyMapIS4_S6_S8_St6vectorIS4_SaIS4_EEEEE15getInboundEdgesERKS4_
FNDA:1,_ZN7fishnet5graph6__impl11SimpleGraphINS1_8BaseEdgeI6IDNodeLb0ESt4hashIS4_ESt8equal_toIS4_EEENS0_12AdjacencyMapIS4_S6_S8_St6vectorIS4_SaIS4_EEEEE5clearEv
FNDA:2,_ZN7fishnet5graph6__impl11SimpleGraphINS1_8BaseEdgeI6XYNodeLb0ESt4hashIS4_ESt8equal_toIS4_EEENS0_12AdjacencyMapIS4_S6_S8_St6vectorIS4_SaIS4_EEEEE5clearEv
FNDA:0,_ZN7fishnet5graph6__impl11SimpleGraphINS1_8BaseEdgeI10DataIDNodeINSt7__cxx1112basic_stringIcSt11char_traitsIcESaIcEEEELb0ESt4hashISB_ESt8equal_toISB_EEENS0_12AdjacencyMapISB_SD_SF_St6vectorISB_SaISB_EEEEED0Ev
FNDA:11,_ZN7fishnet5graph6__impl11SimpleGraphINS1_8BaseEdgeI10DataIDNodeINSt7__cxx1112basic_stringIcSt11char_traitsIcESaIcEEEELb0ESt4hashISB_ESt8equal_toISB_EEENS0_12AdjacencyMapISB_SD_SF_St6vectorISB_SaISB_EEEEED2Ev
FNDA:0,_ZN7fishnet5graph6__impl11SimpleGraphINS1_8BaseEdgeI10DataIDNodeINSt7__cxx1112basic_stringIcSt11char_traitsIcESaIcEEEELb1ESt4hashISB_ESt8equal_toISB_EEENS0_12AdjacencyMapISB_SD_SF_St6vectorISB_SaISB_EEEEED0Ev
FNDA:11,_ZN7fishnet5graph6__impl11SimpleGraphINS1_8BaseEdgeI10DataIDNodeINSt7__cxx1112basic_stringIcSt11char_traitsIcESaIcEEEELb1ESt4hashISB_ESt8equal_toISB_EEENS0_12AdjacencyMapISB_SD_SF_St6vectorISB_SaISB_EEEEED2Ev
FNDA:0,_ZN7fishnet5graph6__impl11SimpleGraphINS1_8BaseEdgeI11ExampleNodeLb0EN17MemgraphAdjacencyIS4_E4HashENS6_5EqualEEES6_ED0Ev
FNDA:1,_ZN7fishnet5graph6__impl11SimpleGraphINS1_8BaseEdgeI11ExampleNodeLb0EN17MemgraphAdjacencyIS4_E4HashENS6_5EqualEEES6_ED2Ev
FNDA:0,_ZN7fishnet5graph6__impl11SimpleGraphINS1_8BaseEdgeI3JobLb1EN12JobAdjacency4HashESt8equal_toIS4_EEES5_ED0Ev
FNDA:2,_ZN7fishnet5graph6__impl11SimpleGraphINS1_8BaseEdgeI3JobLb1EN12JobAdjacency4HashESt8equal_toIS4_EEES5_ED2Ev
FNDA:0,_ZN7fishnet5graph6__impl11SimpleGraphINS1_8BaseEdgeI6IDNodeLb0ESt4hashIS4_ESt8equal_toIS4_EEENS0_12AdjacencyMapIS4_S6_S8_St6vectorIS4_SaIS4_EEEEED0Ev
FNDA:125,_ZN7fishnet5graph6__impl11SimpleGraphINS1_8BaseEdgeI6IDNodeLb0ESt4hashIS4_ESt8equal_toIS4_EEENS0_12AdjacencyMapIS4_S6_S8_St6vectorIS4_SaIS4_EEEEED2Ev
FNDA:0,_ZN7fishnet5graph6__impl11SimpleGraphINS1_8BaseEdgeI6IDNodeLb1ESt4hashIS4_ESt8equal_toIS4_EEENS0_12AdjacencyMapIS4_S6_S8_St6vectorIS4_SaIS4_EEEEED0Ev
FNDA:66,_ZN7fishnet5graph6__impl11SimpleGraphINS1_8BaseEdgeI6IDNodeLb1ESt4hashIS4_ESt8equal_toIS4_EEENS0_12AdjacencyMapIS4_S6_S8_St6vectorIS4_SaIS4_EEEEED2Ev
FNDA:0,_ZN7fishnet5graph6__impl11SimpleGraphINS1_8BaseEdgeI6XYNodeLb0ESt4hashIS4_ESt8equal_toIS4_EEENS0_12AdjacencyMapIS4_S6_S8_St6vectorIS4_SaIS4_EEEEED0Ev
FNDA:87,_ZN7fishnet5graph6__impl11SimpleGraphINS1_8BaseEdgeI6XYNodeLb0ESt4hashIS4_ESt8equal_toIS4_EEENS0_12AdjacencyMapIS4_S6_S8_St6vectorIS4_SaIS4_EEEEED2Ev
FNDA:0,_ZN7fishnet5graph6__impl11SimpleGraphINS1_8BaseEdgeImLb0ESt4hashImESt8equal_toImEEENS0_12AdjacencyMapImS5_S7_St6vectorImSaImEEEEED0Ev
FNDA:1,_ZN7fishnet5graph6__impl11SimpleGraphINS1_8BaseEdgeImLb0ESt4hashImESt8equal_toImEEENS0_12AdjacencyMapImS5_S7_St6vectorImSaImEEEEED2Ev
FNDA:0,_ZN7fishnet5graph6__impl11SimpleGraphINS1_8BaseEdgeImLb1ESt4hashImESt8equal_toImEEENS0_12AdjacencyMapImS5_S7_St6vectorImSaImEEEEED0Ev
FNDA:44,_ZN7fishnet5graph6__impl11SimpleGraphINS1_8BaseEdgeImLb1ESt4hashImESt8equal_toImEEENS0_12AdjacencyMapImS5_S7_St6vectorImSaImEEEEED2Ev
FNDA:11,_ZN7fishnet5graph6__impl11SimpleGraphINS1_8BaseEdgeI10DataIDNodeINSt7__cxx1112basic_stringIcSt11char_traitsIcESaIcEEEELb0ESt4hashISB_ESt8equal_toISB_EEENS0_12AdjacencyMapISB_SD_SF_St6vectorISB_SaISB_EEEEEC2Ev
FNDA:11,_ZN7fishnet5graph6__impl11SimpleGraphINS1_8BaseEdgeI10DataIDNodeINSt7__cxx1112basic_stringIcSt11char_traitsIcESaIcEEEELb1ESt4hashISB_ESt8equal_toISB_EEENS0_12AdjacencyMapISB_SD_SF_St6vectorISB_SaISB_EEEEEC2Ev
FNDA:105,_ZN7fishnet5graph6__impl11SimpleGraphINS1_8BaseEdgeI6IDNodeLb0ESt4hashIS4_ESt8equal_toIS4_EEENS0_12AdjacencyMapIS4_S6_S8_St6vectorIS4_SaIS4_EEEEEC2Ev
FNDA:53,_ZN7fishnet5graph6__impl11SimpleGraphINS1_8BaseEdgeI6IDNodeLb1ESt4hashIS4_ESt8equal_toIS4_EEENS0_12AdjacencyMapIS4_S6_S8_St6vectorIS4_SaIS4_EEEEEC2Ev
FNDA:85,_ZN7fishnet5graph6__impl11SimpleGraphINS1_8BaseEdgeI6XYNodeLb0ESt4hashIS4_ESt8equal_toIS4_EEENS0_12AdjacencyMapIS4_S6_S8_St6vectorIS4_SaIS4_EEEEEC2Ev
FNDA:1,_ZN7fishnet5graph6__impl11SimpleGraphINS1_8BaseEdgeImLb0ESt4hashImESt8equal_toImEEENS0_12AdjacencyMapImS5_S7_St6vectorImSaImEEEEEC2Ev
FNDA:29,_ZN7fishnet5graph6__impl11SimpleGraphINS1_8BaseEdgeImLb1ESt4hashImESt8equal_toImEEENS0_12AdjacencyMapImS5_S7_St6vectorImSaImEEEEEC2Ev
FNDA:1,_ZN7fishnet5graph6__impl11SimpleGraphINS1_8BaseEdgeI11ExampleNodeLb0EN17MemgraphAdjacencyIS4_E4HashENS6_5EqualEEES6_EC2EOS6_
FNDA:1,_ZN7fishnet5graph6__impl11SimpleGraphINS1_8BaseEdgeI3JobLb1EN12JobAdjacency4HashESt8equal_toIS4_EEES5_EC2EOS5_
FNDA:1,_ZN7fishnet5graph6__impl11SimpleGraphINS1_8BaseEdgeI3JobLb1EN12JobAdjacency4HashESt8equal_toIS4_EEES5_EC2EOSA_
FNDA:15,_ZN7fishnet5graph6__impl11SimpleGraphINS1_8BaseEdgeImLb1ESt4hashImESt8equal_toImEEENS0_12AdjacencyMapImS5_S7_St6vectorImSaImEEEEEC2EOSE_
FNDA:1,_ZN7fishnet5graph6__impl11SimpleGraphINS1_8BaseEdgeI6XYNodeLb0ESt4hashIS4_ESt8equal_toIS4_EEENS0_12AdjacencyMapIS4_S6_S8_St6vectorIS4_SaIS4_EEEEEC2ERKSF_
FNDA:60,_ZN7fishnet5graph6__impl11SimpleGraphINS1_8BaseEdgeI6IDNodeLb0ESt4hashIS4_ESt8equal_toIS4_EEENS0_12AdjacencyMapIS4_S6_S8_St6vectorIS4_SaIS4_EEEEEaSEOSF_
FNDA:26,_ZN7fishnet5graph6__impl11SimpleGraphINS1_8BaseEdgeI6IDNodeLb1ESt4hashIS4_ESt8equal_toIS4_EEENS0_12AdjacencyMapIS4_S6_S8_St6vectorIS4_SaIS4_EEEEEaSEOSF_
FNDA:3,_ZN7fishnet5graph6__impl11SimpleGraphINS1_8BaseEdgeI6XYNodeLb0ESt4hashIS4_ESt8equal_toIS4_EEENS0_12AdjacencyMapIS4_S6_S8_St6vectorIS4_SaIS4_EEEEEaSEOSF_
FNDA:14,_ZN7fishnet5graph6__impl11SimpleGraphINS1_8BaseEdgeImLb1ESt4hashImESt8equal_toImEEENS0_12AdjacencyMapImS5_S7_St6vectorImSaImEEEEEaSEOSE_
FNDA:38,_ZN7fishnet5graph6__impl11SimpleGraphINS1_8BaseEdgeI6XYNodeLb0ESt4hashIS4_ESt8equal_toIS4_EEENS0_12AdjacencyMapIS4_S6_S8_St6vectorIS4_SaIS4_EEEEEaSERKSF_
FNDA:20,_ZN7fishnet5graph6__impl11SimpleGraphINS1_8BaseEdgeI6IDNodeLb0ESt4hashIS4_ESt8equal_toIS4_EEENS0_12AdjacencyMapIS4_S6_S8_St6vectorIS4_SaIS4_EEEEEC2IRSD_EEOT_
FNDA:13,_ZN7fishnet5graph6__impl11SimpleGraphINS1_8BaseEdgeI6IDNodeLb1ESt4hashIS4_ESt8equal_toIS4_EEENS0_12AdjacencyMapIS4_S6_S8_St6vectorIS4_SaIS4_EEEEEC2IRSD_EEOT_
FNDA:1,_ZN7fishnet5graph6__impl11SimpleGraphINS1_8BaseEdgeI6XYNodeLb0ESt4hashIS4_ESt8equal_toIS4_EEENS0_12AdjacencyMapIS4_S6_S8_St6vectorIS4_SaIS4_EEEEEC2IRSD_EEOT_
FNDA:46,_ZN7fishnet5graph6__impl11SimpleGraphINS1_8BaseEdgeI6IDNodeLb0ESt4hashIS4_ESt8equal_toIS4_EEENS0_12AdjacencyMapIS4_S6_S8_St6vectorIS4_SaIS4_EEEEE7addNodeERKS4_
FNDA:29,_ZN7fishnet5graph6__impl11SimpleGraphINS1_8BaseEdgeI6IDNodeLb1ESt4hashIS4_ESt8equal_toIS4_EEENS0_12AdjacencyMapIS4_S6_S8_St6vectorIS4_SaIS4_EEEEE7addNodeERKS4_
FNDA:86,_ZN7fishnet5graph6__impl11SimpleGraphINS1_8BaseEdgeI6XYNodeLb0ESt4hashIS4_ESt8equal_toIS4_EEENS0_12AdjacencyMapIS4_S6_S8_St6vectorIS4_SaIS4_EEEEE7addNodeERKS4_
FNDA:11,_ZN7fishnet5graph6__impl11SimpleGraphINS1_8BaseEdgeImLb1ESt4hashImESt8equal_toImEEENS0_12AdjacencyMapImS5_S7_St6vectorImSaImEEEEE7addNodeERKm
FNDA:1,_ZN7fishnet5graph6__impl11SimpleGraphINS1_8BaseEdgeI6IDNodeLb0ESt4hashIS4_ESt8equal_toIS4_EEENS0_12AdjacencyMapIS4_S6_S8_St6vectorIS4_SaIS4_EEEEE7addNodeIJS4_EEEbRKS4_DpT_
FNDA:1,_ZN7fishnet5graph6__impl11SimpleGraphINS1_8BaseEdgeI6XYNodeLb0ESt4hashIS4_ESt8equal_toIS4_EEENS0_12AdjacencyMapIS4_S6_S8_St6vectorIS4_SaIS4_EEEEE7addNodeIJS4_EEEbRKS4_DpT_
FNDA:18,_ZN7fishnet5graph6__impl11SimpleGraphINS1_8BaseEdgeI6XYNodeLb0ESt4hashIS4_ESt8equal_toIS4_EEENS0_12AdjacencyMapIS4_S6_S8_St6vectorIS4_SaIS4_EEEEE7addNodeIJS4_S4_S4_EEEbRKS4_DpT_
FNDA:24,_ZN7fishnet5graph6__impl11SimpleGraphINS1_8BaseEdgeI6IDNodeLb0ESt4hashIS4_ESt8equal_toIS4_EEENS0_12AdjacencyMapIS4_S6_S8_St6vectorIS4_SaIS4_EEEEE8addNodesISD_EEbRT_
FNDA:13,_ZN7fishnet5graph6__impl11SimpleGraphINS1_8BaseEdgeI6IDNodeLb1ESt4hashIS4_ESt8equal_toIS4_EEENS0_12AdjacencyMapIS4_S6_S8_St6vectorIS4_SaIS4_EEEEE8addNodesISD_EEbRT_
FNDA:1,_ZN7fishnet5graph6__impl11SimpleGraphINS1_8BaseEdgeI6XYNodeLb0ESt4hashIS4_ESt8equal_toIS4_EEENS0_12AdjacencyMapIS4_S6_S8_St6vectorIS4_SaIS4_EEEEE8addNodesINSt6ranges13elements_viewINSH_8ref_viewISt13unordered_mapIiS4_S5_IiES7_IiESaISt4pairIKiS4_EEEEELm1EEEEEbRT_
FNDA:5,_ZN7fishnet5graph6__impl11SimpleGraphINS1_8BaseEdgeI6XYNodeLb0ESt4hashIS4_ESt8equal_toIS4_EEENS0_12AdjacencyMapIS4_S6_S8_St6vectorIS4_SaIS4_EEEEE8addNodesISD_EEbRT_
FNDA:1,_ZN7fishnet5graph6__impl11SimpleGraphINS1_8BaseEdgeI6IDNodeLb0ESt4hashIS4_ESt8equal_toIS4_EEENS0_12AdjacencyMapIS4_S6_S8_St6vectorIS4_SaIS4_EEEEE8addNodesISD_EEbOT_
FNDA:46,_ZNK7fishnet5graph6__impl11SimpleGraphINS1_8BaseEdgeI6IDNodeLb0ESt4hashIS4_ESt8equal_toIS4_EEENS0_12AdjacencyMapIS4_S6_S8_St6vectorIS4_SaIS4_EEEEE12containsNodeERKS4_
FNDA:43,_ZNK7fishnet5graph6__impl11SimpleGraphINS1_8BaseEdgeI6IDNodeLb1ESt4hashIS4_ESt8equal_toIS4_EEENS0_12AdjacencyMapIS4_S6_S8_St6vectorIS4_SaIS4_EEEEE12containsNodeERKS4_
FNDA:26,_ZNK7fishnet5graph6__impl11SimpleGraphINS1_8BaseEdgeI6XYNodeLb0ESt4hashIS4_ESt8equal_toIS4_EEENS0_12AdjacencyMapIS4_S6_S8_St6vectorIS4_SaIS4_EEEEE12containsNodeERKS4_
FNDA:1,_ZNK7fishnet5graph6__impl11SimpleGraphINS1_8BaseEdgeImLb1ESt4hashImESt8equal_toImEEENS0_12AdjacencyMapImS5_S7_St6vectorImSaImEEEEE12containsNodeERKm
FNDA:1,_ZN7fishnet5graph6__impl11SimpleGraphINS1_8BaseEdgeI6IDNodeLb0ESt4hashIS4_ESt8equal_toIS4_EEENS0_12AdjacencyMapIS4_S6_S8_St6vectorIS4_SaIS4_EEEEE10removeNodeERKS4_
FNDA:1,_ZN7fishnet5graph6__impl11SimpleGraphINS1_8BaseEdgeI6IDNodeLb1ESt4hashIS4_ESt8equal_toIS4_EEENS0_12AdjacencyMapIS4_S6_S8_St6vectorIS4_SaIS4_EEEEE10removeNodeERKS4_
FNDA:3,_ZN7fishnet5graph6__impl11SimpleGraphINS1_8BaseEdgeI6XYNodeLb0ESt4hashIS4_ESt8equal_toIS4_EEENS0_12AdjacencyMapIS4_S6_S8_St6vectorIS4_SaIS4_EEEEE10removeNodeERKS4_
FNDA:99,_ZN7fishnet5graph6__impl11SimpleGraphINS1_8BaseEdgeI10DataIDNodeINSt7__cxx1112basic_stringIcSt11char_traitsIcESaIcEEEELb0ESt4hashISB_ESt8equal_toISB_EEENS0_12AdjacencyMapISB_SD_SF_St6vectorISB_SaISB_EEEEE7addEdgeERKSB_SO_
FNDA:99,_ZN7fishnet5graph6__impl11SimpleGraphINS1_8BaseEdgeI10DataIDNodeINSt7__cxx1112basic_stringIcSt11char_traitsIcESaIcEEEELb1ESt4hashISB_ESt8equal_toISB_EEENS0_12AdjacencyMapISB_SD_SF_St6vectorISB_SaISB_EEEEE7addEdgeERKSB_SO_
FNDA:1,_ZN7fishnet5graph6__impl11SimpleGraphINS1_8BaseEdgeI11ExampleNodeLb0EN17MemgraphAdjacencyIS4_E4HashENS6_5EqualEEES6_E7addEdgeERKS4_SC_
FNDA:179,_ZN7fishnet5graph6__impl11SimpleGraphINS1_8BaseEdgeI6IDNodeLb0ESt4hashIS4_ESt8equal_toIS4_EEENS0_12AdjacencyMapIS4_S6_S8_St6vectorIS4_SaIS4_EEEEE7addEdgeERKS4_SH_
FNDA:105,_ZN7fishnet5graph6__impl11SimpleGraphINS1_8BaseEdgeI6IDNodeLb1ESt4hashIS4_ESt8equal_toIS4_EEENS0_12AdjacencyMapIS4_S6_S8_St6vectorIS4_SaIS4_EEEEE7addEdgeERKS4_SH_
FNDA:3733,_ZN7fishnet5graph6__impl11SimpleGraphINS1_8BaseEdgeI6XYNodeLb0ESt4hashIS4_ESt8equal_toIS4_EEENS0_12AdjacencyMapIS4_S6_S8_St6vectorIS4_SaIS4_EEEEE7addEdgeERKS4_SH_
FNDA:6,_ZN7fishnet5graph6__impl11SimpleGraphINS1_8BaseEdgeImLb1ESt4hashImESt8equal_toImEEENS0_12AdjacencyMapImS5_S7_St6vectorImSaImEEEEE7addEdgeERKmSG_
FNDA:33,_ZN7fishnet5graph6__impl11SimpleGraphINS1_8BaseEdgeImLb1ESt4hashImESt8equal_toImEEENS0_12AdjacencyMapImS5_S7_St6vectorImSaImEEEEE7addEdgeEOmSF_
FNF:112
FNH:103
DA:23,295
DA:25,2
DA:27,16
DA:29,1
DA:31,103
DA:32,103
DA:33,103
DA:36,38
DA:37,38
DA:38,38
DA:41,34
DA:42,34
DA:43,34
DA:45,172
DA:46,172
DA:54,20
DA:55,20
DA:63,43
DA:64,43
DA:67,1
DA:68,1
DA:71,116
DA:72,116
DA:75,5
DA:76,5
DA:77,5
DA:79,4222
DA:80,4222
DA:81,2991
DA:83,2781
DA:85,2991
DA:87,1231
DA:90,33
DA:91,33
DA:92,33
DA:96,33
DA:98,0
DA:101,2
DA:103,2
DA:104,6
DA:105,2
DA:106,2
DA:107,2
DA:108,2
DA:110,1
DA:111,1
DA:112,1
DA:114,1180
DA:115,1180
DA:116,1180
DA:117,2360
DA:120,4464
DA:122,420
DA:124,4044
DA:127,14
DA:128,14
DA:131,8
DA:132,8
DA:134,5
DA:136,8
DA:138,1
DA:139,1
DA:140,1
DA:142,86
DA:143,86
DA:146,28
DA:147,28
DA:148,4920
DA:149,4864
DA:151,28
DA:152,56
DA:153,28
DA:155,306
DA:156,306
DA:159,49
DA:161,161
DA:162,33
DA:164,16
DA:168,31
DA:169,31
DA:170,31
DA:171,94
DA:172,65
DA:174,29
DA:175,0
DA:177,18
DA:178,18
DA:179,18
DA:180,56
DA:181,30
DA:183,16
DA:184,0
DA:186,3
DA:187,3
DA:188,3
DA:194,348
LF:96
LH:93
end_of_record
TN:
SF:/home/lolo/Documents/fishnet/lib/graph/graph/include/fishnet/WeightedGraph.hpp
FN:106,109,_ZNK7fishnet5graph6__impl22WeightedGraphDecoratorINS1_11SimpleGraphINS1_8BaseEdgeI6XYNodeLb0ESt4hashIS5_ESt8equal_toIS5_EEENS0_12AdjacencyMapIS5_S7_S9_St6vectorIS5_SaIS5_EEEEEEd16DistanceFunctionE12containsEdgeERKNS1_21WeightedEdgeDecoratorISA_dSH_EE
FN:111,113,_ZN7fishnet5graph6__impl22WeightedGraphDecoratorINS1_11SimpleGraphINS1_8BaseEdgeI6XYNodeLb0ESt4hashIS5_ESt8equal_toIS5_EEENS0_12AdjacencyMapIS5_S7_S9_St6vectorIS5_SaIS5_EEEEEEd16DistanceFunctionE12containsEdgeERKS5_SK_
FN:115,117,_ZN7fishnet5graph6__impl22WeightedGraphDecoratorINS1_11SimpleGraphINS1_8BaseEdgeI6XYNodeLb0ESt4hashIS5_ESt8equal_toIS5_EEENS0_12AdjacencyMapIS5_S7_S9_St6vectorIS5_SaIS5_EEEEEEd16DistanceFunctionE12containsEdgeERKS5_SK_RKd
FN:119,121,_ZNK7fishnet5graph6__impl22WeightedGraphDecoratorINS1_11SimpleGraphINS1_8BaseEdgeI6XYNodeLb0ESt4hashIS5_ESt8equal_toIS5_EEENS0_12AdjacencyMapIS5_S7_S9_St6vectorIS5_SaIS5_EEEEEEd16DistanceFunctionE8makeEdgeERKS5_SK_
FN:123,125,_ZN7fishnet5graph6__impl22WeightedGraphDecoratorINS1_11SimpleGraphINS1_8BaseEdgeI6XYNodeLb0ESt4hashIS5_ESt8equal_toIS5_EEENS0_12AdjacencyMapIS5_S7_S9_St6vectorIS5_SaIS5_EEEEEEd16DistanceFunctionE16makeWeightedEdgeERKS5_SK_
FN:127,129,_ZN7fishnet5graph6__impl22WeightedGraphDecoratorINS1_11SimpleGraphINS1_8BaseEdgeI6XYNodeLb0ESt4hashIS5_ESt8equal_toIS5_EEENS0_12AdjacencyMapIS5_S7_S9_St6vectorIS5_SaIS5_EEEEEEd16DistanceFunctionE8makeEdgeERKS5_SK_RKd
FN:131,133,_ZN7fishnet5graph6__impl22WeightedGraphDecoratorINS1_11SimpleGraphINS1_8BaseEdgeI6XYNodeLb0ESt4hashIS5_ESt8equal_toIS5_EEENS0_12AdjacencyMapIS5_S7_S9_St6vectorIS5_SaIS5_EEEEEEd16DistanceFunctionE16makeWeightedEdgeERKS5_SK_RKd
FN:135,141,_ZN7fishnet5graph6__impl22WeightedGraphDecoratorINS1_11SimpleGraphINS1_8BaseEdgeI6XYNodeLb0ESt4hashIS5_ESt8equal_toIS5_EEENS0_12AdjacencyMapIS5_S7_S9_St6vectorIS5_SaIS5_EEEEEEd16DistanceFunctionE10removeEdgeERKS5_SK_
FN:146,154,_ZN7fishnet5graph6__impl22WeightedGraphDecoratorINS1_11SimpleGraphINS1_8BaseEdgeI6XYNodeLb0ESt4hashIS5_ESt8equal_toIS5_EEENS0_12AdjacencyMapIS5_S7_S9_St6vectorIS5_SaIS5_EEEEEEd16DistanceFunctionE10removeEdgeERKNS1_21WeightedEdgeDecoratorISA_dSH_EE
FN:156,158,_ZNK7fishnet5graph6__impl22WeightedGraphDecoratorINS1_11SimpleGraphINS1_8BaseEdgeI6XYNodeLb0ESt4hashIS5_ESt8equal_toIS5_EEENS0_12AdjacencyMapIS5_S7_S9_St6vectorIS5_SaIS5_EEEEEEd16DistanceFunctionE8getEdgesEv
FN:160,162,_ZNK7fishnet5graph6__impl22WeightedGraphDecoratorINS1_11SimpleGraphINS1_8BaseEdgeI6XYNodeLb0ESt4hashIS5_ESt8equal_toIS5_EEENS0_12AdjacencyMapIS5_S7_S9_St6vectorIS5_SaIS5_EEEEEEd16DistanceFunctionE16getOutboundEdgesERKS5_
FN:164,166,_ZNK7fishnet5graph6__impl22WeightedGraphDecoratorINS1_11SimpleGraphINS1_8BaseEdgeI6XYNodeLb0ESt4hashIS5_ESt8equal_toIS5_EEENS0_12AdjacencyMapIS5_S7_S9_St6vectorIS5_SaIS5_EEEEEEd16DistanceFunctionE15getInboundEdgesERKS5_
FN:168,171,_ZN7fishnet5graph6__impl22WeightedGraphDecoratorINS1_11SimpleGraphINS1_8BaseEdgeI6XYNodeLb0ESt4hashIS5_ESt8equal_toIS5_EEENS0_12AdjacencyMapIS5_S7_S9_St6vectorIS5_SaIS5_EEEEEEd16DistanceFunctionE5clearEv
FN:39,44,_ZNK7fishnet5graph6__impl22WeightedGraphDecoratorINS1_11SimpleGraphINS1_8BaseEdgeI6XYNodeLb0ESt4hashIS5_ESt8equal_toIS5_EEENS0_12AdjacencyMapIS5_S7_S9_St6vectorIS5_SaIS5_EEEEEEd16DistanceFunctionE14toWeightedEdgeERKSA_
FN:46,50,_ZNK7fishnet5graph6__impl22WeightedGraphDecoratorINS1_11SimpleGraphINS1_8BaseEdgeI6XYNodeLb0ESt4hashIS5_ESt8equal_toIS5_EEENS0_12AdjacencyMapIS5_S7_S9_St6vectorIS5_SaIS5_EEEEEEd16DistanceFunctionE15toWeightedEdgesISC_ISA_SaISA_EEEESC_INS1_21WeightedEdgeDecoratorISA_dSH_EESaISN_EEOT_
FN:48,48,_ZZNK7fishnet5graph6__impl22WeightedGraphDecoratorINS1_11SimpleGraphINS1_8BaseEdgeI6XYNodeLb0ESt4hashIS5_ESt8equal_toIS5_EEENS0_12AdjacencyMapIS5_S7_S9_St6vectorIS5_SaIS5_EEEEEEd16DistanceFunctionE15toWeightedEdgesISC_ISA_SaISA_EEEESC_INS1_21WeightedEdgeDecoratorISA_dSH_EESaISN_EEOT_ENKUlRKSA_E_clEST_
FN:53,53,_ZN7fishnet5graph6__impl22WeightedGraphDecoratorINS1_11SimpleGraphINS1_8BaseEdgeI6XYNodeLb0ESt4hashIS5_ESt8equal_toIS5_EEENS0_12AdjacencyMapIS5_S7_S9_St6vectorIS5_SaIS5_EEEEEEd16DistanceFunctionEC2Ev
FN:57,57,_ZN7fishnet5graph6__impl22WeightedGraphDecoratorINS1_11SimpleGraphINS1_8BaseEdgeI6XYNodeLb0ESt4hashIS5_ESt8equal_toIS5_EEENS0_12AdjacencyMapIS5_S7_S9_St6vectorIS5_SaIS5_EEEEEEd16DistanceFunctionEC2ISE_EERT_
FN:61,70,_ZN7fishnet5graph6__impl22WeightedGraphDecoratorINS1_11SimpleGraphINS1_8BaseEdgeI6XYNodeLb0ESt4hashIS5_ESt8equal_toIS5_EEENS0_12AdjacencyMapIS5_S7_S9_St6vectorIS5_SaIS5_EEEEEEd16DistanceFunctionE7addEdgeERKNS1_21WeightedEdgeDecoratorISA_dSH_EE
FN:72,74,_ZN7fishnet5graph6__impl22WeightedGraphDecoratorINS1_11SimpleGraphINS1_8BaseEdgeI6XYNodeLb0ESt4hashIS5_ESt8equal_toIS5_EEENS0_12AdjacencyMapIS5_S7_S9_St6vectorIS5_SaIS5_EEEEEEd16DistanceFunctionE8addEdgesIRSt13unordered_setINS1_21WeightedEdgeDecoratorISA_dSH_EES6_ISM_ES8_ISM_ESaISM_EEEEvOT_
FN:73,73,_ZZN7fishnet5graph6__impl22WeightedGraphDecoratorINS1_11SimpleGraphINS1_8BaseEdgeI6XYNodeLb0ESt4hashIS5_ESt8equal_toIS5_EEENS0_12AdjacencyMapIS5_S7_S9_St6vectorIS5_SaIS5_EEEEEEd16DistanceFunctionE8addEdgesIRSt13unordered_setINS1_21WeightedEdgeDecoratorISA_dSH_EES6_ISM_ES8_ISM_ESaISM_EEEEvOT_ENKUlST_E_clIRKSM_EEDaST_
FN:76,78,_ZN7fishnet5graph6__impl22WeightedGraphDecoratorINS1_11SimpleGraphINS1_8BaseEdgeI6XYNodeLb0ESt4hashIS5_ESt8equal_toIS5_EEENS0_12AdjacencyMapIS5_S7_S9_St6vectorIS5_SaIS5_EEEEEEd16DistanceFunctionE7addEdgeERKS5_SK_
FN:80,82,_ZN7fishnet5graph6__impl22WeightedGraphDecoratorINS1_11SimpleGraphINS1_8BaseEdgeI6XYNodeLb0ESt4hashIS5_ESt8equal_toIS5_EEENS0_12AdjacencyMapIS5_S7_S9_St6vectorIS5_SaIS5_EEEEEEd16DistanceFunctionE7addEdgeEOS5_SJ_
FN:84,93,_ZN7fishnet5graph6__impl22WeightedGraphDecoratorINS1_11SimpleGraphINS1_8BaseEdgeI6XYNodeLb0ESt4hashIS5_ESt8equal_toIS5_EEENS0_12AdjacencyMapIS5_S7_S9_St6vectorIS5_SaIS5_EEEEEEd16DistanceFunctionE7addEdgeERKS5_SK_RKd
FNDA:5,_ZNK7fishnet5graph6__impl22WeightedGraphDecoratorINS1_11SimpleGraphINS1_8BaseEdgeI6XYNodeLb0ESt4hashIS5_ESt8equal_toIS5_EEENS0_12AdjacencyMapIS5_S7_S9_St6vectorIS5_SaIS5_EEEEEEd16DistanceFunctionE12containsEdgeERKNS1_21WeightedEdgeDecoratorISA_dSH_EE
FNDA:9,_ZN7fishnet5graph6__impl22WeightedGraphDecoratorINS1_11SimpleGraphINS1_8BaseEdgeI6XYNodeLb0ESt4hashIS5_ESt8equal_toIS5_EEENS0_12AdjacencyMapIS5_S7_S9_St6vectorIS5_SaIS5_EEEEEEd16DistanceFunctionE12containsEdgeERKS5_SK_
FNDA:2,_ZN7fishnet5graph6__impl22WeightedGraphDecoratorINS1_11SimpleGraphINS1_8BaseEdgeI6XYNodeLb0ESt4hashIS5_ESt8equal_toIS5_EEENS0_12AdjacencyMapIS5_S7_S9_St6vectorIS5_SaIS5_EEEEEEd16DistanceFunctionE12containsEdgeERKS5_SK_RKd
FNDA:1234,_ZNK7fishnet5graph6__impl22WeightedGraphDecoratorINS1_11SimpleGraphINS1_8BaseEdgeI6XYNodeLb0ESt4hashIS5_ESt8equal_toIS5_EEENS0_12AdjacencyMapIS5_S7_S9_St6vectorIS5_SaIS5_EEEEEEd16DistanceFunctionE8makeEdgeERKS5_SK_
FNDA:1,_ZN7fishnet5graph6__impl22WeightedGraphDecoratorINS1_11SimpleGraphINS1_8BaseEdgeI6XYNodeLb0ESt4hashIS5_ESt8equal_toIS5_EEENS0_12AdjacencyMapIS5_S7_S9_St6vectorIS5_SaIS5_EEEEEEd16DistanceFunctionE16makeWeightedEdgeERKS5_SK_
FNDA:7,_ZN7fishnet5graph6__impl22WeightedGraphDecoratorINS1_11SimpleGraphINS1_8BaseEdgeI6XYNodeLb0ESt4hashIS5_ESt8equal_toIS5_EEENS0_12AdjacencyMapIS5_S7_S9_St6vectorIS5_SaIS5_EEEEEEd16DistanceFunctionE8makeEdgeERKS5_SK_RKd
FNDA:1,_ZN7fishnet5graph6__impl22WeightedGraphDecoratorINS1_11SimpleGraphINS1_8BaseEdgeI6XYNodeLb0ESt4hashIS5_ESt8equal_toIS5_EEENS0_12AdjacencyMapIS5_S7_S9_St6vectorIS5_SaIS5_EEEEEEd16DistanceFunctionE16makeWeightedEdgeERKS5_SK_RKd
FNDA:1,_ZN7fishnet5graph6__impl22WeightedGraphDecoratorINS1_11SimpleGraphINS1_8BaseEdgeI6XYNodeLb0ESt4hashIS5_ESt8equal_toIS5_EEENS0_12AdjacencyMapIS5_S7_S9_St6vectorIS5_SaIS5_EEEEEEd16DistanceFunctionE10removeEdgeERKS5_SK_
FNDA:2,_ZN7fishnet5graph6__impl22WeightedGraphDecoratorINS1_11SimpleGraphINS1_8BaseEdgeI6XYNodeLb0ESt4hashIS5_ESt8equal_toIS5_EEENS0_12AdjacencyMapIS5_S7_S9_St6vectorIS5_SaIS5_EEEEEEd16DistanceFunctionE10removeEdgeERKNS1_21WeightedEdgeDecoratorISA_dSH_EE
FNDA:9,_ZNK7fishnet5graph6__impl22WeightedGraphDecoratorINS1_11SimpleGraphINS1_8BaseEdgeI6XYNodeLb0ESt4hashIS5_ESt8equal_toIS5_EEENS0_12AdjacencyMapIS5_S7_S9_St6vectorIS5_SaIS5_EEEEEEd16DistanceFunctionE8getEdgesEv
FNDA:5,_ZNK7fishnet5graph6__impl22WeightedGraphDecoratorINS1_11SimpleGraphINS1_8BaseEdgeI6XYNodeLb0ESt4hashIS5_ESt8equal_toIS5_EEENS0_12AdjacencyMapIS5_S7_S9_St6vectorIS5_SaIS5_EEEEEEd16DistanceFunctionE16getOutboundEdgesERKS5_
FNDA:6,_ZNK7fishnet5graph6__impl22WeightedGraphDecoratorINS1_11SimpleGraphINS1_8BaseEdgeI6XYNodeLb0ESt4hashIS5_ESt8equal_toIS5_EEENS0_12AdjacencyMapIS5_S7_S9_St6vectorIS5_SaIS5_EEEEEEd16DistanceFunctionE15getInboundEdgesERKS5_
FNDA:2,_ZN7fishnet5graph6__impl22WeightedGraphDecoratorINS1_11SimpleGraphINS1_8BaseEdgeI6XYNodeLb0ESt4hashIS5_ESt8equal_toIS5_EEENS0_12AdjacencyMapIS5_S7_S9_St6vectorIS5_SaIS5_EEEEEEd16DistanceFunctionE5clearEv
FNDA:3662,_ZNK7fishnet5graph6__impl22WeightedGraphDecoratorINS1_11SimpleGraphINS1_8BaseEdgeI6XYNodeLb0ESt4hashIS5_ESt8equal_toIS5_EEENS0_12AdjacencyMapIS5_S7_S9_St6vectorIS5_SaIS5_EEEEEEd16DistanceFunctionE14toWeightedEdgeERKSA_
FNDA:20,_ZNK7fishnet5graph6__impl22WeightedGraphDecoratorINS1_11SimpleGraphINS1_8BaseEdgeI6XYNodeLb0ESt4hashIS5_ESt8equal_toIS5_EEENS0_12AdjacencyMapIS5_S7_S9_St6vectorIS5_SaIS5_EEEEEEd16DistanceFunctionE15toWeightedEdgesISC_ISA_SaISA_EEEESC_INS1_21WeightedEdgeDecoratorISA_dSH_EESaISN_EEOT_
FNDA:2423,_ZZNK7fishnet5graph6__impl22WeightedGraphDecoratorINS1_11SimpleGraphINS1_8BaseEdgeI6XYNodeLb0ESt4hashIS5_ESt8equal_toIS5_EEENS0_12AdjacencyMapIS5_S7_S9_St6vectorIS5_SaIS5_EEEEEEd16DistanceFunctionE15toWeightedEdgesISC_ISA_SaISA_EEEESC_INS1_21WeightedEdgeDecoratorISA_dSH_EESaISN_EEOT_ENKUlRKSA_E_clEST_
FNDA:76,_ZN7fishnet5graph6__impl22WeightedGraphDecoratorINS1_11SimpleGraphINS1_8BaseEdgeI6XYNodeLb0ESt4hashIS5_ESt8equal_toIS5_EEENS0_12AdjacencyMapIS5_S7_S9_St6vectorIS5_SaIS5_EEEEEEd16DistanceFunctionEC2Ev
FNDA:1,_ZN7fishnet5graph6__impl22WeightedGraphDecoratorINS1_11SimpleGraphINS1_8BaseEdgeI6XYNodeLb0ESt4hashIS5_ESt8equal_toIS5_EEENS0_12AdjacencyMapIS5_S7_S9_St6vectorIS5_SaIS5_EEEEEEd16DistanceFunctionEC2ISE_EERT_
FNDA:1179,_ZN7fishnet5graph6__impl22WeightedGraphDecoratorINS1_11SimpleGraphINS1_8BaseEdgeI6XYNodeLb0ESt4hashIS5_ESt8equal_toIS5_EEENS0_12AdjacencyMapIS5_S7_S9_St6vectorIS5_SaIS5_EEEEEEd16DistanceFunctionE7addEdgeERKNS1_21WeightedEdgeDecoratorISA_dSH_EE
FNDA:1,_ZN7fishnet5graph6__impl22WeightedGraphDecoratorINS1_11SimpleGraphINS1_8BaseEdgeI6XYNodeLb0ESt4hashIS5_ESt8equal_toIS5_EEENS0_12AdjacencyMapIS5_S7_S9_St6vectorIS5_SaIS5_EEEEEEd16DistanceFunctionE8addEdgesIRSt13unordered_setINS1_21WeightedEdgeDecoratorISA_dSH_EES6_ISM_ES8_ISM_ESaISM_EEEEvOT_
FNDA:1176,_ZZN7fishnet5graph6__impl22WeightedGraphDecoratorINS1_11SimpleGraphINS1_8BaseEdgeI6XYNodeLb0ESt4hashIS5_ESt8equal_toIS5_EEENS0_12AdjacencyMapIS5_S7_S9_St6vectorIS5_SaIS5_EEEEEEd16DistanceFunctionE8addEdgesIRSt13unordered_setINS1_21WeightedEdgeDecoratorISA_dSH_EES6_ISM_ES8_ISM_ESaISM_EEEEvOT_ENKUlST_E_clIRKSM_EEDaST_
FNDA:2506,_ZN7fishnet5graph6__impl22WeightedGraphDecoratorINS1_11SimpleGraphINS1_8BaseEdgeI6XYNodeLb0ESt4hashIS5_ESt8equal_toIS5_EEENS0_12AdjacencyMapIS5_S7_S9_St6vectorIS5_SaIS5_EEEEEEd16DistanceFunctionE7addEdgeERKS5_SK_
FNDA:1,_ZN7fishnet5graph6__impl22WeightedGraphDecoratorINS1_11SimpleGraphINS1_8BaseEdgeI6XYNodeLb0ESt4hashIS5_ESt8equal_toIS5_EEENS0_12AdjacencyMapIS5_S7_S9_St6vectorIS5_SaIS5_EEEEEEd16DistanceFunctionE7addEdgeEOS5_SJ_
FNDA:1,_ZN7fishnet5graph6__impl22WeightedGraphDecoratorINS1_11SimpleGraphINS1_8BaseEdgeI6XYNodeLb0ESt4hashIS5_ESt8equal_toIS5_EEENS0_12AdjacencyMapIS5_S7_S9_St6vectorIS5_SaIS5_EEEEEEd16DistanceFunctionE7addEdgeERKS5_SK_RKd
FNF:24
FNH:24
DA:39,3662
DA:40,3662
DA:41,1183
DA:43,2479
DA:46,20
DA:47,20
DA:48,2443
DA:49,20
DA:50,0
DA:53,76
DA:57,1
DA:61,1179
DA:62,1179
DA:63,1179
DA:64,1179
DA:65,0
DA:67,1179
DA:69,0
DA:72,1
DA:73,1177
DA:74,1
DA:76,2506
DA:77,2506
DA:80,1
DA:81,1
DA:84,1
DA:85,1
DA:86,1
DA:87,1
DA:88,0
DA:90,1
DA:92,0
DA:106,5
DA:107,5
DA:108,5
DA:111,9
DA:112,9
DA:115,2
DA:116,2
DA:119,1234
DA:120,1234
DA:123,1
DA:124,1
DA:127,7
DA:128,7
DA:131,1
DA:132,1
DA:135,1
DA:136,1
DA:137,1
DA:138,0
DA:140,1
DA:141,1
DA:146,2
DA:147,2
DA:148,2
DA:149,1
DA:150,1
DA:151,0
DA:152,0
DA:154,2
DA:156,9
DA:157,9
DA:160,5
DA:161,5
DA:164,6
DA:165,6
DA:168,2
DA:169,2
DA:170,2
DA:171,2
LF:71
LH:63
end_of_record
TN:
SF:/home/lolo/Documents/fishnet/lib/graph/model/include/fishnet/AbstractGraph.hpp
FN:106,108,_ZNK7fishnet5graph13AbstractGraphINS0_6__impl11SimpleGraphINS2_8BaseEdgeI10DataIDNodeINSt7__cxx1112basic_stringIcSt11char_traitsIcESaIcEEEELb0ESt4hashISC_ESt8equal_toISC_EEENS0_12AdjacencyMapISC_SE_SG_St6vectorISC_SaISC_EEEEEESH_SM_E8makeEdgeERKSC_SQ_
FN:106,108,_ZNK7fishnet5graph13AbstractGraphINS0_6__impl11SimpleGraphINS2_8BaseEdgeI10DataIDNodeINSt7__cxx1112basic_stringIcSt11char_traitsIcESaIcEEEELb1ESt4hashISC_ESt8equal_toISC_EEENS0_12AdjacencyMapISC_SE_SG_St6vectorISC_SaISC_EEEEEESH_SM_E8makeEdgeERKSC_SQ_
FN:106,108,_ZNK7fishnet5graph13AbstractGraphINS0_6__impl11SimpleGraphINS2_8BaseEdgeI6IDNodeLb0ESt4hashIS5_ESt8equal_toIS5_EEENS0_12AdjacencyMapIS5_S7_S9_St6vectorIS5_SaIS5_EEEEEESA_SF_E8makeEdgeERKS5_SJ_
FN:106,108,_ZNK7fishnet5graph13AbstractGraphINS0_6__impl11SimpleGraphINS2_8BaseEdgeI6IDNodeLb1ESt4hashIS5_ESt8equal_toIS5_EEENS0_12AdjacencyMapIS5_S7_S9_St6vectorIS5_SaIS5_EEEEEESA_SF_E8makeEdgeERKS5_SJ_
FN:106,108,_ZNK7fishnet5graph13AbstractGraphINS0_6__impl11SimpleGraphINS2_8BaseEdgeI6XYNodeLb0ESt4hashIS5_ESt8equal_toIS5_EEENS0_12AdjacencyMapIS5_S7_S9_St6vectorIS5_SaIS5_EEEEEESA_SF_E8makeEdgeERKS5_SJ_
FN:106,108,_ZNK7fishnet5graph13AbstractGraphINS0_6__impl11SimpleGraphINS2_8BaseEdgeImLb1ESt4hashImESt8equal_toImEEENS0_12AdjacencyMapImS6_S8_St6vectorImSaImEEEEEES9_SE_E8makeEdgeERKmSI_
FN:142,142,_ZN7fishnet5graph13AbstractGraphINS0_20DirectedAcyclicGraphINS0_6__impl11SimpleGraphINS3_8BaseEdgeI3JobLb1EN12JobAdjacency4HashESt8equal_toIS6_EEES7_EEEESB_S7_ED0Ev
FN:142,142,_ZN7fishnet5graph13AbstractGraphINS0_20DirectedAcyclicGraphINS0_6__impl11SimpleGraphINS3_8BaseEdgeI3JobLb1EN12JobAdjacency4HashESt8equal_toIS6_EEES7_EEEESB_S7_ED2Ev
FN:142,142,_ZN7fishnet5graph13AbstractGraphINS0_20DirectedAcyclicGraphINS0_6__impl11SimpleGraphINS3_8BaseEdgeImLb1ESt4hashImESt8equal_toImEEENS0_12AdjacencyMapImS7_S9_St6vectorImSaImEEEEEEEESA_SF_ED0Ev
FN:142,142,_ZN7fishnet5graph13AbstractGraphINS0_20DirectedAcyclicGraphINS0_6__impl11SimpleGraphINS3_8BaseEdgeImLb1ESt4hashImESt8equal_toImEEENS0_12AdjacencyMapImS7_S9_St6vectorImSaImEEEEEEEESA_SF_ED2Ev
FN:142,142,_ZN7fishnet5graph13AbstractGraphINS0_6__impl11SimpleGraphINS2_8BaseEdgeI10DataIDNodeINSt7__cxx1112basic_stringIcSt11char_traitsIcESaIcEEEELb0ESt4hashISC_ESt8equal_toISC_EEENS0_12AdjacencyMapISC_SE_SG_St6vectorISC_SaISC_EEEEEESH_SM_ED0Ev
FN:142,142,_ZN7fishnet5graph13AbstractGraphINS0_6__impl11SimpleGraphINS2_8BaseEdgeI10DataIDNodeINSt7__cxx1112basic_stringIcSt11char_traitsIcESaIcEEEELb0ESt4hashISC_ESt8equal_toISC_EEENS0_12AdjacencyMapISC_SE_SG_St6vectorISC_SaISC_EEEEEESH_SM_ED2Ev
FN:142,142,_ZN7fishnet5graph13AbstractGraphINS0_6__impl11SimpleGraphINS2_8BaseEdgeI10DataIDNodeINSt7__cxx1112basic_stringIcSt11char_traitsIcESaIcEEEELb1ESt4hashISC_ESt8equal_toISC_EEENS0_12AdjacencyMapISC_SE_SG_St6vectorISC_SaISC_EEEEEESH_SM_ED0Ev
FN:142,142,_ZN7fishnet5graph13AbstractGraphINS0_6__impl11SimpleGraphINS2_8BaseEdgeI10DataIDNodeINSt7__cxx1112basic_stringIcSt11char_traitsIcESaIcEEEELb1ESt4hashISC_ESt8equal_toISC_EEENS0_12AdjacencyMapISC_SE_SG_St6vectorISC_SaISC_EEEEEESH_SM_ED2Ev
FN:142,142,_ZN7fishnet5graph13AbstractGraphINS0_6__impl11SimpleGraphINS2_8BaseEdgeI11ExampleNodeLb0EN17MemgraphAdjacencyIS5_E4HashENS7_5EqualEEES7_EESA_S7_ED0Ev
FN:142,142,_ZN7fishnet5graph13AbstractGraphINS0_6__impl11SimpleGraphINS2_8BaseEdgeI11ExampleNodeLb0EN17MemgraphAdjacencyIS5_E4HashENS7_5EqualEEES7_EESA_S7_ED2Ev
FN:142,142,_ZN7fishnet5graph13AbstractGraphINS0_6__impl11SimpleGraphINS2_8BaseEdgeI3JobLb1EN12JobAdjacency4HashESt8equal_toIS5_EEES6_EESA_S6_ED0Ev
FN:142,142,_ZN7fishnet5graph13AbstractGraphINS0_6__impl11SimpleGraphINS2_8BaseEdgeI3JobLb1EN12JobAdjacency4HashESt8equal_toIS5_EEES6_EESA_S6_ED2Ev
FN:142,142,_ZN7fishnet5graph13AbstractGraphINS0_6__impl11SimpleGraphINS2_8BaseEdgeI6IDNodeLb0ESt4hashIS5_ESt8equal_toIS5_EEENS0_12AdjacencyMapIS5_S7_S9_St6vectorIS5_SaIS5_EEEEEESA_SF_ED0Ev
FN:142,142,_ZN7fishnet5graph13AbstractGraphINS0_6__impl11SimpleGraphINS2_8BaseEdgeI6IDNodeLb0ESt4hashIS5_ESt8equal_toIS5_EEENS0_12AdjacencyMapIS5_S7_S9_St6vectorIS5_SaIS5_EEEEEESA_SF_ED2Ev
FN:142,142,_ZN7fishnet5graph13AbstractGraphINS0_6__impl11SimpleGraphINS2_8BaseEdgeI6IDNodeLb1ESt4hashIS5_ESt8equal_toIS5_EEENS0_12AdjacencyMapIS5_S7_S9_St6vectorIS5_SaIS5_EEEEEESA_SF_ED0Ev
FN:142,142,_ZN7fishnet5graph13AbstractGraphINS0_6__impl11SimpleGraphINS2_8BaseEdgeI6IDNodeLb1ESt4hashIS5_ESt8equal_toIS5_EEENS0_12AdjacencyMapIS5_S7_S9_St6vectorIS5_SaIS5_EEEEEESA_SF_ED2Ev
FN:142,142,_ZN7fishnet5graph13AbstractGraphINS0_6__impl11SimpleGraphINS2_8BaseEdgeI6XYNodeLb0ESt4hashIS5_ESt8equal_toIS5_EEENS0_12AdjacencyMapIS5_S7_S9_St6vectorIS5_SaIS5_EEEEEESA_SF_ED0Ev
FN:142,142,_ZN7fishnet5graph13AbstractGraphINS0_6__impl11SimpleGraphINS2_8BaseEdgeI6XYNodeLb0ESt4hashIS5_ESt8equal_toIS5_EEENS0_12AdjacencyMapIS5_S7_S9_St6vectorIS5_SaIS5_EEEEEESA_SF_ED2Ev
FN:142,142,_ZN7fishnet5graph13AbstractGraphINS0_6__impl11SimpleGraphINS2_8BaseEdgeImLb0ESt4hashImESt8equal_toImEEENS0_12AdjacencyMapImS6_S8_St6vectorImSaImEEEEEES9_SE_ED0Ev
FN:142,142,_ZN7fishnet5graph13AbstractGraphINS0_6__impl11SimpleGraphINS2_8BaseEdgeImLb0ESt4hashImESt8equal_toImEEENS0_12AdjacencyMapImS6_S8_St6vectorImSaImEEEEEES9_SE_ED2Ev
FN:142,142,_ZN7fishnet5graph13AbstractGraphINS0_6__impl11SimpleGraphINS2_8BaseEdgeImLb1ESt4hashImESt8equal_toImEEENS0_12AdjacencyMapImS6_S8_St6vectorImSaImEEEEEES9_SE_ED0Ev
FN:142,142,_ZN7fishnet5graph13AbstractGraphINS0_6__impl11SimpleGraphINS2_8BaseEdgeImLb1ESt4hashImESt8equal_toImEEENS0_12AdjacencyMapImS6_S8_St6vectorImSaImEEEEEES9_SE_ED2Ev
FN:142,142,_ZN7fishnet5graph13AbstractGraphINS0_6__impl22WeightedGraphDecoratorINS2_11SimpleGraphINS2_8BaseEdgeI6XYNodeLb0ESt4hashIS6_ESt8equal_toIS6_EEENS0_12AdjacencyMapIS6_S8_SA_St6vectorIS6_SaIS6_EEEEEEd16DistanceFunctionEENS2_21WeightedEdgeDecoratorISB_dSI_EESG_ED0Ev
FN:142,142,_ZN7fishnet5graph13AbstractGraphINS0_6__impl22WeightedGraphDecoratorINS2_11SimpleGraphINS2_8BaseEdgeI6XYNodeLb0ESt4hashIS6_ESt8equal_toIS6_EEENS0_12AdjacencyMapIS6_S8_SA_St6vectorIS6_SaIS6_EEEEEEd16DistanceFunctionEENS2_21WeightedEdgeDecoratorISB_dSI_EESG_ED2Ev
FN:18,20,_ZN7fishnet5graph13AbstractGraphINS0_6__impl11SimpleGraphINS2_8BaseEdgeI6IDNodeLb0ESt4hashIS5_ESt8equal_toIS5_EEENS0_12AdjacencyMapIS5_S7_S9_St6vectorIS5_SaIS5_EEEEEESA_SF_E4implEv
FN:18,20,_ZN7fishnet5graph13AbstractGraphINS0_6__impl11SimpleGraphINS2_8BaseEdgeI6XYNodeLb0ESt4hashIS5_ESt8equal_toIS5_EEENS0_12AdjacencyMapIS5_S7_S9_St6vectorIS5_SaIS5_EEEEEESA_SF_E4implEv
FN:29,29,_ZN7fishnet5graph13AbstractGraphINS0_20DirectedAcyclicGraphINS0_6__impl11SimpleGraphINS3_8BaseEdgeI3JobLb1EN12JobAdjacency4HashESt8equal_toIS6_EEES7_EEEESB_S7_EC2Ev
FN:29,29,_ZN7fishnet5graph13AbstractGraphINS0_20DirectedAcyclicGraphINS0_6__impl11SimpleGraphINS3_8BaseEdgeImLb1ESt4hashImESt8equal_toImEEENS0_12AdjacencyMapImS7_S9_St6vectorImSaImEEEEEEEESA_SF_EC2Ev
FN:29,29,_ZN7fishnet5graph13AbstractGraphINS0_6__impl11SimpleGraphINS2_8BaseEdgeI10DataIDNodeINSt7__cxx1112basic_stringIcSt11char_traitsIcESaIcEEEELb0ESt4hashISC_ESt8equal_toISC_EEENS0_12AdjacencyMapISC_SE_SG_St6vectorISC_SaISC_EEEEEESH_SM_EC2Ev
FN:29,29,_ZN7fishnet5graph13AbstractGraphINS0_6__impl11SimpleGraphINS2_8BaseEdgeI10DataIDNodeINSt7__cxx1112basic_stringIcSt11char_traitsIcESaIcEEEELb1ESt4hashISC_ESt8equal_toISC_EEENS0_12AdjacencyMapISC_SE_SG_St6vectorISC_SaISC_EEEEEESH_SM_EC2Ev
FN:29,29,_ZN7fishnet5graph13AbstractGraphINS0_6__impl11SimpleGraphINS2_8BaseEdgeI11ExampleNodeLb0EN17MemgraphAdjacencyIS5_E4HashENS7_5EqualEEES7_EESA_S7_EC2Ev
FN:29,29,_ZN7fishnet5graph13AbstractGraphINS0_6__impl11SimpleGraphINS2_8BaseEdgeI3JobLb1EN12JobAdjacency4HashESt8equal_toIS5_EEES6_EESA_S6_EC2Ev
FN:29,29,_ZN7fishnet5graph13AbstractGraphINS0_6__impl11SimpleGraphINS2_8BaseEdgeI6IDNodeLb0ESt4hashIS5_ESt8equal_toIS5_EEENS0_12AdjacencyMapIS5_S7_S9_St6vectorIS5_SaIS5_EEEEEESA_SF_EC2Ev
FN:29,29,_ZN7fishnet5graph13AbstractGraphINS0_6__impl11SimpleGraphINS2_8BaseEdgeI6IDNodeLb1ESt4hashIS5_ESt8equal_toIS5_EEENS0_12AdjacencyMapIS5_S7_S9_St6vectorIS5_SaIS5_EEEEEESA_SF_EC2Ev
FN:29,29,_ZN7fishnet5graph13AbstractGraphINS0_6__impl11SimpleGraphINS2_8BaseEdgeI6XYNodeLb0ESt4hashIS5_ESt8equal_toIS5_EEENS0_12AdjacencyMapIS5_S7_S9_St6vectorIS5_SaIS5_EEEEEESA_SF_EC2Ev
FN:29,29,_ZN7fishnet5graph13AbstractGraphINS0_6__impl11SimpleGraphINS2_8BaseEdgeImLb0ESt4hashImESt8equal_toImEEENS0_12AdjacencyMapImS6_S8_St6vectorImSaImEEEEEES9_SE_EC2Ev
FN:29,29,_ZN7fishnet5graph13AbstractGraphINS0_6__impl11SimpleGraphINS2_8BaseEdgeImLb1ESt4hashImESt8equal_toImEEENS0_12AdjacencyMapImS6_S8_St6vectorImSaImEEEEEES9_SE_EC2Ev
FN:29,29,_ZN7fishnet5graph13AbstractGraphINS0_6__impl22WeightedGraphDecoratorINS2_11SimpleGraphINS2_8BaseEdgeI6XYNodeLb0ESt4hashIS6_ESt8equal_toIS6_EEENS0_12AdjacencyMapIS6_S8_SA_St6vectorIS6_SaIS6_EEEEEEd16DistanceFunctionEENS2_21WeightedEdgeDecoratorISB_dSI_EESG_EC2Ev
FN:36,38,_ZN7fishnet5graph13AbstractGraphINS0_6__impl11SimpleGraphINS2_8BaseEdgeI6IDNodeLb0ESt4hashIS5_ESt8equal_toIS5_EEENS0_12AdjacencyMapIS5_S7_S9_St6vectorIS5_SaIS5_EEEEEESA_SF_E7addNodeERKS5_
FN:36,38,_ZN7fishnet5graph13AbstractGraphINS0_6__impl11SimpleGraphINS2_8BaseEdgeI6XYNodeLb0ESt4hashIS5_ESt8equal_toIS5_EEENS0_12AdjacencyMapIS5_S7_S9_St6vectorIS5_SaIS5_EEEEEESA_SF_E7addNodeERKS5_
FN:49,52,_ZN7fishnet5graph13AbstractGraphINS0_6__impl11SimpleGraphINS2_8BaseEdgeI6IDNodeLb0ESt4hashIS5_ESt8equal_toIS5_EEENS0_12AdjacencyMapIS5_S7_S9_St6vectorIS5_SaIS5_EEEEEESA_SF_E7addNodeIJS5_EEEbRKS5_DpT_
FN:49,52,_ZN7fishnet5graph13AbstractGraphINS0_6__impl11SimpleGraphINS2_8BaseEdgeI6XYNodeLb0ESt4hashIS5_ESt8equal_toIS5_EEENS0_12AdjacencyMapIS5_S7_S9_St6vectorIS5_SaIS5_EEEEEESA_SF_E7addNodeIJS5_EEEbRKS5_DpT_
FN:49,52,_ZN7fishnet5graph13AbstractGraphINS0_6__impl11SimpleGraphINS2_8BaseEdgeI6XYNodeLb0ESt4hashIS5_ESt8equal_toIS5_EEENS0_12AdjacencyMapIS5_S7_S9_St6vectorIS5_SaIS5_EEEEEESA_SF_E7addNodeIJS5_S5_EEEbRKS5_DpT_
FN:49,52,_ZN7fishnet5graph13AbstractGraphINS0_6__impl11SimpleGraphINS2_8BaseEdgeI6XYNodeLb0ESt4hashIS5_ESt8equal_toIS5_EEENS0_12AdjacencyMapIS5_S7_S9_St6vectorIS5_SaIS5_EEEEEESA_SF_E7addNodeIJS5_S5_S5_EEEbRKS5_DpT_
FN:80,82,_ZN7fishnet5graph13AbstractGraphINS0_6__impl11SimpleGraphINS2_8BaseEdgeI6IDNodeLb0ESt4hashIS5_ESt8equal_toIS5_EEENS0_12AdjacencyMapIS5_S7_S9_St6vectorIS5_SaIS5_EEEEEESA_SF_E8addEdgesISC_ISt4pairIS5_S5_ESaISK_EEEEvRT_
FN:84,88,_ZN7fishnet5graph13AbstractGraphINS0_6__impl11SimpleGraphINS2_8BaseEdgeI6IDNodeLb0ESt4hashIS5_ESt8equal_toIS5_EEENS0_12AdjacencyMapIS5_S7_S9_St6vectorIS5_SaIS5_EEEEEESA_SF_E8addEdgesISC_ISA_SaISA_EEEEvRKT_
FN:86,86,_ZZN7fishnet5graph13AbstractGraphINS0_6__impl11SimpleGraphINS2_8BaseEdgeI6IDNodeLb0ESt4hashIS5_ESt8equal_toIS5_EEENS0_12AdjacencyMapIS5_S7_S9_St6vectorIS5_SaIS5_EEEEEESA_SF_E8addEdgesISC_ISA_SaISA_EEEEvRKT_ENKUlSN_E_clISA_EEDaSN_
FNDA:17,_ZNK7fishnet5graph13AbstractGraphINS0_6__impl11SimpleGraphINS2_8BaseEdgeI10DataIDNodeINSt7__cxx1112basic_stringIcSt11char_traitsIcESaIcEEEELb0ESt4hashISC_ESt8equal_toISC_EEENS0_12AdjacencyMapISC_SE_SG_St6vectorISC_SaISC_EEEEEESH_SM_E8makeEdgeERKSC_SQ_
FNDA:10,_ZNK7fishnet5graph13AbstractGraphINS0_6__impl11SimpleGraphINS2_8BaseEdgeI10DataIDNodeINSt7__cxx1112basic_stringIcSt11char_traitsIcESaIcEEEELb1ESt4hashISC_ESt8equal_toISC_EEENS0_12AdjacencyMapISC_SE_SG_St6vectorISC_SaISC_EEEEEESH_SM_E8makeEdgeERKSC_SQ_
FNDA:62,_ZNK7fishnet5graph13AbstractGraphINS0_6__impl11SimpleGraphINS2_8BaseEdgeI6IDNodeLb0ESt4hashIS5_ESt8equal_toIS5_EEENS0_12AdjacencyMapIS5_S7_S9_St6vectorIS5_SaIS5_EEEEEESA_SF_E8makeEdgeERKS5_SJ_
FNDA:54,_ZNK7fishnet5graph13AbstractGraphINS0_6__impl11SimpleGraphINS2_8BaseEdgeI6IDNodeLb1ESt4hashIS5_ESt8equal_toIS5_EEENS0_12AdjacencyMapIS5_S7_S9_St6vectorIS5_SaIS5_EEEEEESA_SF_E8makeEdgeERKS5_SJ_
FNDA:6066,_ZNK7fishnet5graph13AbstractGraphINS0_6__impl11SimpleGraphINS2_8BaseEdgeI6XYNodeLb0ESt4hashIS5_ESt8equal_toIS5_EEENS0_12AdjacencyMapIS5_S7_S9_St6vectorIS5_SaIS5_EEEEEESA_SF_E8makeEdgeERKS5_SJ_
FNDA:15,_ZNK7fishnet5graph13AbstractGraphINS0_6__impl11SimpleGraphINS2_8BaseEdgeImLb1ESt4hashImESt8equal_toImEEENS0_12AdjacencyMapImS6_S8_St6vectorImSaImEEEEEES9_SE_E8makeEdgeERKmSI_
FNDA:0,_ZN7fishnet5graph13AbstractGraphINS0_20DirectedAcyclicGraphINS0_6__impl11SimpleGraphINS3_8BaseEdgeI3JobLb1EN12JobAdjacency4HashESt8equal_toIS6_EEES7_EEEESB_S7_ED0Ev
FNDA:1,_ZN7fishnet5graph13AbstractGraphINS0_20DirectedAcyclicGraphINS0_6__impl11SimpleGraphINS3_8BaseEdgeI3JobLb1EN12JobAdjacency4HashESt8equal_toIS6_EEES7_EEEESB_S7_ED2Ev
FNDA:0,_ZN7fishnet5graph13AbstractGraphINS0_20DirectedAcyclicGraphINS0_6__impl11SimpleGraphINS3_8BaseEdgeImLb1ESt4hashImESt8equal_toImEEENS0_12AdjacencyMapImS7_S9_St6vectorImSaImEEEEEEEESA_SF_ED0Ev
FNDA:29,_ZN7fishnet5graph13AbstractGraphINS0_20DirectedAcyclicGraphINS0_6__impl11SimpleGraphINS3_8BaseEdgeImLb1ESt4hashImESt8equal_toImEEENS0_12AdjacencyMapImS7_S9_St6vectorImSaImEEEEEEEESA_SF_ED2Ev
FNDA:0,_ZN7fishnet5graph13AbstractGraphINS0_6__impl11SimpleGraphINS2_8BaseEdgeI10DataIDNodeINSt7__cxx1112basic_stringIcSt11char_traitsIcESaIcEEEELb0ESt4hashISC_ESt8equal_toISC_EEENS0_12AdjacencyMapISC_SE_SG_St6vectorISC_SaISC_EEEEEESH_SM_ED0Ev
FNDA:11,_ZN7fishnet5graph13AbstractGraphINS0_6__impl11SimpleGraphINS2_8BaseEdgeI10DataIDNodeINSt7__cxx1112basic_stringIcSt11char_traitsIcESaIcEEEELb0ESt4hashISC_ESt8equal_toISC_EEENS0_12AdjacencyMapISC_SE_SG_St6vectorISC_SaISC_EEEEEESH_SM_ED2Ev
FNDA:0,_ZN7fishnet5graph13AbstractGraphINS0_6__impl11SimpleGraphINS2_8BaseEdgeI10DataIDNodeINSt7__cxx1112basic_stringIcSt11char_traitsIcESaIcEEEELb1ESt4hashISC_ESt8equal_toISC_EEENS0_12AdjacencyMapISC_SE_SG_St6vectorISC_SaISC_EEEEEESH_SM_ED0Ev
FNDA:11,_ZN7fishnet5graph13AbstractGraphINS0_6__impl11SimpleGraphINS2_8BaseEdgeI10DataIDNodeINSt7__cxx1112basic_stringIcSt11char_traitsIcESaIcEEEELb1ESt4hashISC_ESt8equal_toISC_EEENS0_12AdjacencyMapISC_SE_SG_St6vectorISC_SaISC_EEEEEESH_SM_ED2Ev
FNDA:0,_ZN7fishnet5graph13AbstractGraphINS0_6__impl11SimpleGraphINS2_8BaseEdgeI11ExampleNodeLb0EN17MemgraphAdjacencyIS5_E4HashENS7_5EqualEEES7_EESA_S7_ED0Ev
FNDA:1,_ZN7fishnet5graph13AbstractGraphINS0_6__impl11SimpleGraphINS2_8BaseEdgeI11ExampleNodeLb0EN17MemgraphAdjacencyIS5_E4HashENS7_5EqualEEES7_EESA_S7_ED2Ev
FNDA:0,_ZN7fishnet5graph13AbstractGraphINS0_6__impl11SimpleGraphINS2_8BaseEdgeI3JobLb1EN12JobAdjacency4HashESt8equal_toIS5_EEES6_EESA_S6_ED0Ev
FNDA:2,_ZN7fishnet5graph13AbstractGraphINS0_6__impl11SimpleGraphINS2_8BaseEdgeI3JobLb1EN12JobAdjacency4HashESt8equal_toIS5_EEES6_EESA_S6_ED2Ev
FNDA:0,_ZN7fishnet5graph13AbstractGraphINS0_6__impl11SimpleGraphINS2_8BaseEdgeI6IDNodeLb0ESt4hashIS5_ESt8equal_toIS5_EEENS0_12AdjacencyMapIS5_S7_S9_St6vectorIS5_SaIS5_EEEEEESA_SF_ED0Ev
FNDA:125,_ZN7fishnet5graph13AbstractGraphINS0_6__impl11SimpleGraphINS2_8BaseEdgeI6IDNodeLb0ESt4hashIS5_ESt8equal_toIS5_EEENS0_12AdjacencyMapIS5_S7_S9_St6vectorIS5_SaIS5_EEEEEESA_SF_ED2Ev
FNDA:0,_ZN7fishnet5graph13AbstractGraphINS0_6__impl11SimpleGraphINS2_8BaseEdgeI6IDNodeLb1ESt4hashIS5_ESt8equal_toIS5_EEENS0_12AdjacencyMapIS5_S7_S9_St6vectorIS5_SaIS5_EEEEEESA_SF_ED0Ev
FNDA:66,_ZN7fishnet5graph13AbstractGraphINS0_6__impl11SimpleGraphINS2_8BaseEdgeI6IDNodeLb1ESt4hashIS5_ESt8equal_toIS5_EEENS0_12AdjacencyMapIS5_S7_S9_St6vectorIS5_SaIS5_EEEEEESA_SF_ED2Ev
FNDA:0,_ZN7fishnet5graph13AbstractGraphINS0_6__impl11SimpleGraphINS2_8BaseEdgeI6XYNodeLb0ESt4hashIS5_ESt8equal_toIS5_EEENS0_12AdjacencyMapIS5_S7_S9_St6vectorIS5_SaIS5_EEEEEESA_SF_ED0Ev
FNDA:87,_ZN7fishnet5graph13AbstractGraphINS0_6__impl11SimpleGraphINS2_8BaseEdgeI6XYNodeLb0ESt4hashIS5_ESt8equal_toIS5_EEENS0_12AdjacencyMapIS5_S7_S9_St6vectorIS5_SaIS5_EEEEEESA_SF_ED2Ev
FNDA:0,_ZN7fishnet5graph13AbstractGraphINS0_6__impl11SimpleGraphINS2_8BaseEdgeImLb0ESt4hashImESt8equal_toImEEENS0_12AdjacencyMapImS6_S8_St6vectorImSaImEEEEEES9_SE_ED0Ev
FNDA:1,_ZN7fishnet5graph13AbstractGraphINS0_6__impl11SimpleGraphINS2_8BaseEdgeImLb0ESt4hashImESt8equal_toImEEENS0_12AdjacencyMapImS6_S8_St6vectorImSaImEEEEEES9_SE_ED2Ev
FNDA:0,_ZN7fishnet5graph13AbstractGraphINS0_6__impl11SimpleGraphINS2_8BaseEdgeImLb1ESt4hashImESt8equal_toImEEENS0_12AdjacencyMapImS6_S8_St6vectorImSaImEEEEEES9_SE_ED0Ev
FNDA:44,_ZN7fishnet5graph13AbstractGraphINS0_6__impl11SimpleGraphINS2_8BaseEdgeImLb1ESt4hashImESt8equal_toImEEENS0_12AdjacencyMapImS6_S8_St6vectorImSaImEEEEEES9_SE_ED2Ev
FNDA:0,_ZN7fishnet5graph13AbstractGraphINS0_6__impl22WeightedGraphDecoratorINS2_11SimpleGraphINS2_8BaseEdgeI6XYNodeLb0ESt4hashIS6_ESt8equal_toIS6_EEENS0_12AdjacencyMapIS6_S8_SA_St6vectorIS6_SaIS6_EEEEEEd16DistanceFunctionEENS2_21WeightedEdgeDecoratorISB_dSI_EESG_ED0Ev
FNDA:77,_ZN7fishnet5graph13AbstractGraphINS0_6__impl22WeightedGraphDecoratorINS2_11SimpleGraphINS2_8BaseEdgeI6XYNodeLb0ESt4hashIS6_ESt8equal_toIS6_EEENS0_12AdjacencyMapIS6_S8_SA_St6vectorIS6_SaIS6_EEEEEEd16DistanceFunctionEENS2_21WeightedEdgeDecoratorISB_dSI_EESG_ED2Ev
FNDA:3,_ZN7fishnet5graph13AbstractGraphINS0_6__impl11SimpleGraphINS2_8BaseEdgeI6IDNodeLb0ESt4hashIS5_ESt8equal_toIS5_EEENS0_12AdjacencyMapIS5_S7_S9_St6vectorIS5_SaIS5_EEEEEESA_SF_E4implEv
FNDA:74,_ZN7fishnet5graph13AbstractGraphINS0_6__impl11SimpleGraphINS2_8BaseEdgeI6XYNodeLb0ESt4hashIS5_ESt8equal_toIS5_EEENS0_12AdjacencyMapIS5_S7_S9_St6vectorIS5_SaIS5_EEEEEESA_SF_E4implEv
FNDA:1,_ZN7fishnet5graph13AbstractGraphINS0_20DirectedAcyclicGraphINS0_6__impl11SimpleGraphINS3_8BaseEdgeI3JobLb1EN12JobAdjacency4HashESt8equal_toIS6_EEES7_EEEESB_S7_EC2Ev
FNDA:29,_ZN7fishnet5graph13AbstractGraphINS0_20DirectedAcyclicGraphINS0_6__impl11SimpleGraphINS3_8BaseEdgeImLb1ESt4hashImESt8equal_toImEEENS0_12AdjacencyMapImS7_S9_St6vectorImSaImEEEEEEEESA_SF_EC2Ev
FNDA:11,_ZN7fishnet5graph13AbstractGraphINS0_6__impl11SimpleGraphINS2_8BaseEdgeI10DataIDNodeINSt7__cxx1112basic_stringIcSt11char_traitsIcESaIcEEEELb0ESt4hashISC_ESt8equal_toISC_EEENS0_12AdjacencyMapISC_SE_SG_St6vectorISC_SaISC_EEEEEESH_SM_EC2Ev
FNDA:11,_ZN7fishnet5graph13AbstractGraphINS0_6__impl11SimpleGraphINS2_8BaseEdgeI10DataIDNodeINSt7__cxx1112basic_stringIcSt11char_traitsIcESaIcEEEELb1ESt4hashISC_ESt8equal_toISC_EEENS0_12AdjacencyMapISC_SE_SG_St6vectorISC_SaISC_EEEEEESH_SM_EC2Ev
FNDA:1,_ZN7fishnet5graph13AbstractGraphINS0_6__impl11SimpleGraphINS2_8BaseEdgeI11ExampleNodeLb0EN17MemgraphAdjacencyIS5_E4HashENS7_5EqualEEES7_EESA_S7_EC2Ev
FNDA:2,_ZN7fishnet5graph13AbstractGraphINS0_6__impl11SimpleGraphINS2_8BaseEdgeI3JobLb1EN12JobAdjacency4HashESt8equal_toIS5_EEES6_EESA_S6_EC2Ev
FNDA:125,_ZN7fishnet5graph13AbstractGraphINS0_6__impl11SimpleGraphINS2_8BaseEdgeI6IDNodeLb0ESt4hashIS5_ESt8equal_toIS5_EEENS0_12AdjacencyMapIS5_S7_S9_St6vectorIS5_SaIS5_EEEEEESA_SF_EC2Ev
FNDA:66,_ZN7fishnet5graph13AbstractGraphINS0_6__impl11SimpleGraphINS2_8BaseEdgeI6IDNodeLb1ESt4hashIS5_ESt8equal_toIS5_EEENS0_12AdjacencyMapIS5_S7_S9_St6vectorIS5_SaIS5_EEEEEESA_SF_EC2Ev
FNDA:87,_ZN7fishnet5graph13AbstractGraphINS0_6__impl11SimpleGraphINS2_8BaseEdgeI6XYNodeLb0ESt4hashIS5_ESt8equal_toIS5_EEENS0_12AdjacencyMapIS5_S7_S9_St6vectorIS5_SaIS5_EEEEEESA_SF_EC2Ev
FNDA:1,_ZN7fishnet5graph13AbstractGraphINS0_6__impl11SimpleGraphINS2_8BaseEdgeImLb0ESt4hashImESt8equal_toImEEENS0_12AdjacencyMapImS6_S8_St6vectorImSaImEEEEEES9_SE_EC2Ev
FNDA:44,_ZN7fishnet5graph13AbstractGraphINS0_6__impl11SimpleGraphINS2_8BaseEdgeImLb1ESt4hashImESt8equal_toImEEENS0_12AdjacencyMapImS6_S8_St6vectorImSaImEEEEEES9_SE_EC2Ev
FNDA:77,_ZN7fishnet5graph13AbstractGraphINS0_6__impl22WeightedGraphDecoratorINS2_11SimpleGraphINS2_8BaseEdgeI6XYNodeLb0ESt4hashIS6_ESt8equal_toIS6_EEENS0_12AdjacencyMapIS6_S8_SA_St6vectorIS6_SaIS6_EEEEEEd16DistanceFunctionEENS2_21WeightedEdgeDecoratorISB_dSI_EESG_EC2Ev
FNDA:2,_ZN7fishnet5graph13AbstractGraphINS0_6__impl11SimpleGraphINS2_8BaseEdgeI6IDNodeLb0ESt4hashIS5_ESt8equal_toIS5_EEENS0_12AdjacencyMapIS5_S7_S9_St6vectorIS5_SaIS5_EEEEEESA_SF_E7addNodeERKS5_
FNDA:74,_ZN7fishnet5graph13AbstractGraphINS0_6__impl11SimpleGraphINS2_8BaseEdgeI6XYNodeLb0ESt4hashIS5_ESt8equal_toIS5_EEENS0_12AdjacencyMapIS5_S7_S9_St6vectorIS5_SaIS5_EEEEEESA_SF_E7addNodeERKS5_
FNDA:1,_ZN7fishnet5graph13AbstractGraphINS0_6__impl11SimpleGraphINS2_8BaseEdgeI6IDNodeLb0ESt4hashIS5_ESt8equal_toIS5_EEENS0_12AdjacencyMapIS5_S7_S9_St6vectorIS5_SaIS5_EEEEEESA_SF_E7addNodeIJS5_EEEbRKS5_DpT_
FNDA:19,_ZN7fishnet5graph13AbstractGraphINS0_6__impl11SimpleGraphINS2_8BaseEdgeI6XYNodeLb0ESt4hashIS5_ESt8equal_toIS5_EEENS0_12AdjacencyMapIS5_S7_S9_St6vectorIS5_SaIS5_EEEEEESA_SF_E7addNodeIJS5_EEEbRKS5_DpT_
FNDA:18,_ZN7fishnet5graph13AbstractGraphINS0_6__impl11SimpleGraphINS2_8BaseEdgeI6XYNodeLb0ESt4hashIS5_ESt8equal_toIS5_EEENS0_12AdjacencyMapIS5_S7_S9_St6vectorIS5_SaIS5_EEEEEESA_SF_E7addNodeIJS5_S5_EEEbRKS5_DpT_
FNDA:18,_ZN7fishnet5graph13AbstractGraphINS0_6__impl11SimpleGraphINS2_8BaseEdgeI6XYNodeLb0ESt4hashIS5_ESt8equal_toIS5_EEENS0_12AdjacencyMapIS5_S7_S9_St6vectorIS5_SaIS5_EEEEEESA_SF_E7addNodeIJS5_S5_S5_EEEbRKS5_DpT_
FNDA:1,_ZN7fishnet5graph13AbstractGraphINS0_6__impl11SimpleGraphINS2_8BaseEdgeI6IDNodeLb0ESt4hashIS5_ESt8equal_toIS5_EEENS0_12AdjacencyMapIS5_S7_S9_St6vectorIS5_SaIS5_EEEEEESA_SF_E8addEdgesISC_ISt4pairIS5_S5_ESaISK_EEEEvRT_
FNDA:1,_ZN7fishnet5graph13AbstractGraphINS0_6__impl11SimpleGraphINS2_8BaseEdgeI6IDNodeLb0ESt4hashIS5_ESt8equal_toIS5_EEENS0_12AdjacencyMapIS5_S7_S9_St6vectorIS5_SaIS5_EEEEEESA_SF_E8addEdgesISC_ISA_SaISA_EEEEvRKT_
FNDA:2,_ZZN7fishnet5graph13AbstractGraphINS0_6__impl11SimpleGraphINS2_8BaseEdgeI6IDNodeLb0ESt4hashIS5_ESt8equal_toIS5_EEENS0_12AdjacencyMapIS5_S7_S9_St6vectorIS5_SaIS5_EEEEEESA_SF_E8addEdgesISC_ISA_SaISA_EEEEvRKT_ENKUlSN_E_clISA_EEDaSN_
FNF:53
FNH:41
DA:18,77
DA:19,77
DA:29,455
DA:36,76
DA:37,76
DA:49,56
DA:50,56
DA:51,56
DA:80,1
DA:81,1
DA:82,1
DA:84,1
DA:85,1
DA:86,3
DA:87,1
DA:88,1
DA:106,6224
DA:107,6224
DA:142,455
LF:19
LH:19
end_of_record
TN:
SF:/home/lolo/Documents/fishnet/lib/graph/model/include/fishnet/Edge.hpp
FN:125,125,_ZN7fishnet5graph6__impl21WeightedEdgeDecoratorINS1_8BaseEdgeI6XYNodeLb0ESt4hashIS4_ESt8equal_toIS4_EEEd16DistanceFunctionEC2ERKS4_SD_RKd
FN:127,129,_ZN7fishnet5graph6__impl21WeightedEdgeDecoratorINS1_8BaseEdgeI6XYNodeLb0ESt4hashIS4_ESt8equal_toIS4_EEEd16DistanceFunctionEC2ERKS4_SD_
FN:135,135,_ZN7fishnet5graph6__impl21WeightedEdgeDecoratorINS1_8BaseEdgeI6XYNodeLb0ESt4hashIS4_ESt8equal_toIS4_EEEd16DistanceFunctionEC2ERKS9_
FN:141,143,_ZNK7fishnet5graph6__impl21WeightedEdgeDecoratorINS1_8BaseEdgeI6XYNodeLb0ESt4hashIS4_ESt8equal_toIS4_EEEd16DistanceFunctionE9getWeightEv
FN:145,147,_ZNK7fishnet5graph6__impl21WeightedEdgeDecoratorINS1_8BaseEdgeI6XYNodeLb0ESt4hashIS4_ESt8equal_toIS4_EEEd16DistanceFunctionE10unweightedEv
FN:149,151,_ZNK7fishnet5graph6__impl21WeightedEdgeDecoratorINS1_8BaseEdgeI6XYNodeLb0ESt4hashIS4_ESt8equal_toIS4_EEEd16DistanceFunctionEeqERKSB_
FN:153,155,_ZNK7fishnet5graph6__impl21WeightedEdgeDecoratorINS1_8BaseEdgeI6XYNodeLb0ESt4hashIS4_ESt8equal_toIS4_EEEd16DistanceFunctionE4hashEv
FN:175,177,_ZNKSt4hashIN7fishnet5graph6__impl21WeightedEdgeDecoratorINS2_8BaseEdgeI6XYNodeLb0ES_IS5_ESt8equal_toIS5_EEEd16DistanceFunctionEEEclERKSB_
FN:175,177,_ZNKSt4hashIN7fishnet5graph6__impl8BaseEdgeI6IDNodeLb0ES_IS4_ESt8equal_toIS4_EEEEclERKS8_
FN:175,177,_ZNKSt4hashIN7fishnet5graph6__impl8BaseEdgeI6IDNodeLb1ES_IS4_ESt8equal_toIS4_EEEEclERKS8_
FN:175,177,_ZNKSt4hashIN7fishnet5graph6__impl8BaseEdgeI6XYNodeLb0ES_IS4_ESt8equal_toIS4_EEEEclERKS8_
FN:175,177,_ZNKSt4hashIN7fishnet5graph6__impl8BaseEdgeImLb1ES_ImESt8equal_toImEEEEclERKS7_
FN:67,69,_ZN7fishnet5graph6__impl8BaseEdgeI6XYNodeLb0ESt4hashIS3_ESt8equal_toIS3_EE10isDirectedEv
FN:67,69,_ZN7fishnet5graph6__impl8BaseEdgeI6XYNodeLb1ESt4hashIS3_ESt8equal_toIS3_EE10isDirectedEv
FN:71,71,_ZN7fishnet5graph6__impl8BaseEdgeI10DataIDNodeINSt7__cxx1112basic_stringIcSt11char_traitsIcESaIcEEEELb0ESt4hashISA_ESt8equal_toISA_EEC2ERKSA_SH_
FN:71,71,_ZN7fishnet5graph6__impl8BaseEdgeI10DataIDNodeINSt7__cxx1112basic_stringIcSt11char_traitsIcESaIcEEEELb1ESt4hashISA_ESt8equal_toISA_EEC2ERKSA_SH_
FN:71,71,_ZN7fishnet5graph6__impl8BaseEdgeI6IDNodeLb0ESt4hashIS3_ESt8equal_toIS3_EEC2ERKS3_SA_
FN:71,71,_ZN7fishnet5graph6__impl8BaseEdgeI6IDNodeLb1ESt4hashIS3_ESt8equal_toIS3_EEC2ERKS3_SA_
FN:71,71,_ZN7fishnet5graph6__impl8BaseEdgeI6XYNodeLb0ESt4hashIS3_ESt8equal_toIS3_EEC2ERKS3_SA_
FN:71,71,_ZN7fishnet5graph6__impl8BaseEdgeImLb1ESt4hashImESt8equal_toImEEC2ERKmS9_
FN:73,73,_ZN7fishnet5graph6__impl8BaseEdgeI6IDNodeLb0ESt4hashIS3_ESt8equal_toIS3_EEC2EOS3_S9_
FN:73,73,_ZN7fishnet5graph6__impl8BaseEdgeI6IDNodeLb1ESt4hashIS3_ESt8equal_toIS3_EEC2EOS3_S9_
FN:73,73,_ZN7fishnet5graph6__impl8BaseEdgeI6XYNodeLb0E15XYNodeOnlyXHash16XYNodeOnlyXEqualEC2EOS3_S7_
FN:73,73,_ZN7fishnet5graph6__impl8BaseEdgeI6XYNodeLb0ESt4hashIS3_ESt8equal_toIS3_EEC2EOS3_S9_
FN:73,73,_ZN7fishnet5graph6__impl8BaseEdgeI6XYNodeLb1ESt4hashIS3_ESt8equal_toIS3_EEC2EOS3_S9_
FN:73,73,_ZN7fishnet5graph6__impl8BaseEdgeImLb1ESt4hashImESt8equal_toImEEC2EOmS8_
FN:75,77,_ZNK7fishnet5graph6__impl8BaseEdgeI10DataIDNodeINSt7__cxx1112basic_stringIcSt11char_traitsIcESaIcEEEELb0ESt4hashISA_ESt8equal_toISA_EE7getFromEv
FN:75,77,_ZNK7fishnet5graph6__impl8BaseEdgeI10DataIDNodeINSt7__cxx1112basic_stringIcSt11char_traitsIcESaIcEEEELb1ESt4hashISA_ESt8equal_toISA_EE7getFromEv
FN:75,77,_ZNK7fishnet5graph6__impl8BaseEdgeI6IDNodeLb0ESt4hashIS3_ESt8equal_toIS3_EE7getFromEv
FN:75,77,_ZNK7fishnet5graph6__impl8BaseEdgeI6IDNodeLb1ESt4hashIS3_ESt8equal_toIS3_EE7getFromEv
FN:75,77,_ZNK7fishnet5graph6__impl8BaseEdgeI6XYNodeLb0E15XYNodeOnlyXHash16XYNodeOnlyXEqualE7getFromEv
FN:75,77,_ZNK7fishnet5graph6__impl8BaseEdgeI6XYNodeLb0ESt4hashIS3_ESt8equal_toIS3_EE7getFromEv
FN:75,77,_ZNK7fishnet5graph6__impl8BaseEdgeI6XYNodeLb1ESt4hashIS3_ESt8equal_toIS3_EE7getFromEv
FN:75,77,_ZNK7fishnet5graph6__impl8BaseEdgeImLb1ESt4hashImESt8equal_toImEE7getFromEv
FN:79,81,_ZNK7fishnet5graph6__impl8BaseEdgeI10DataIDNodeINSt7__cxx1112basic_stringIcSt11char_traitsIcESaIcEEEELb0ESt4hashISA_ESt8equal_toISA_EE5getToEv
FN:79,81,_ZNK7fishnet5graph6__impl8BaseEdgeI10DataIDNodeINSt7__cxx1112basic_stringIcSt11char_traitsIcESaIcEEEELb1ESt4hashISA_ESt8equal_toISA_EE5getToEv
FN:79,81,_ZNK7fishnet5graph6__impl8BaseEdgeI6IDNodeLb0ESt4hashIS3_ESt8equal_toIS3_EE5getToEv
FN:79,81,_ZNK7fishnet5graph6__impl8BaseEdgeI6IDNodeLb1ESt4hashIS3_ESt8equal_toIS3_EE5getToEv
FN:79,81,_ZNK7fishnet5graph6__impl8BaseEdgeI6XYNodeLb0E15XYNodeOnlyXHash16XYNodeOnlyXEqualE5getToEv
FN:79,81,_ZNK7fishnet5graph6__impl8BaseEdgeI6XYNodeLb0ESt4hashIS3_ESt8equal_toIS3_EE5getToEv
FN:79,81,_ZNK7fishnet5graph6__impl8BaseEdgeI6XYNodeLb1ESt4hashIS3_ESt8equal_toIS3_EE5getToEv
FN:79,81,_ZNK7fishnet5graph6__impl8BaseEdgeImLb1ESt4hashImESt8equal_toImEE5getToEv
FN:83,89,_ZNK7fishnet5graph6__impl8BaseEdgeI10DataIDNodeINSt7__cxx1112basic_stringIcSt11char_traitsIcESaIcEEEELb0ESt4hashISA_ESt8equal_toISA_EEeqERKSF_
FN:83,89,_ZNK7fishnet5graph6__impl8BaseEdgeI6IDNodeLb0ESt4hashIS3_ESt8equal_toIS3_EEeqERKS8_
FN:83,89,_ZNK7fishnet5graph6__impl8BaseEdgeI6XYNodeLb0E15XYNodeOnlyXHash16XYNodeOnlyXEqualEeqERKS6_
FN:83,89,_ZNK7fishnet5graph6__impl8BaseEdgeI6XYNodeLb0ESt4hashIS3_ESt8equal_toIS3_EEeqERKS8_
FN:91,96,_ZNK7fishnet5graph6__impl8BaseEdgeI10DataIDNodeINSt7__cxx1112basic_stringIcSt11char_traitsIcESaIcEEEELb1ESt4hashISA_ESt8equal_toISA_EEeqERKSF_
FN:91,96,_ZNK7fishnet5graph6__impl8BaseEdgeI6IDNodeLb1ESt4hashIS3_ESt8equal_toIS3_EEeqERKS8_
FN:91,96,_ZNK7fishnet5graph6__impl8BaseEdgeI6XYNodeLb1ESt4hashIS3_ESt8equal_toIS3_EEeqERKS8_
FN:91,96,_ZNK7fishnet5graph6__impl8BaseEdgeImLb1ESt4hashImESt8equal_toImEEeqERKS7_
FN:98,107,_ZNK7fishnet5graph6__impl8BaseEdgeI6IDNodeLb0ESt4hashIS3_ESt8equal_toIS3_EE4hashEv
FN:98,107,_ZNK7fishnet5graph6__impl8BaseEdgeI6IDNodeLb1ESt4hashIS3_ESt8equal_toIS3_EE4hashEv
FN:98,107,_ZNK7fishnet5graph6__impl8BaseEdgeI6XYNodeLb0E15XYNodeOnlyXHash16XYNodeOnlyXEqualE4hashEv
FN:98,107,_ZNK7fishnet5graph6__impl8BaseEdgeI6XYNodeLb0ESt4hashIS3_ESt8equal_toIS3_EE4hashEv
FN:98,107,_ZNK7fishnet5graph6__impl8BaseEdgeI6XYNodeLb1ESt4hashIS3_ESt8equal_toIS3_EE4hashEv
FN:98,107,_ZNK7fishnet5graph6__impl8BaseEdgeImLb1ESt4hashImESt8equal_toImEE4hashEv
FNDA:1194,_ZN7fishnet5graph6__impl21WeightedEdgeDecoratorINS1_8BaseEdgeI6XYNodeLb0ESt4hashIS4_ESt8equal_toIS4_EEEd16DistanceFunctionEC2ERKS4_SD_RKd
FNDA:2490,_ZN7fishnet5graph6__impl21WeightedEdgeDecoratorINS1_8BaseEdgeI6XYNodeLb0ESt4hashIS4_ESt8equal_toIS4_EEEd16DistanceFunctionEC2ERKS4_SD_
FNDA:2488,_ZN7fishnet5graph6__impl21WeightedEdgeDecoratorINS1_8BaseEdgeI6XYNodeLb0ESt4hashIS4_ESt8equal_toIS4_EEEd16DistanceFunctionEC2ERKS9_
FNDA:1259,_ZNK7fishnet5graph6__impl21WeightedEdgeDecoratorINS1_8BaseEdgeI6XYNodeLb0ESt4hashIS4_ESt8equal_toIS4_EEEd16DistanceFunctionE9getWeightEv
FNDA:7773,_ZNK7fishnet5graph6__impl21WeightedEdgeDecoratorINS1_8BaseEdgeI6XYNodeLb0ESt4hashIS4_ESt8equal_toIS4_EEEd16DistanceFunctionE10unweightedEv
FNDA:909,_ZNK7fishnet5graph6__impl21WeightedEdgeDecoratorINS1_8BaseEdgeI6XYNodeLb0ESt4hashIS4_ESt8equal_toIS4_EEEd16DistanceFunctionEeqERKSB_
FNDA:4769,_ZNK7fishnet5graph6__impl21WeightedEdgeDecoratorINS1_8BaseEdgeI6XYNodeLb0ESt4hashIS4_ESt8equal_toIS4_EEEd16DistanceFunctionE4hashEv
FNDA:4769,_ZNKSt4hashIN7fishnet5graph6__impl21WeightedEdgeDecoratorINS2_8BaseEdgeI6XYNodeLb0ES_IS5_ESt8equal_toIS5_EEEd16DistanceFunctionEEEclERKSB_
FNDA:17,_ZNKSt4hashIN7fishnet5graph6__impl8BaseEdgeI6IDNodeLb0ES_IS4_ESt8equal_toIS4_EEEEclERKS8_
FNDA:23,_ZNKSt4hashIN7fishnet5graph6__impl8BaseEdgeI6IDNodeLb1ES_IS4_ESt8equal_toIS4_EEEEclERKS8_
FNDA:20585,_ZNKSt4hashIN7fishnet5graph6__impl8BaseEdgeI6XYNodeLb0ES_IS4_ESt8equal_toIS4_EEEEclERKS8_
FNDA:26,_ZNKSt4hashIN7fishnet5graph6__impl8BaseEdgeImLb1ES_ImESt8equal_toImEEEEclERKS7_
FNDA:1,_ZN7fishnet5graph6__impl8BaseEdgeI6XYNodeLb0ESt4hashIS3_ESt8equal_toIS3_EE10isDirectedEv
FNDA:1,_ZN7fishnet5graph6__impl8BaseEdgeI6XYNodeLb1ESt4hashIS3_ESt8equal_toIS3_EE10isDirectedEv
FNDA:17,_ZN7fishnet5graph6__impl8BaseEdgeI10DataIDNodeINSt7__cxx1112basic_stringIcSt11char_traitsIcESaIcEEEELb0ESt4hashISA_ESt8equal_toISA_EEC2ERKSA_SH_
FNDA:10,_ZN7fishnet5graph6__impl8BaseEdgeI10DataIDNodeINSt7__cxx1112basic_stringIcSt11char_traitsIcESaIcEEEELb1ESt4hashISA_ESt8equal_toISA_EEC2ERKSA_SH_
FNDA:84,_ZN7fishnet5graph6__impl8BaseEdgeI6IDNodeLb0ESt4hashIS3_ESt8equal_toIS3_EEC2ERKS3_SA_
FNDA:79,_ZN7fishnet5graph6__impl8BaseEdgeI6IDNodeLb1ESt4hashIS3_ESt8equal_toIS3_EEC2ERKS3_SA_
FNDA:17525,_ZN7fishnet5graph6__impl8BaseEdgeI6XYNodeLb0ESt4hashIS3_ESt8equal_toIS3_EEC2ERKS3_SA_
FNDA:15,_ZN7fishnet5graph6__impl8BaseEdgeImLb1ESt4hashImESt8equal_toImEEC2ERKmS9_
FNDA:2,_ZN7fishnet5graph6__impl8BaseEdgeI6IDNodeLb0ESt4hashIS3_ESt8equal_toIS3_EEC2EOS3_S9_
FNDA:2,_ZN7fishnet5graph6__impl8BaseEdgeI6IDNodeLb1ESt4hashIS3_ESt8equal_toIS3_EEC2EOS3_S9_
FNDA:2,_ZN7fishnet5graph6__impl8BaseEdgeI6XYNodeLb0E15XYNodeOnlyXHash16XYNodeOnlyXEqualEC2EOS3_S7_
FNDA:3,_ZN7fishnet5graph6__impl8BaseEdgeI6XYNodeLb0ESt4hashIS3_ESt8equal_toIS3_EEC2EOS3_S9_
FNDA:3,_ZN7fishnet5graph6__impl8BaseEdgeI6XYNodeLb1ESt4hashIS3_ESt8equal_toIS3_EEC2EOS3_S9_
FNDA:3,_ZN7fishnet5graph6__impl8BaseEdgeImLb1ESt4hashImESt8equal_toImEEC2EOmS8_
FNDA:10,_ZNK7fishnet5graph6__impl8BaseEdgeI10DataIDNodeINSt7__cxx1112basic_stringIcSt11char_traitsIcESaIcEEEELb0ESt4hashISA_ESt8equal_toISA_EE7getFromEv
FNDA:5,_ZNK7fishnet5graph6__impl8BaseEdgeI10DataIDNodeINSt7__cxx1112basic_stringIcSt11char_traitsIcESaIcEEEELb1ESt4hashISA_ESt8equal_toISA_EE7getFromEv
FNDA:83,_ZNK7fishnet5graph6__impl8BaseEdgeI6IDNodeLb0ESt4hashIS3_ESt8equal_toIS3_EE7getFromEv
FNDA:52,_ZNK7fishnet5graph6__impl8BaseEdgeI6IDNodeLb1ESt4hashIS3_ESt8equal_toIS3_EE7getFromEv
FNDA:1,_ZNK7fishnet5graph6__impl8BaseEdgeI6XYNodeLb0E15XYNodeOnlyXHash16XYNodeOnlyXEqualE7getFromEv
FNDA:29336,_ZNK7fishnet5graph6__impl8BaseEdgeI6XYNodeLb0ESt4hashIS3_ESt8equal_toIS3_EE7getFromEv
FNDA:3,_ZNK7fishnet5graph6__impl8BaseEdgeI6XYNodeLb1ESt4hashIS3_ESt8equal_toIS3_EE7getFromEv
FNDA:3,_ZNK7fishnet5graph6__impl8BaseEdgeImLb1ESt4hashImESt8equal_toImEE7getFromEv
FNDA:9,_ZNK7fishnet5graph6__impl8BaseEdgeI10DataIDNodeINSt7__cxx1112basic_stringIcSt11char_traitsIcESaIcEEEELb0ESt4hashISA_ESt8equal_toISA_EE5getToEv
FNDA:5,_ZNK7fishnet5graph6__impl8BaseEdgeI10DataIDNodeINSt7__cxx1112basic_stringIcSt11char_traitsIcESaIcEEEELb1ESt4hashISA_ESt8equal_toISA_EE5getToEv
FNDA:73,_ZNK7fishnet5graph6__impl8BaseEdgeI6IDNodeLb0ESt4hashIS3_ESt8equal_toIS3_EE5getToEv
FNDA:36,_ZNK7fishnet5graph6__impl8BaseEdgeI6IDNodeLb1ESt4hashIS3_ESt8equal_toIS3_EE5getToEv
FNDA:1,_ZNK7fishnet5graph6__impl8BaseEdgeI6XYNodeLb0E15XYNodeOnlyXHash16XYNodeOnlyXEqualE5getToEv
FNDA:26268,_ZNK7fishnet5graph6__impl8BaseEdgeI6XYNodeLb0ESt4hashIS3_ESt8equal_toIS3_EE5getToEv
FNDA:1,_ZNK7fishnet5graph6__impl8BaseEdgeI6XYNodeLb1ESt4hashIS3_ESt8equal_toIS3_EE5getToEv
FNDA:3,_ZNK7fishnet5graph6__impl8BaseEdgeImLb1ESt4hashImESt8equal_toImEE5getToEv
FNDA:5,_ZNK7fishnet5graph6__impl8BaseEdgeI10DataIDNodeINSt7__cxx1112basic_stringIcSt11char_traitsIcESaIcEEEELb0ESt4hashISA_ESt8equal_toISA_EEeqERKSF_
FNDA:53,_ZNK7fishnet5graph6__impl8BaseEdgeI6IDNodeLb0ESt4hashIS3_ESt8equal_toIS3_EEeqERKS8_
FNDA:1,_ZNK7fishnet5graph6__impl8BaseEdgeI6XYNodeLb0E15XYNodeOnlyXHash16XYNodeOnlyXEqualEeqERKS6_
FNDA:9784,_ZNK7fishnet5graph6__impl8BaseEdgeI6XYNodeLb0ESt4hashIS3_ESt8equal_toIS3_EEeqERKS8_
FNDA:5,_ZNK7fishnet5graph6__impl8BaseEdgeI10DataIDNodeINSt7__cxx1112basic_stringIcSt11char_traitsIcESaIcEEEELb1ESt4hashISA_ESt8equal_toISA_EEeqERKSF_
FNDA:47,_ZNK7fishnet5graph6__impl8BaseEdgeI6IDNodeLb1ESt4hashIS3_ESt8equal_toIS3_EEeqERKS8_
FNDA:3,_ZNK7fishnet5graph6__impl8BaseEdgeI6XYNodeLb1ESt4hashIS3_ESt8equal_toIS3_EEeqERKS8_
FNDA:0,_ZNK7fishnet5graph6__impl8BaseEdgeImLb1ESt4hashImESt8equal_toImEEeqERKS7_
FNDA:17,_ZNK7fishnet5graph6__impl8BaseEdgeI6IDNodeLb0ESt4hashIS3_ESt8equal_toIS3_EE4hashEv
FNDA:23,_ZNK7fishnet5graph6__impl8BaseEdgeI6IDNodeLb1ESt4hashIS3_ESt8equal_toIS3_EE4hashEv
FNDA:2,_ZNK7fishnet5graph6__impl8BaseEdgeI6XYNodeLb0E15XYNodeOnlyXHash16XYNodeOnlyXEqualE4hashEv
FNDA:25358,_ZNK7fishnet5graph6__impl8BaseEdgeI6XYNodeLb0ESt4hashIS3_ESt8equal_toIS3_EE4hashEv
FNDA:4,_ZNK7fishnet5graph6__impl8BaseEdgeI6XYNodeLb1ESt4hashIS3_ESt8equal_toIS3_EE4hashEv
FNDA:26,_ZNK7fishnet5graph6__impl8BaseEdgeImLb1ESt4hashImESt8equal_toImEE4hashEv
FNF:56
FNH:55
DA:67,2
DA:68,2
DA:71,17730
DA:73,15
DA:75,29493
DA:76,29493
DA:79,26396
DA:80,26396
DA:83,9843
DA:85,21345
DA:86,21345
DA:91,55
DA:93,55
DA:98,25430
DA:100,53
DA:101,53
DA:102,53
DA:103,53
DA:105,25377
DA:125,1194
DA:127,2490
DA:128,2490
DA:129,2490
DA:135,2488
DA:141,1259
DA:142,1259
DA:145,7773
DA:146,7773
DA:149,909
DA:150,909
DA:153,4769
DA:154,4769
DA:175,25420
DA:176,25420
LF:34
LH:34
end_of_record
TN:
SF:/home/lolo/Documents/fishnet/lib/graph/model/include/fishnet/GraphDecorator.hpp
FN:104,106,_ZNK7fishnet5graph14GraphDecoratorINS0_20DirectedAcyclicGraphINS0_6__impl11SimpleGraphINS3_8BaseEdgeImLb1ESt4hashImESt8equal_toImEEENS0_12AdjacencyMapImS7_S9_St6vectorImSaImEEEEEEEESG_SA_E8getNodesEv
FN:104,106,_ZNK7fishnet5graph14GraphDecoratorINS0_6__impl22WeightedGraphDecoratorINS2_11SimpleGraphINS2_8BaseEdgeI6XYNodeLb0ESt4hashIS6_ESt8equal_toIS6_EEENS0_12AdjacencyMapIS6_S8_SA_St6vectorIS6_SaIS6_EEEEEEd16DistanceFunctionEESH_NS2_21WeightedEdgeDecoratorISB_dSI_EEE8getNodesEv
FN:108,110,_ZNK7fishnet5graph14GraphDecoratorINS0_20DirectedAcyclicGraphINS0_6__impl11SimpleGraphINS3_8BaseEdgeImLb1ESt4hashImESt8equal_toImEEENS0_12AdjacencyMapImS7_S9_St6vectorImSaImEEEEEEEESG_SA_E8getEdgesEv
FN:112,114,_ZNK7fishnet5graph14GraphDecoratorINS0_6__impl22WeightedGraphDecoratorINS2_11SimpleGraphINS2_8BaseEdgeI6XYNodeLb0ESt4hashIS6_ESt8equal_toIS6_EEENS0_12AdjacencyMapIS6_S8_SA_St6vectorIS6_SaIS6_EEEEEEd16DistanceFunctionEESH_NS2_21WeightedEdgeDecoratorISB_dSI_EEE13getNeighboursERKS6_
FN:116,118,_ZNK7fishnet5graph14GraphDecoratorINS0_6__impl22WeightedGraphDecoratorINS2_11SimpleGraphINS2_8BaseEdgeI6XYNodeLb0ESt4hashIS6_ESt8equal_toIS6_EEENS0_12AdjacencyMapIS6_S8_SA_St6vectorIS6_SaIS6_EEEEEEd16DistanceFunctionEESH_NS2_21WeightedEdgeDecoratorISB_dSI_EEE16getReachableFromERKS6_
FN:132,134,_ZN7fishnet5graph14GraphDecoratorINS0_6__impl22WeightedGraphDecoratorINS2_11SimpleGraphINS2_8BaseEdgeI6XYNodeLb0ESt4hashIS6_ESt8equal_toIS6_EEENS0_12AdjacencyMapIS6_S8_SA_St6vectorIS6_SaIS6_EEEEEEd16DistanceFunctionEESH_NS2_21WeightedEdgeDecoratorISB_dSI_EEE5clearEv
FN:136,136,_ZN7fishnet5graph14GraphDecoratorINS0_20DirectedAcyclicGraphINS0_6__impl11SimpleGraphINS3_8BaseEdgeI3JobLb1EN12JobAdjacency4HashESt8equal_toIS6_EEES7_EEEESC_SB_ED0Ev
FN:136,136,_ZN7fishnet5graph14GraphDecoratorINS0_20DirectedAcyclicGraphINS0_6__impl11SimpleGraphINS3_8BaseEdgeI3JobLb1EN12JobAdjacency4HashESt8equal_toIS6_EEES7_EEEESC_SB_ED2Ev
FN:136,136,_ZN7fishnet5graph14GraphDecoratorINS0_20DirectedAcyclicGraphINS0_6__impl11SimpleGraphINS3_8BaseEdgeImLb1ESt4hashImESt8equal_toImEEENS0_12AdjacencyMapImS7_S9_St6vectorImSaImEEEEEEEESG_SA_ED0Ev
FN:136,136,_ZN7fishnet5graph14GraphDecoratorINS0_20DirectedAcyclicGraphINS0_6__impl11SimpleGraphINS3_8BaseEdgeImLb1ESt4hashImESt8equal_toImEEENS0_12AdjacencyMapImS7_S9_St6vectorImSaImEEEEEEEESG_SA_ED2Ev
FN:136,136,_ZN7fishnet5graph14GraphDecoratorINS0_6__impl22WeightedGraphDecoratorINS2_11SimpleGraphINS2_8BaseEdgeI6XYNodeLb0ESt4hashIS6_ESt8equal_toIS6_EEENS0_12AdjacencyMapIS6_S8_SA_St6vectorIS6_SaIS6_EEEEEEd16DistanceFunctionEESH_NS2_21WeightedEdgeDecoratorISB_dSI_EEED0Ev
FN:136,136,_ZN7fishnet5graph14GraphDecoratorINS0_6__impl22WeightedGraphDecoratorINS2_11SimpleGraphINS2_8BaseEdgeI6XYNodeLb0ESt4hashIS6_ESt8equal_toIS6_EEENS0_12AdjacencyMapIS6_S8_SA_St6vectorIS6_SaIS6_EEEEEEd16DistanceFunctionEESH_NS2_21WeightedEdgeDecoratorISB_dSI_EEED2Ev
FN:20,20,_ZN7fishnet5graph14GraphDecoratorINS0_20DirectedAcyclicGraphINS0_6__impl11SimpleGraphINS3_8BaseEdgeImLb1ESt4hashImESt8equal_toImEEENS0_12AdjacencyMapImS7_S9_St6vectorImSaImEEEEEEEESG_SA_EC2Ev
FN:20,20,_ZN7fishnet5graph14GraphDecoratorINS0_6__impl22WeightedGraphDecoratorINS2_11SimpleGraphINS2_8BaseEdgeI6XYNodeLb0ESt4hashIS6_ESt8equal_toIS6_EEENS0_12AdjacencyMapIS6_S8_SA_St6vectorIS6_SaIS6_EEEEEEd16DistanceFunctionEESH_NS2_21WeightedEdgeDecoratorISB_dSI_EEEC2Ev
FN:21,21,_ZN7fishnet5graph14GraphDecoratorINS0_20DirectedAcyclicGraphINS0_6__impl11SimpleGraphINS3_8BaseEdgeI3JobLb1EN12JobAdjacency4HashESt8equal_toIS6_EEES7_EEEESC_SB_EC2EOSC_
FN:21,21,_ZN7fishnet5graph14GraphDecoratorINS0_20DirectedAcyclicGraphINS0_6__impl11SimpleGraphINS3_8BaseEdgeImLb1ESt4hashImESt8equal_toImEEENS0_12AdjacencyMapImS7_S9_St6vectorImSaImEEEEEEEESG_SA_EC2EOSG_
FN:23,23,_ZN7fishnet5graph14GraphDecoratorINS0_6__impl22WeightedGraphDecoratorINS2_11SimpleGraphINS2_8BaseEdgeI6XYNodeLb0ESt4hashIS6_ESt8equal_toIS6_EEENS0_12AdjacencyMapIS6_S8_SA_St6vectorIS6_SaIS6_EEEEEEd16DistanceFunctionEESH_NS2_21WeightedEdgeDecoratorISB_dSI_EEEC2ISF_EERT_
FN:30,32,_ZN7fishnet5graph14GraphDecoratorINS0_6__impl22WeightedGraphDecoratorINS2_11SimpleGraphINS2_8BaseEdgeI6XYNodeLb0ESt4hashIS6_ESt8equal_toIS6_EEENS0_12AdjacencyMapIS6_S8_SA_St6vectorIS6_SaIS6_EEEEEEd16DistanceFunctionEESH_NS2_21WeightedEdgeDecoratorISB_dSI_EEE7addNodeERS6_
FN:34,36,_ZN7fishnet5graph14GraphDecoratorINS0_20DirectedAcyclicGraphINS0_6__impl11SimpleGraphINS3_8BaseEdgeImLb1ESt4hashImESt8equal_toImEEENS0_12AdjacencyMapImS7_S9_St6vectorImSaImEEEEEEEESG_SA_E7addNodeEOm
FN:34,36,_ZN7fishnet5graph14GraphDecoratorINS0_6__impl22WeightedGraphDecoratorINS2_11SimpleGraphINS2_8BaseEdgeI6XYNodeLb0ESt4hashIS6_ESt8equal_toIS6_EEENS0_12AdjacencyMapIS6_S8_SA_St6vectorIS6_SaIS6_EEEEEEd16DistanceFunctionEESH_NS2_21WeightedEdgeDecoratorISB_dSI_EEE7addNodeEOS6_
FN:39,41,_ZN7fishnet5graph14GraphDecoratorINS0_6__impl22WeightedGraphDecoratorINS2_11SimpleGraphINS2_8BaseEdgeI6XYNodeLb0ESt4hashIS6_ESt8equal_toIS6_EEENS0_12AdjacencyMapIS6_S8_SA_St6vectorIS6_SaIS6_EEEEEEd16DistanceFunctionEESH_NS2_21WeightedEdgeDecoratorISB_dSI_EEE7addNodeIJS6_EEEbRKS6_DpT_
FN:39,41,_ZN7fishnet5graph14GraphDecoratorINS0_6__impl22WeightedGraphDecoratorINS2_11SimpleGraphINS2_8BaseEdgeI6XYNodeLb0ESt4hashIS6_ESt8equal_toIS6_EEENS0_12AdjacencyMapIS6_S8_SA_St6vectorIS6_SaIS6_EEEEEEd16DistanceFunctionEESH_NS2_21WeightedEdgeDecoratorISB_dSI_EEE7addNodeIJS6_S6_S6_EEEbRKS6_DpT_
FN:48,50,_ZN7fishnet5graph14GraphDecoratorINS0_6__impl22WeightedGraphDecoratorINS2_11SimpleGraphINS2_8BaseEdgeI6XYNodeLb0ESt4hashIS6_ESt8equal_toIS6_EEENS0_12AdjacencyMapIS6_S8_SA_St6vectorIS6_SaIS6_EEEEEEd16DistanceFunctionEESH_NS2_21WeightedEdgeDecoratorISB_dSI_EEE8addNodesISF_EEbRT_
FN:52,54,_ZN7fishnet5graph14GraphDecoratorINS0_6__impl22WeightedGraphDecoratorINS2_11SimpleGraphINS2_8BaseEdgeI6XYNodeLb0ESt4hashIS6_ESt8equal_toIS6_EEENS0_12AdjacencyMapIS6_S8_SA_St6vectorIS6_SaIS6_EEEEEEd16DistanceFunctionEESH_NS2_21WeightedEdgeDecoratorISB_dSI_EEE8addNodesINSt6ranges13elements_viewINSO_8ref_viewISt13unordered_mapIiS6_S7_IiES9_IiESaISt4pairIKiS6_EEEEELm1EEEEEbOT_
FN:52,54,_ZN7fishnet5graph14GraphDecoratorINS0_6__impl22WeightedGraphDecoratorINS2_11SimpleGraphINS2_8BaseEdgeI6XYNodeLb0ESt4hashIS6_ESt8equal_toIS6_EEENS0_12AdjacencyMapIS6_S8_SA_St6vectorIS6_SaIS6_EEEEEEd16DistanceFunctionEESH_NS2_21WeightedEdgeDecoratorISB_dSI_EEE8addNodesISF_EEbOT_
FN:56,58,_ZNK7fishnet5graph14GraphDecoratorINS0_20DirectedAcyclicGraphINS0_6__impl11SimpleGraphINS3_8BaseEdgeImLb1ESt4hashImESt8equal_toImEEENS0_12AdjacencyMapImS7_S9_St6vectorImSaImEEEEEEEESG_SA_E12containsNodeERKm
FN:56,58,_ZNK7fishnet5graph14GraphDecoratorINS0_6__impl22WeightedGraphDecoratorINS2_11SimpleGraphINS2_8BaseEdgeI6XYNodeLb0ESt4hashIS6_ESt8equal_toIS6_EEENS0_12AdjacencyMapIS6_S8_SA_St6vectorIS6_SaIS6_EEEEEEd16DistanceFunctionEESH_NS2_21WeightedEdgeDecoratorISB_dSI_EEE12containsNodeERKS6_
FN:60,62,_ZN7fishnet5graph14GraphDecoratorINS0_6__impl22WeightedGraphDecoratorINS2_11SimpleGraphINS2_8BaseEdgeI6XYNodeLb0ESt4hashIS6_ESt8equal_toIS6_EEENS0_12AdjacencyMapIS6_S8_SA_St6vectorIS6_SaIS6_EEEEEEd16DistanceFunctionEESH_NS2_21WeightedEdgeDecoratorISB_dSI_EEE10removeNodeERKS6_
FN:64,66,_ZN7fishnet5graph14GraphDecoratorINS0_6__impl22WeightedGraphDecoratorINS2_11SimpleGraphINS2_8BaseEdgeI6XYNodeLb0ESt4hashIS6_ESt8equal_toIS6_EEENS0_12AdjacencyMapIS6_S8_SA_St6vectorIS6_SaIS6_EEEEEEd16DistanceFunctionEESH_NS2_21WeightedEdgeDecoratorISB_dSI_EEE7addEdgeERKS6_SO_
FN:72,74,_ZN7fishnet5graph14GraphDecoratorINS0_6__impl22WeightedGraphDecoratorINS2_11SimpleGraphINS2_8BaseEdgeI6XYNodeLb0ESt4hashIS6_ESt8equal_toIS6_EEENS0_12AdjacencyMapIS6_S8_SA_St6vectorIS6_SaIS6_EEEEEEd16DistanceFunctionEESH_NS2_21WeightedEdgeDecoratorISB_dSI_EEE7addEdgeERKSL_
FN:84,86,_ZNK7fishnet5graph14GraphDecoratorINS0_20DirectedAcyclicGraphINS0_6__impl11SimpleGraphINS3_8BaseEdgeImLb1ESt4hashImESt8equal_toImEEENS0_12AdjacencyMapImS7_S9_St6vectorImSaImEEEEEEEESG_SA_E12containsEdgeERKmSK_
FN:84,86,_ZNK7fishnet5graph14GraphDecoratorINS0_6__impl22WeightedGraphDecoratorINS2_11SimpleGraphINS2_8BaseEdgeI6XYNodeLb0ESt4hashIS6_ESt8equal_toIS6_EEENS0_12AdjacencyMapIS6_S8_SA_St6vectorIS6_SaIS6_EEEEEEd16DistanceFunctionEESH_NS2_21WeightedEdgeDecoratorISB_dSI_EEE12containsEdgeERKS6_SO_
FN:88,90,_ZNK7fishnet5graph14GraphDecoratorINS0_6__impl22WeightedGraphDecoratorINS2_11SimpleGraphINS2_8BaseEdgeI6XYNodeLb0ESt4hashIS6_ESt8equal_toIS6_EEENS0_12AdjacencyMapIS6_S8_SA_St6vectorIS6_SaIS6_EEEEEEd16DistanceFunctionEESH_NS2_21WeightedEdgeDecoratorISB_dSI_EEE12containsEdgeERKSL_
FN:92,94,_ZN7fishnet5graph14GraphDecoratorINS0_6__impl22WeightedGraphDecoratorINS2_11SimpleGraphINS2_8BaseEdgeI6XYNodeLb0ESt4hashIS6_ESt8equal_toIS6_EEENS0_12AdjacencyMapIS6_S8_SA_St6vectorIS6_SaIS6_EEEEEEd16DistanceFunctionEESH_NS2_21WeightedEdgeDecoratorISB_dSI_EEE10removeEdgeERKS6_SO_
FN:96,98,_ZN7fishnet5graph14GraphDecoratorINS0_6__impl22WeightedGraphDecoratorINS2_11SimpleGraphINS2_8BaseEdgeI6XYNodeLb0ESt4hashIS6_ESt8equal_toIS6_EEENS0_12AdjacencyMapIS6_S8_SA_St6vectorIS6_SaIS6_EEEEEEd16DistanceFunctionEESH_NS2_21WeightedEdgeDecoratorISB_dSI_EEE10removeEdgeERKSL_
FNDA:2,_ZNK7fishnet5graph14GraphDecoratorINS0_20DirectedAcyclicGraphINS0_6__impl11SimpleGraphINS3_8BaseEdgeImLb1ESt4hashImESt8equal_toImEEENS0_12AdjacencyMapImS7_S9_St6vectorImSaImEEEEEEEESG_SA_E8getNodesEv
FNDA:20,_ZNK7fishnet5graph14GraphDecoratorINS0_6__impl22WeightedGraphDecoratorINS2_11SimpleGraphINS2_8BaseEdgeI6XYNodeLb0ESt4hashIS6_ESt8equal_toIS6_EEENS0_12AdjacencyMapIS6_S8_SA_St6vectorIS6_SaIS6_EEEEEEd16DistanceFunctionEESH_NS2_21WeightedEdgeDecoratorISB_dSI_EEE8getNodesEv
FNDA:4,_ZNK7fishnet5graph14GraphDecoratorINS0_20DirectedAcyclicGraphINS0_6__impl11SimpleGraphINS3_8BaseEdgeImLb1ESt4hashImESt8equal_toImEEENS0_12AdjacencyMapImS7_S9_St6vectorImSaImEEEEEEEESG_SA_E8getEdgesEv
FNDA:107,_ZNK7fishnet5graph14GraphDecoratorINS0_6__impl22WeightedGraphDecoratorINS2_11SimpleGraphINS2_8BaseEdgeI6XYNodeLb0ESt4hashIS6_ESt8equal_toIS6_EEENS0_12AdjacencyMapIS6_S8_SA_St6vectorIS6_SaIS6_EEEEEEd16DistanceFunctionEESH_NS2_21WeightedEdgeDecoratorISB_dSI_EEE13getNeighboursERKS6_
FNDA:5,_ZNK7fishnet5graph14GraphDecoratorINS0_6__impl22WeightedGraphDecoratorINS2_11SimpleGraphINS2_8BaseEdgeI6XYNodeLb0ESt4hashIS6_ESt8equal_toIS6_EEENS0_12AdjacencyMapIS6_S8_SA_St6vectorIS6_SaIS6_EEEEEEd16DistanceFunctionEESH_NS2_21WeightedEdgeDecoratorISB_dSI_EEE16getReachableFromERKS6_
FNDA:2,_ZN7fishnet5graph14GraphDecoratorINS0_6__impl22WeightedGraphDecoratorINS2_11SimpleGraphINS2_8BaseEdgeI6XYNodeLb0ESt4hashIS6_ESt8equal_toIS6_EEENS0_12AdjacencyMapIS6_S8_SA_St6vectorIS6_SaIS6_EEEEEEd16DistanceFunctionEESH_NS2_21WeightedEdgeDecoratorISB_dSI_EEE5clearEv
FNDA:0,_ZN7fishnet5graph14GraphDecoratorINS0_20DirectedAcyclicGraphINS0_6__impl11SimpleGraphINS3_8BaseEdgeI3JobLb1EN12JobAdjacency4HashESt8equal_toIS6_EEES7_EEEESC_SB_ED0Ev
FNDA:1,_ZN7fishnet5graph14GraphDecoratorINS0_20DirectedAcyclicGraphINS0_6__impl11SimpleGraphINS3_8BaseEdgeI3JobLb1EN12JobAdjacency4HashESt8equal_toIS6_EEES7_EEEESC_SB_ED2Ev
FNDA:0,_ZN7fishnet5graph14GraphDecoratorINS0_20DirectedAcyclicGraphINS0_6__impl11SimpleGraphINS3_8BaseEdgeImLb1ESt4hashImESt8equal_toImEEENS0_12AdjacencyMapImS7_S9_St6vectorImSaImEEEEEEEESG_SA_ED0Ev
FNDA:29,_ZN7fishnet5graph14GraphDecoratorINS0_20DirectedAcyclicGraphINS0_6__impl11SimpleGraphINS3_8BaseEdgeImLb1ESt4hashImESt8equal_toImEEENS0_12AdjacencyMapImS7_S9_St6vectorImSaImEEEEEEEESG_SA_ED2Ev
FNDA:0,_ZN7fishnet5graph14GraphDecoratorINS0_6__impl22WeightedGraphDecoratorINS2_11SimpleGraphINS2_8BaseEdgeI6XYNodeLb0ESt4hashIS6_ESt8equal_toIS6_EEENS0_12AdjacencyMapIS6_S8_SA_St6vectorIS6_SaIS6_EEEEEEd16DistanceFunctionEESH_NS2_21WeightedEdgeDecoratorISB_dSI_EEED0Ev
FNDA:77,_ZN7fishnet5graph14GraphDecoratorINS0_6__impl22WeightedGraphDecoratorINS2_11SimpleGraphINS2_8BaseEdgeI6XYNodeLb0ESt4hashIS6_ESt8equal_toIS6_EEENS0_12AdjacencyMapIS6_S8_SA_St6vectorIS6_SaIS6_EEEEEEd16DistanceFunctionEESH_NS2_21WeightedEdgeDecoratorISB_dSI_EEED2Ev
FNDA:14,_ZN7fishnet5graph14GraphDecoratorINS0_20DirectedAcyclicGraphINS0_6__impl11SimpleGraphINS3_8BaseEdgeImLb1ESt4hashImESt8equal_toImEEENS0_12AdjacencyMapImS7_S9_St6vectorImSaImEEEEEEEESG_SA_EC2Ev
FNDA:76,_ZN7fishnet5graph14GraphDecoratorINS0_6__impl22WeightedGraphDecoratorINS2_11SimpleGraphINS2_8BaseEdgeI6XYNodeLb0ESt4hashIS6_ESt8equal_toIS6_EEENS0_12AdjacencyMapIS6_S8_SA_St6vectorIS6_SaIS6_EEEEEEd16DistanceFunctionEESH_NS2_21WeightedEdgeDecoratorISB_dSI_EEEC2Ev
FNDA:1,_ZN7fishnet5graph14GraphDecoratorINS0_20DirectedAcyclicGraphINS0_6__impl11SimpleGraphINS3_8BaseEdgeI3JobLb1EN12JobAdjacency4HashESt8equal_toIS6_EEES7_EEEESC_SB_EC2EOSC_
FNDA:15,_ZN7fishnet5graph14GraphDecoratorINS0_20DirectedAcyclicGraphINS0_6__impl11SimpleGraphINS3_8BaseEdgeImLb1ESt4hashImESt8equal_toImEEENS0_12AdjacencyMapImS7_S9_St6vectorImSaImEEEEEEEESG_SA_EC2EOSG_
FNDA:1,_ZN7fishnet5graph14GraphDecoratorINS0_6__impl22WeightedGraphDecoratorINS2_11SimpleGraphINS2_8BaseEdgeI6XYNodeLb0ESt4hashIS6_ESt8equal_toIS6_EEENS0_12AdjacencyMapIS6_S8_SA_St6vectorIS6_SaIS6_EEEEEEd16DistanceFunctionEESH_NS2_21WeightedEdgeDecoratorISB_dSI_EEEC2ISF_EERT_
FNDA:2,_ZN7fishnet5graph14GraphDecoratorINS0_6__impl22WeightedGraphDecoratorINS2_11SimpleGraphINS2_8BaseEdgeI6XYNodeLb0ESt4hashIS6_ESt8equal_toIS6_EEENS0_12AdjacencyMapIS6_S8_SA_St6vectorIS6_SaIS6_EEEEEEd16DistanceFunctionEESH_NS2_21WeightedEdgeDecoratorISB_dSI_EEE7addNodeERS6_
FNDA:11,_ZN7fishnet5graph14GraphDecoratorINS0_20DirectedAcyclicGraphINS0_6__impl11SimpleGraphINS3_8BaseEdgeImLb1ESt4hashImESt8equal_toImEEENS0_12AdjacencyMapImS7_S9_St6vectorImSaImEEEEEEEESG_SA_E7addNodeEOm
FNDA:1,_ZN7fishnet5graph14GraphDecoratorINS0_6__impl22WeightedGraphDecoratorINS2_11SimpleGraphINS2_8BaseEdgeI6XYNodeLb0ESt4hashIS6_ESt8equal_toIS6_EEENS0_12AdjacencyMapIS6_S8_SA_St6vectorIS6_SaIS6_EEEEEEd16DistanceFunctionEESH_NS2_21WeightedEdgeDecoratorISB_dSI_EEE7addNodeEOS6_
FNDA:1,_ZN7fishnet5graph14GraphDecoratorINS0_6__impl22WeightedGraphDecoratorINS2_11SimpleGraphINS2_8BaseEdgeI6XYNodeLb0ESt4hashIS6_ESt8equal_toIS6_EEENS0_12AdjacencyMapIS6_S8_SA_St6vectorIS6_SaIS6_EEEEEEd16DistanceFunctionEESH_NS2_21WeightedEdgeDecoratorISB_dSI_EEE7addNodeIJS6_EEEbRKS6_DpT_
FNDA:18,_ZN7fishnet5graph14GraphDecoratorINS0_6__impl22WeightedGraphDecoratorINS2_11SimpleGraphINS2_8BaseEdgeI6XYNodeLb0ESt4hashIS6_ESt8equal_toIS6_EEENS0_12AdjacencyMapIS6_S8_SA_St6vectorIS6_SaIS6_EEEEEEd16DistanceFunctionEESH_NS2_21WeightedEdgeDecoratorISB_dSI_EEE7addNodeIJS6_S6_S6_EEEbRKS6_DpT_
FNDA:3,_ZN7fishnet5graph14GraphDecoratorINS0_6__impl22WeightedGraphDecoratorINS2_11SimpleGraphINS2_8BaseEdgeI6XYNodeLb0ESt4hashIS6_ESt8equal_toIS6_EEENS0_12AdjacencyMapIS6_S8_SA_St6vectorIS6_SaIS6_EEEEEEd16DistanceFunctionEESH_NS2_21WeightedEdgeDecoratorISB_dSI_EEE8addNodesISF_EEbRT_
FNDA:1,_ZN7fishnet5graph14GraphDecoratorINS0_6__impl22WeightedGraphDecoratorINS2_11SimpleGraphINS2_8BaseEdgeI6XYNodeLb0ESt4hashIS6_ESt8equal_toIS6_EEENS0_12AdjacencyMapIS6_S8_SA_St6vectorIS6_SaIS6_EEEEEEd16DistanceFunctionEESH_NS2_21WeightedEdgeDecoratorISB_dSI_EEE8addNodesINSt6ranges13elements_viewINSO_8ref_viewISt13unordered_mapIiS6_S7_IiES9_IiESaISt4pairIKiS6_EEEEELm1EEEEEbOT_
FNDA:1,_ZN7fishnet5graph14GraphDecoratorINS0_6__impl22WeightedGraphDecoratorINS2_11SimpleGraphINS2_8BaseEdgeI6XYNodeLb0ESt4hashIS6_ESt8equal_toIS6_EEENS0_12AdjacencyMapIS6_S8_SA_St6vectorIS6_SaIS6_EEEEEEd16DistanceFunctionEESH_NS2_21WeightedEdgeDecoratorISB_dSI_EEE8addNodesISF_EEbOT_
FNDA:1,_ZNK7fishnet5graph14GraphDecoratorINS0_20DirectedAcyclicGraphINS0_6__impl11SimpleGraphINS3_8BaseEdgeImLb1ESt4hashImESt8equal_toImEEENS0_12AdjacencyMapImS7_S9_St6vectorImSaImEEEEEEEESG_SA_E12containsNodeERKm
FNDA:15,_ZNK7fishnet5graph14GraphDecoratorINS0_6__impl22WeightedGraphDecoratorINS2_11SimpleGraphINS2_8BaseEdgeI6XYNodeLb0ESt4hashIS6_ESt8equal_toIS6_EEENS0_12AdjacencyMapIS6_S8_SA_St6vectorIS6_SaIS6_EEEEEEd16DistanceFunctionEESH_NS2_21WeightedEdgeDecoratorISB_dSI_EEE12containsNodeERKS6_
FNDA:3,_ZN7fishnet5graph14GraphDecoratorINS0_6__impl22WeightedGraphDecoratorINS2_11SimpleGraphINS2_8BaseEdgeI6XYNodeLb0ESt4hashIS6_ESt8equal_toIS6_EEENS0_12AdjacencyMapIS6_S8_SA_St6vectorIS6_SaIS6_EEEEEEd16DistanceFunctionEESH_NS2_21WeightedEdgeDecoratorISB_dSI_EEE10removeNodeERKS6_
FNDA:2507,_ZN7fishnet5graph14GraphDecoratorINS0_6__impl22WeightedGraphDecoratorINS2_11SimpleGraphINS2_8BaseEdgeI6XYNodeLb0ESt4hashIS6_ESt8equal_toIS6_EEENS0_12AdjacencyMapIS6_S8_SA_St6vectorIS6_SaIS6_EEEEEEd16DistanceFunctionEESH_NS2_21WeightedEdgeDecoratorISB_dSI_EEE7addEdgeERKS6_SO_
FNDA:1,_ZN7fishnet5graph14GraphDecoratorINS0_6__impl22WeightedGraphDecoratorINS2_11SimpleGraphINS2_8BaseEdgeI6XYNodeLb0ESt4hashIS6_ESt8equal_toIS6_EEENS0_12AdjacencyMapIS6_S8_SA_St6vectorIS6_SaIS6_EEEEEEd16DistanceFunctionEESH_NS2_21WeightedEdgeDecoratorISB_dSI_EEE7addEdgeERKSL_
FNDA:1,_ZNK7fishnet5graph14GraphDecoratorINS0_20DirectedAcyclicGraphINS0_6__impl11SimpleGraphINS3_8BaseEdgeImLb1ESt4hashImESt8equal_toImEEENS0_12AdjacencyMapImS7_S9_St6vectorImSaImEEEEEEEESG_SA_E12containsEdgeERKmSK_
FNDA:9,_ZNK7fishnet5graph14GraphDecoratorINS0_6__impl22WeightedGraphDecoratorINS2_11SimpleGraphINS2_8BaseEdgeI6XYNodeLb0ESt4hashIS6_ESt8equal_toIS6_EEENS0_12AdjacencyMapIS6_S8_SA_St6vectorIS6_SaIS6_EEEEEEd16DistanceFunctionEESH_NS2_21WeightedEdgeDecoratorISB_dSI_EEE12containsEdgeERKS6_SO_
FNDA:5,_ZNK7fishnet5graph14GraphDecoratorINS0_6__impl22WeightedGraphDecoratorINS2_11SimpleGraphINS2_8BaseEdgeI6XYNodeLb0ESt4hashIS6_ESt8equal_toIS6_EEENS0_12AdjacencyMapIS6_S8_SA_St6vectorIS6_SaIS6_EEEEEEd16DistanceFunctionEESH_NS2_21WeightedEdgeDecoratorISB_dSI_EEE12containsEdgeERKSL_
FNDA:1,_ZN7fishnet5graph14GraphDecoratorINS0_6__impl22WeightedGraphDecoratorINS2_11SimpleGraphINS2_8BaseEdgeI6XYNodeLb0ESt4hashIS6_ESt8equal_toIS6_EEENS0_12AdjacencyMapIS6_S8_SA_St6vectorIS6_SaIS6_EEEEEEd16DistanceFunctionEESH_NS2_21WeightedEdgeDecoratorISB_dSI_EEE10removeEdgeERKS6_SO_
FNDA:1,_ZN7fishnet5graph14GraphDecoratorINS0_6__impl22WeightedGraphDecoratorINS2_11SimpleGraphINS2_8BaseEdgeI6XYNodeLb0ESt4hashIS6_ESt8equal_toIS6_EEENS0_12AdjacencyMapIS6_S8_SA_St6vectorIS6_SaIS6_EEEEEEd16DistanceFunctionEESH_NS2_21WeightedEdgeDecoratorISB_dSI_EEE10removeEdgeERKSL_
FNF:35
FNH:32
DA:20,90
DA:21,16
DA:23,1
DA:30,2
DA:31,2
DA:34,12
DA:35,12
DA:39,19
DA:40,19
DA:48,3
DA:49,3
DA:52,2
DA:53,2
DA:56,16
DA:57,16
DA:60,3
DA:61,3
DA:62,3
DA:64,2507
DA:65,2507
DA:72,1
DA:73,1
DA:84,10
DA:85,10
DA:88,5
DA:89,5
DA:92,1
DA:93,1
DA:94,1
DA:96,1
DA:97,1
DA:98,1
DA:104,22
DA:105,22
DA:108,4
DA:109,4
DA:112,107
DA:113,107
DA:116,5
DA:117,5
DA:132,2
DA:133,2
DA:134,2
DA:136,107
LF:44
LH:44
end_of_record
TN:
SF:/home/lolo/Documents/fishnet/lib/io/gdal/include/fishnet/GDALInitializer.hpp
FN:15,21,_ZN7fishnet15GDALInitializer4initEv
FNDA:77,_ZN7fishnet15GDALInitializer4initEv
FNF:1
FNH:1
DA:15,77
DA:16,77
DA:17,58
DA:18,19
DA:19,19
LF:5
LH:5
end_of_record
TN:
SF:/home/lolo/Documents/fishnet/lib/io/gdal/include/fishnet/GeometryTypeWKBAdapter.hpp
FN:12,22,_ZN7fishnet22GeometryTypeWKBAdapter5toWKBENS_8geometry12GeometryTypeE
FNDA:4557,_ZN7fishnet22GeometryTypeWKBAdapter5toWKBENS_8geometry12GeometryTypeE
FNF:1
FNH:1
DA:12,4557
DA:13,4557
DA:15,0
DA:16,4557
DA:17,0
DA:18,0
DA:19,0
DA:20,0
LF:8
LH:3
end_of_record
TN:
SF:/home/lolo/Documents/fishnet/lib/io/gdal/include/fishnet/OGRFieldAdapter.hpp
FN:15,23,_ZN7fishnet15OGRFieldAdapter13fromTypeIndexERKSt10type_index
FN:26,38,_ZN7fishnet15OGRFieldAdapter13setFieldValueINSt7__cxx1112basic_stringIcSt11char_traitsIcESaIcEEEEEvP10OGRFeatureRKS7_RKT_
FN:26,38,_ZN7fishnet15OGRFieldAdapter13setFieldValueIPKcEEvP10OGRFeatureRKNSt7__cxx1112basic_stringIcSt11char_traitsIcESaIcEEERKT_
FN:26,38,_ZN7fishnet15OGRFieldAdapter13setFieldValueIdEEvP10OGRFeatureRKNSt7__cxx1112basic_stringIcSt11char_traitsIcESaIcEEERKT_
FN:26,38,_ZN7fishnet15OGRFieldAdapter13setFieldValueIfEEvP10OGRFeatureRKNSt7__cxx1112basic_stringIcSt11char_traitsIcESaIcEEERKT_
FN:26,38,_ZN7fishnet15OGRFieldAdapter13setFieldValueIiEEvP10OGRFeatureRKNSt7__cxx1112basic_stringIcSt11char_traitsIcESaIcEEERKT_
FN:26,38,_ZN7fishnet15OGRFieldAdapter13setFieldValueIlEEvP10OGRFeatureRKNSt7__cxx1112basic_stringIcSt11char_traitsIcESaIcEEERKT_
FN:26,38,_ZN7fishnet15OGRFieldAdapter13setFieldValueImEEvP10OGRFeatureRKNSt7__cxx1112basic_stringIcSt11char_traitsIcESaIcEEERKT_
FN:26,38,_ZN7fishnet15OGRFieldAdapter13setFieldValueIxEEvP10OGRFeatureRKNSt7__cxx1112basic_stringIcSt11char_traitsIcESaIcEEERKT_
FNDA:4,_ZN7fishnet15OGRFieldAdapter13fromTypeIndexERKSt10type_index
FNDA:0,_ZN7fishnet15OGRFieldAdapter13setFieldValueINSt7__cxx1112basic_stringIcSt11char_traitsIcESaIcEEEEEvP10OGRFeatureRKS7_RKT_
FNDA:0,_ZN7fishnet15OGRFieldAdapter13setFieldValueIPKcEEvP10OGRFeatureRKNSt7__cxx1112basic_stringIcSt11char_traitsIcESaIcEEERKT_
FNDA:0,_ZN7fishnet15OGRFieldAdapter13setFieldValueIdEEvP10OGRFeatureRKNSt7__cxx1112basic_stringIcSt11char_traitsIcESaIcEEERKT_
FNDA:0,_ZN7fishnet15OGRFieldAdapter13setFieldValueIfEEvP10OGRFeatureRKNSt7__cxx1112basic_stringIcSt11char_traitsIcESaIcEEERKT_
FNDA:492,_ZN7fishnet15OGRFieldAdapter13setFieldValueIiEEvP10OGRFeatureRKNSt7__cxx1112basic_stringIcSt11char_traitsIcESaIcEEERKT_
FNDA:0,_ZN7fishnet15OGRFieldAdapter13setFieldValueIlEEvP10OGRFeatureRKNSt7__cxx1112basic_stringIcSt11char_traitsIcESaIcEEERKT_
FNDA:0,_ZN7fishnet15OGRFieldAdapter13setFieldValueImEEvP10OGRFeatureRKNSt7__cxx1112basic_stringIcSt11char_traitsIcESaIcEEERKT_
FNDA:0,_ZN7fishnet15OGRFieldAdapter13setFieldValueIxEEvP10OGRFeatureRKNSt7__cxx1112basic_stringIcSt11char_traitsIcESaIcEEERKT_
FNF:9
FNH:2
DA:15,4
DA:16,4
DA:17,0
DA:18,4
DA:19,4
DA:20,0
DA:21,0
DA:22,0
DA:26,492
DA:27,492
DA:29,492
DA:31,0
DA:33,0
DA:35,0
DA:37,0
DA:38,492
LF:16
LH:8
end_of_record
TN:
SF:/home/lolo/Documents/fishnet/lib/io/gdal/include/fishnet/OGRGeometryAdapter.hpp
FN:110,122,_ZN7fishnet18OGRGeometryAdapter7fromOGRILNS_8geometry12GeometryTypeE5EEEDaRK11OGRGeometry
FN:23,25,_ZN7fishnet18OGRGeometryAdapter7fromOGRERK8OGRPoint
FN:28,30,_ZN7fishnet18OGRGeometryAdapter5toOGRIdEESt10unique_ptrI8OGRPointSt14default_deleteIS3_EERKNS_8geometry5Vec2DIT_EE
FN:28,30,_ZN7fishnet18OGRGeometryAdapter5toOGRIiEESt10unique_ptrI8OGRPointSt14default_deleteIS3_EERKNS_8geometry5Vec2DIT_EE
FN:32,42,_ZN7fishnet18OGRGeometryAdapter7fromOGRERK13OGRLinearRing
FN:44,53,_ZN7fishnet18OGRGeometryAdapter5toOGRINS_8geometry4RingIdEEEESt10unique_ptrI13OGRLinearRingSt14default_deleteIS6_EERKT_
FN:44,53,_ZN7fishnet18OGRGeometryAdapter5toOGRINS_8geometry4RingIiEEEESt10unique_ptrI13OGRLinearRingSt14default_deleteIS6_EERKT_
FN:55,72,_ZN7fishnet18OGRGeometryAdapter7fromOGRERK10OGRPolygon
FN:74,81,_ZN7fishnet18OGRGeometryAdapter5toOGRINS_8geometry7PolygonIdEEEESt10unique_ptrI10OGRPolygonSt14default_deleteIS6_EERKT_
FNDA:4553,_ZN7fishnet18OGRGeometryAdapter7fromOGRILNS_8geometry12GeometryTypeE5EEEDaRK11OGRGeometry
FNDA:36457,_ZN7fishnet18OGRGeometryAdapter7fromOGRERK8OGRPoint
FNDA:3864,_ZN7fishnet18OGRGeometryAdapter5toOGRIdEESt10unique_ptrI8OGRPointSt14default_deleteIS3_EERKNS_8geometry5Vec2DIT_EE
FNDA:4,_ZN7fishnet18OGRGeometryAdapter5toOGRIiEESt10unique_ptrI8OGRPointSt14default_deleteIS3_EERKNS_8geometry5Vec2DIT_EE
FNDA:4776,_ZN7fishnet18OGRGeometryAdapter7fromOGRERK13OGRLinearRing
FNDA:516,_ZN7fishnet18OGRGeometryAdapter5toOGRINS_8geometry4RingIdEEEESt10unique_ptrI13OGRLinearRingSt14default_deleteIS6_EERKT_
FNDA:1,_ZN7fishnet18OGRGeometryAdapter5toOGRINS_8geometry4RingIiEEEESt10unique_ptrI13OGRLinearRingSt14default_deleteIS6_EERKT_
FNDA:4554,_ZN7fishnet18OGRGeometryAdapter7fromOGRERK10OGRPolygon
FNDA:493,_ZN7fishnet18OGRGeometryAdapter5toOGRINS_8geometry7PolygonIdEEEESt10unique_ptrI10OGRPolygonSt14default_deleteIS6_EERKT_
FNF:9
FNH:9
DA:23,36457
DA:24,36457
DA:28,3868
DA:29,3868
DA:32,4776
DA:33,4776
DA:34,41232
DA:35,36456
DA:36,4776
DA:38,4776
DA:39,0
DA:40,0
DA:41,0
DA:42,4776
DA:44,517
DA:45,517
DA:46,517
DA:47,3867
DA:48,3350
DA:50,517
DA:51,517
DA:52,517
DA:55,4554
DA:57,4554
DA:58,4554
DA:59,4554
DA:60,0
DA:61,4554
DA:62,4773
DA:63,219
DA:64,219
DA:65,0
DA:66,219
DA:67,219
DA:68,4554
DA:69,4554
DA:70,0
DA:71,0
DA:74,493
DA:75,493
DA:76,493
DA:77,514
DA:78,21
DA:80,493
DA:110,4553
DA:112,4553
LF:46
LH:39
end_of_record
TN:
SF:/home/lolo/Documents/fishnet/lib/io/gdal/include/fishnet/WGS84Ellipsoid.hpp
FN:107,109,_ZN7fishnet14WGS84Ellipsoid8distanceINS_8geometry5Vec2DIdEES4_EEdRKT_RKT0_b
FN:117,120,_ZN7fishnet14WGS84Ellipsoid4areaINS_8geometry7PolygonIdEEEEdRKT_
FN:118,118,_ZZN7fishnet14WGS84Ellipsoid4areaINS_8geometry7PolygonIdEEEEdRKT_ENKUlS7_E_clINS2_4RingIdEEEEDaS7_
FN:122,124,_ZN7fishnet14WGS84Ellipsoid4areaINS_8geometry4RingIdEEEEdRKT_
FN:127,129,_ZN7fishnet14WGS84Ellipsoid4areaIdEEdRKNS_8geometry13SimplePolygonIT_EE
FN:30,32,_ZN7fishnet14WGS84Ellipsoid4cos2ENS_4math7DegreesE
FN:38,40,_ZN7fishnet14WGS84Ellipsoid4sin2ENS_4math7DegreesE
FN:48,56,_ZN7fishnet14WGS84Ellipsoid17projectToEckertIVINS_8geometry4RingIdEEEEDaRKT_
FN:58,62,_ZN7fishnet14WGS84Ellipsoid9initWGS84Ev
FN:79,97,_ZN7fishnet14WGS84Ellipsoid8distanceEddddb
FNDA:2,_ZN7fishnet14WGS84Ellipsoid8distanceINS_8geometry5Vec2DIdEES4_EEdRKT_RKT0_b
FNDA:1,_ZN7fishnet14WGS84Ellipsoid4areaINS_8geometry7PolygonIdEEEEdRKT_
FNDA:0,_ZZN7fishnet14WGS84Ellipsoid4areaINS_8geometry7PolygonIdEEEEdRKT_ENKUlS7_E_clINS2_4RingIdEEEEDaS7_
FNDA:1,_ZN7fishnet14WGS84Ellipsoid4areaINS_8geometry4RingIdEEEEdRKT_
FNDA:1,_ZN7fishnet14WGS84Ellipsoid4areaIdEEdRKNS_8geometry13SimplePolygonIT_EE
FNDA:22,_ZN7fishnet14WGS84Ellipsoid4cos2ENS_4math7DegreesE
FNDA:22,_ZN7fishnet14WGS84Ellipsoid4sin2ENS_4math7DegreesE
FNDA:2,_ZN7fishnet14WGS84Ellipsoid17projectToEckertIVINS_8geometry4RingIdEEEEDaRKT_
FNDA:73,_ZN7fishnet14WGS84Ellipsoid9initWGS84Ev
FNDA:4,_ZN7fishnet14WGS84Ellipsoid8distanceEddddb
FNF:10
FNH:9
DA:30,22
DA:31,22
DA:38,22
DA:39,22
DA:48,2
DA:49,2
DA:50,2
DA:51,2
DA:52,2
DA:53,2
DA:54,2
DA:55,2
DA:56,2
DA:58,73
DA:59,73
DA:60,73
DA:61,73
DA:62,0
DA:79,4
DA:80,4
DA:81,4
DA:82,4
DA:83,4
DA:84,4
DA:85,4
DA:86,4
DA:87,4
DA:88,1
DA:90,3
DA:91,3
DA:92,3
DA:93,3
DA:94,3
DA:95,3
DA:107,2
DA:108,2
DA:117,1
DA:118,0
DA:119,0
DA:122,1
DA:123,1
DA:127,1
DA:128,1
LF:43
LH:40
end_of_record
TN:
SF:/home/lolo/Documents/fishnet/lib/io/gis/include/fishnet/GISFactory.hpp
FN:41,54,_ZN7fishnet10GISFactory11getGISFilesERKNSt10filesystem7__cxx114pathE
FN:56,64,_ZN7fishnet10GISFactory7getTypeERKNSt10filesystem7__cxx114pathE
FNDA:1,_ZN7fishnet10GISFactory11getGISFilesERKNSt10filesystem7__cxx114pathE
FNDA:42,_ZN7fishnet10GISFactory7getTypeERKNSt10filesystem7__cxx114pathE
FNF:2
FNH:2
DA:41,1
DA:42,1
DA:43,1
DA:44,1
DA:45,0
DA:46,1
DA:47,0
DA:48,85
DA:49,42
DA:50,7
DA:52,1
DA:53,1
DA:54,1
DA:56,42
DA:57,42
DA:58,42
DA:59,7
DA:60,35
DA:61,0
DA:63,35
DA:64,42
LF:21
LH:18
end_of_record
TN:
SF:/home/lolo/Documents/fishnet/lib/io/gis/include/fishnet/GISFile.hpp
FN:18,18,_ZN7fishnet15AbstractGISFileC2ENSt10filesystem7__cxx114pathE
FN:22,24,_ZNK7fishnet15AbstractGISFile7getPathB5cxx11Ev
FN:30,32,_ZNK7fishnet15AbstractGISFile6existsEv
FN:34,34,_ZN7fishnet15AbstractGISFileD0Ev
FN:34,34,_ZN7fishnet15AbstractGISFileD2Ev
FNDA:36,_ZN7fishnet15AbstractGISFileC2ENSt10filesystem7__cxx114pathE
FNDA:68,_ZNK7fishnet15AbstractGISFile7getPathB5cxx11Ev
FNDA:86,_ZNK7fishnet15AbstractGISFile6existsEv
FNDA:0,_ZN7fishnet15AbstractGISFileD0Ev
FNDA:36,_ZN7fishnet15AbstractGISFileD2Ev
FNF:5
FNH:4
DA:18,36
DA:22,68
DA:23,68
DA:30,86
DA:31,86
DA:34,36
LF:6
LH:6
end_of_record
TN:
SF:/home/lolo/Documents/fishnet/lib/io/gis/include/fishnet/Shapefile.hpp
FN:27,29,_ZN7fishnet9Shapefile17supportsExtensionERKNSt10filesystem7__cxx114pathE
FN:28,28,_ZZN7fishnet9Shapefile17supportsExtensionERKNSt10filesystem7__cxx114pathEENKUlRKT_E_clINSt7__cxx1112basic_stringIcSt11char_traitsIcESaIcEEEEEDaS8_
FN:31,33,_ZN7fishnet9Shapefile7isValidERKNSt10filesystem7__cxx114pathE
FN:32,32,_ZZN7fishnet9Shapefile7isValidERKNSt10filesystem7__cxx114pathEENKUlRKT_E_clINSt7__cxx1112basic_stringIcSt11char_traitsIcESaIcEEEEEDaS8_
FN:35,38,_ZN7fishnet9ShapefileC2ERKNSt10filesystem7__cxx114pathE
FN:40,42,_ZNK7fishnet9Shapefile6existsEv
FNDA:45,_ZN7fishnet9Shapefile17supportsExtensionERKNSt10filesystem7__cxx114pathE
FNDA:61,_ZZN7fishnet9Shapefile17supportsExtensionERKNSt10filesystem7__cxx114pathEENKUlRKT_E_clINSt7__cxx1112basic_stringIcSt11char_traitsIcESaIcEEEEEDaS8_
FNDA:79,_ZN7fishnet9Shapefile7isValidERKNSt10filesystem7__cxx114pathE
FNDA:316,_ZZN7fishnet9Shapefile7isValidERKNSt10filesystem7__cxx114pathEENKUlRKT_E_clINSt7__cxx1112basic_stringIcSt11char_traitsIcESaIcEEEEEDaS8_
FNDA:36,_ZN7fishnet9ShapefileC2ERKNSt10filesystem7__cxx114pathE
FNDA:86,_ZNK7fishnet9Shapefile6existsEv
FNF:6
FNH:6
DA:27,45
DA:28,106
DA:31,79
DA:32,395
DA:35,36
DA:36,36
DA:37,1
DA:38,36
DA:40,86
DA:41,86
LF:10
LH:10
end_of_record
TN:
SF:/home/lolo/Documents/fishnet/lib/io/vector/include/fishnet/Feature.hpp
FN:102,104,_ZNK7fishnet7FeatureINS_8geometry5Vec2DIdEEE11getGeometryEv
FN:102,104,_ZNK7fishnet7FeatureINS_8geometry7PolygonIdEEE11getGeometryEv
FN:106,108,_ZN7fishnet7FeatureINS_8geometry5Vec2DIdEEE11getGeometryEv
FN:110,113,_ZNK7fishnet7FeatureINS_8geometry5Vec2DIdEEEeqERKS4_
FN:27,27,_ZN7fishnet7FeatureINS_8geometry5Vec2DIdEEE10FieldValueC2INSt7__cxx1112basic_stringIcSt11char_traitsIcESaIcEEEEET_i
FN:27,27,_ZN7fishnet7FeatureINS_8geometry5Vec2DIdEEE10FieldValueC2IdEET_i
FN:27,27,_ZN7fishnet7FeatureINS_8geometry5Vec2DIdEEE10FieldValueC2IiEET_i
FN:27,27,_ZN7fishnet7FeatureINS_8geometry5Vec2DIdEEE10FieldValueC2IlEET_i
FN:27,27,_ZN7fishnet7FeatureINS_8geometry7PolygonIdEEE10FieldValueC2INSt7__cxx1112basic_stringIcSt11char_traitsIcESaIcEEEEET_i
FN:27,27,_ZN7fishnet7FeatureINS_8geometry7PolygonIdEEE10FieldValueC2IPKcEET_i
FN:27,27,_ZN7fishnet7FeatureINS_8geometry7PolygonIdEEE10FieldValueC2IdEET_i
FN:27,27,_ZN7fishnet7FeatureINS_8geometry7PolygonIdEEE10FieldValueC2IfEET_i
FN:27,27,_ZN7fishnet7FeatureINS_8geometry7PolygonIdEEE10FieldValueC2IiEET_i
FN:27,27,_ZN7fishnet7FeatureINS_8geometry7PolygonIdEEE10FieldValueC2IlEET_i
FN:27,27,_ZN7fishnet7FeatureINS_8geometry7PolygonIdEEE10FieldValueC2ImEET_i
FN:27,27,_ZN7fishnet7FeatureINS_8geometry7PolygonIdEEE10FieldValueC2IxEET_i
FN:30,32,_ZNK7fishnet7FeatureINS_8geometry5Vec2DIdEEE10FieldValue8getValueINSt7__cxx1112basic_stringIcSt11char_traitsIcESaIcEEEEET_v
FN:30,32,_ZNK7fishnet7FeatureINS_8geometry5Vec2DIdEEE10FieldValue8getValueIdEET_v
FN:30,32,_ZNK7fishnet7FeatureINS_8geometry5Vec2DIdEEE10FieldValue8getValueIiEET_v
FN:30,32,_ZNK7fishnet7FeatureINS_8geometry7PolygonIdEEE10FieldValue8getValueINSt7__cxx1112basic_stringIcSt11char_traitsIcESaIcEEEEET_v
FN:30,32,_ZNK7fishnet7FeatureINS_8geometry7PolygonIdEEE10FieldValue8getValueIPKcEET_v
FN:30,32,_ZNK7fishnet7FeatureINS_8geometry7PolygonIdEEE10FieldValue8getValueIdEET_v
FN:30,32,_ZNK7fishnet7FeatureINS_8geometry7PolygonIdEEE10FieldValue8getValueIfEET_v
FN:30,32,_ZNK7fishnet7FeatureINS_8geometry7PolygonIdEEE10FieldValue8getValueIiEET_v
FN:30,32,_ZNK7fishnet7FeatureINS_8geometry7PolygonIdEEE10FieldValue8getValueIlEET_v
FN:30,32,_ZNK7fishnet7FeatureINS_8geometry7PolygonIdEEE10FieldValue8getValueImEET_v
FN:30,32,_ZNK7fishnet7FeatureINS_8geometry7PolygonIdEEE10FieldValue8getValueIxEET_v
FN:38,40,_ZNK7fishnet7FeatureINS_8geometry5Vec2DIdEEE10FieldValue10getFieldIDEv
FN:38,40,_ZNK7fishnet7FeatureINS_8geometry7PolygonIdEEE10FieldValue10getFieldIDEv
FN:42,44,_ZNK7fishnet7FeatureINS_8geometry5Vec2DIdEEE10FieldValueeqERKS5_
FN:51,55,_ZNK7fishnet7FeatureINS_8geometry5Vec2DIdEEE19getItPosOfAttributeINSt7__cxx1112basic_stringIcSt11char_traitsIcESaIcEEEEEDaRKNS_15FieldDefinitionIT_EE
FN:51,55,_ZNK7fishnet7FeatureINS_8geometry5Vec2DIdEEE19getItPosOfAttributeIdEEDaRKNS_15FieldDefinitionIT_EE
FN:51,55,_ZNK7fishnet7FeatureINS_8geometry5Vec2DIdEEE19getItPosOfAttributeIiEEDaRKNS_15FieldDefinitionIT_EE
FN:51,55,_ZNK7fishnet7FeatureINS_8geometry7PolygonIdEEE19getItPosOfAttributeINSt7__cxx1112basic_stringIcSt11char_traitsIcESaIcEEEEEDaRKNS_15FieldDefinitionIT_EE
FN:51,55,_ZNK7fishnet7FeatureINS_8geometry7PolygonIdEEE19getItPosOfAttributeIPKcEEDaRKNS_15FieldDefinitionIT_EE
FN:51,55,_ZNK7fishnet7FeatureINS_8geometry7PolygonIdEEE19getItPosOfAttributeIdEEDaRKNS_15FieldDefinitionIT_EE
FN:51,55,_ZNK7fishnet7FeatureINS_8geometry7PolygonIdEEE19getItPosOfAttributeIfEEDaRKNS_15FieldDefinitionIT_EE
FN:51,55,_ZNK7fishnet7FeatureINS_8geometry7PolygonIdEEE19getItPosOfAttributeIiEEDaRKNS_15FieldDefinitionIT_EE
FN:51,55,_ZNK7fishnet7FeatureINS_8geometry7PolygonIdEEE19getItPosOfAttributeIlEEDaRKNS_15FieldDefinitionIT_EE
FN:51,55,_ZNK7fishnet7FeatureINS_8geometry7PolygonIdEEE19getItPosOfAttributeImEEDaRKNS_15FieldDefinitionIT_EE
FN:51,55,_ZNK7fishnet7FeatureINS_8geometry7PolygonIdEEE19getItPosOfAttributeIxEEDaRKNS_15FieldDefinitionIT_EE
FN:52,52,_ZZNK7fishnet7FeatureINS_8geometry5Vec2DIdEEE19getItPosOfAttributeINSt7__cxx1112basic_stringIcSt11char_traitsIcESaIcEEEEEDaRKNS_15FieldDefinitionIT_EEENKUlRKSD_E_clINS4_10FieldValueEEEDaSI_
FN:52,52,_ZZNK7fishnet7FeatureINS_8geometry5Vec2DIdEEE19getItPosOfAttributeIdEEDaRKNS_15FieldDefinitionIT_EEENKUlRKS7_E_clINS4_10FieldValueEEEDaSC_
FN:52,52,_ZZNK7fishnet7FeatureINS_8geometry5Vec2DIdEEE19getItPosOfAttributeIiEEDaRKNS_15FieldDefinitionIT_EEENKUlRKS7_E_clINS4_10FieldValueEEEDaSC_
FN:52,52,_ZZNK7fishnet7FeatureINS_8geometry7PolygonIdEEE19getItPosOfAttributeINSt7__cxx1112basic_stringIcSt11char_traitsIcESaIcEEEEEDaRKNS_15FieldDefinitionIT_EEENKUlRKSD_E_clINS4_10FieldValueEEEDaSI_
FN:52,52,_ZZNK7fishnet7FeatureINS_8geometry7PolygonIdEEE19getItPosOfAttributeIPKcEEDaRKNS_15FieldDefinitionIT_EEENKUlRKS9_E_clINS4_10FieldValueEEEDaSE_
FN:52,52,_ZZNK7fishnet7FeatureINS_8geometry7PolygonIdEEE19getItPosOfAttributeIdEEDaRKNS_15FieldDefinitionIT_EEENKUlRKS7_E_clINS4_10FieldValueEEEDaSC_
FN:52,52,_ZZNK7fishnet7FeatureINS_8geometry7PolygonIdEEE19getItPosOfAttributeIfEEDaRKNS_15FieldDefinitionIT_EEENKUlRKS7_E_clINS4_10FieldValueEEEDaSC_
FN:52,52,_ZZNK7fishnet7FeatureINS_8geometry7PolygonIdEEE19getItPosOfAttributeIiEEDaRKNS_15FieldDefinitionIT_EEENKUlRKS7_E_clINS4_10FieldValueEEEDaSC_
FN:52,52,_ZZNK7fishnet7FeatureINS_8geometry7PolygonIdEEE19getItPosOfAttributeIlEEDaRKNS_15FieldDefinitionIT_EEENKUlRKS7_E_clINS4_10FieldValueEEEDaSC_
FN:52,52,_ZZNK7fishnet7FeatureINS_8geometry7PolygonIdEEE19getItPosOfAttributeImEEDaRKNS_15FieldDefinitionIT_EEENKUlRKS7_E_clINS4_10FieldValueEEEDaSC_
FN:52,52,_ZZNK7fishnet7FeatureINS_8geometry7PolygonIdEEE19getItPosOfAttributeIxEEDaRKNS_15FieldDefinitionIT_EEENKUlRKS7_E_clINS4_10FieldValueEEEDaSC_
FN:58,62,_ZN7fishnet7FeatureINS_8geometry5Vec2DIdEEE19getItPosOfAttributeIdEEDaRKNS_15FieldDefinitionIT_EE
FN:58,62,_ZN7fishnet7FeatureINS_8geometry5Vec2DIdEEE19getItPosOfAttributeIiEEDaRKNS_15FieldDefinitionIT_EE
FN:59,59,_ZZN7fishnet7FeatureINS_8geometry5Vec2DIdEEE19getItPosOfAttributeIdEEDaRKNS_15FieldDefinitionIT_EEENKUlRKS7_E_clINS4_10FieldValueEEEDaSC_
FN:59,59,_ZZN7fishnet7FeatureINS_8geometry5Vec2DIdEEE19getItPosOfAttributeIiEEDaRKNS_15FieldDefinitionIT_EEENKUlRKS7_E_clINS4_10FieldValueEEEDaSC_
FN:65,65,_ZN7fishnet7FeatureINS_8geometry5Vec2DIdEEEC1ERKS3_
FN:65,65,_ZN7fishnet7FeatureINS_8geometry5Vec2DIdEEEC2ERKS3_
FN:65,65,_ZN7fishnet7FeatureINS_8geometry7PolygonIdEEEC2ERKS3_
FN:66,66,_ZN7fishnet7FeatureINS_8geometry4LineIdEEEC2EOS3_
FN:66,66,_ZN7fishnet7FeatureINS_8geometry5Vec2DIdEEEC1EOS3_
FN:69,74,_ZN7fishnet7FeatureINS_8geometry5Vec2DIdEEE12addAttributeINS_15FieldDefinitionINSt7__cxx1112basic_stringIcSt11char_traitsIcESaIcEEEEEPKcEEbRKT_T0_
FN:69,74,_ZN7fishnet7FeatureINS_8geometry5Vec2DIdEEE12addAttributeINS_15FieldDefinitionIdEEdEEbRKT_T0_
FN:69,74,_ZN7fishnet7FeatureINS_8geometry5Vec2DIdEEE12addAttributeINS_15FieldDefinitionIiEEiEEbRKT_T0_
FN:69,74,_ZN7fishnet7FeatureINS_8geometry5Vec2DIdEEE12addAttributeINS_15FieldDefinitionIlEEiEEbRKT_T0_
FN:69,74,_ZN7fishnet7FeatureINS_8geometry7PolygonIdEEE12addAttributeINS_15FieldDefinitionINSt7__cxx1112basic_stringIcSt11char_traitsIcESaIcEEEEEPKcEEbRKT_T0_
FN:69,74,_ZN7fishnet7FeatureINS_8geometry7PolygonIdEEE12addAttributeINS_15FieldDefinitionIPKcEES8_EEbRKT_T0_
FN:69,74,_ZN7fishnet7FeatureINS_8geometry7PolygonIdEEE12addAttributeINS_15FieldDefinitionIdEEdEEbRKT_T0_
FN:69,74,_ZN7fishnet7FeatureINS_8geometry7PolygonIdEEE12addAttributeINS_15FieldDefinitionIfEEfEEbRKT_T0_
FN:69,74,_ZN7fishnet7FeatureINS_8geometry7PolygonIdEEE12addAttributeINS_15FieldDefinitionIiEEiEEbRKT_T0_
FN:69,74,_ZN7fishnet7FeatureINS_8geometry7PolygonIdEEE12addAttributeINS_15FieldDefinitionIlEElEEbRKT_T0_
FN:69,74,_ZN7fishnet7FeatureINS_8geometry7PolygonIdEEE12addAttributeINS_15FieldDefinitionImEEmEEbRKT_T0_
FN:69,74,_ZN7fishnet7FeatureINS_8geometry7PolygonIdEEE12addAttributeINS_15FieldDefinitionIxEExEEbRKT_T0_
FN:76,80,_ZNK7fishnet7FeatureINS_8geometry5Vec2DIdEEE12hasAttributeINS_15FieldDefinitionINSt7__cxx1112basic_stringIcSt11char_traitsIcESaIcEEEEEEEbRKT_
FN:76,80,_ZNK7fishnet7FeatureINS_8geometry5Vec2DIdEEE12hasAttributeINS_15FieldDefinitionIdEEEEbRKT_
FN:76,80,_ZNK7fishnet7FeatureINS_8geometry5Vec2DIdEEE12hasAttributeINS_15FieldDefinitionIiEEEEbRKT_
FN:76,80,_ZNK7fishnet7FeatureINS_8geometry5Vec2DIdEEE12hasAttributeINS_15FieldDefinitionIlEEEEbRKT_
FN:76,80,_ZNK7fishnet7FeatureINS_8geometry7PolygonIdEEE12hasAttributeINS_15FieldDefinitionINSt7__cxx1112basic_stringIcSt11char_traitsIcESaIcEEEEEEEbRKT_
FN:76,80,_ZNK7fishnet7FeatureINS_8geometry7PolygonIdEEE12hasAttributeINS_15FieldDefinitionIPKcEEEEbRKT_
FN:76,80,_ZNK7fishnet7FeatureINS_8geometry7PolygonIdEEE12hasAttributeINS_15FieldDefinitionIdEEEEbRKT_
FN:76,80,_ZNK7fishnet7FeatureINS_8geometry7PolygonIdEEE12hasAttributeINS_15FieldDefinitionIfEEEEbRKT_
FN:76,80,_ZNK7fishnet7FeatureINS_8geometry7PolygonIdEEE12hasAttributeINS_15FieldDefinitionIiEEEEbRKT_
FN:76,80,_ZNK7fishnet7FeatureINS_8geometry7PolygonIdEEE12hasAttributeINS_15FieldDefinitionIlEEEEbRKT_
FN:76,80,_ZNK7fishnet7FeatureINS_8geometry7PolygonIdEEE12hasAttributeINS_15FieldDefinitionImEEEEbRKT_
FN:76,80,_ZNK7fishnet7FeatureINS_8geometry7PolygonIdEEE12hasAttributeINS_15FieldDefinitionIxEEEEbRKT_
FN:77,77,_ZZNK7fishnet7FeatureINS_8geometry5Vec2DIdEEE12hasAttributeINS_15FieldDefinitionINSt7__cxx1112basic_stringIcSt11char_traitsIcESaIcEEEEEEEbRKT_ENKUlSG_E_clINS4_10FieldValueEEEDaSG_
FN:77,77,_ZZNK7fishnet7FeatureINS_8geometry5Vec2DIdEEE12hasAttributeINS_15FieldDefinitionIdEEEEbRKT_ENKUlSA_E_clINS4_10FieldValueEEEDaSA_
FN:77,77,_ZZNK7fishnet7FeatureINS_8geometry5Vec2DIdEEE12hasAttributeINS_15FieldDefinitionIiEEEEbRKT_ENKUlSA_E_clINS4_10FieldValueEEEDaSA_
FN:77,77,_ZZNK7fishnet7FeatureINS_8geometry5Vec2DIdEEE12hasAttributeINS_15FieldDefinitionIlEEEEbRKT_ENKUlSA_E_clINS4_10FieldValueEEEDaSA_
FN:77,77,_ZZNK7fishnet7FeatureINS_8geometry7PolygonIdEEE12hasAttributeINS_15FieldDefinitionINSt7__cxx1112basic_stringIcSt11char_traitsIcESaIcEEEEEEEbRKT_ENKUlSG_E_clINS4_10FieldValueEEEDaSG_
FN:77,77,_ZZNK7fishnet7FeatureINS_8geometry7PolygonIdEEE12hasAttributeINS_15FieldDefinitionIPKcEEEEbRKT_ENKUlSC_E_clINS4_10FieldValueEEEDaSC_
FN:77,77,_ZZNK7fishnet7FeatureINS_8geometry7PolygonIdEEE12hasAttributeINS_15FieldDefinitionIdEEEEbRKT_ENKUlSA_E_clINS4_10FieldValueEEEDaSA_
FN:77,77,_ZZNK7fishnet7FeatureINS_8geometry7PolygonIdEEE12hasAttributeINS_15FieldDefinitionIfEEEEbRKT_ENKUlSA_E_clINS4_10FieldValueEEEDaSA_
FN:77,77,_ZZNK7fishnet7FeatureINS_8geometry7PolygonIdEEE12hasAttributeINS_15FieldDefinitionIiEEEEbRKT_ENKUlSA_E_clINS4_10FieldValueEEEDaSA_
FN:77,77,_ZZNK7fishnet7FeatureINS_8geometry7PolygonIdEEE12hasAttributeINS_15FieldDefinitionIlEEEEbRKT_ENKUlSA_E_clINS4_10FieldValueEEEDaSA_
FN:77,77,_ZZNK7fishnet7FeatureINS_8geometry7PolygonIdEEE12hasAttributeINS_15FieldDefinitionImEEEEbRKT_ENKUlSA_E_clINS4_10FieldValueEEEDaSA_
FN:77,77,_ZZNK7fishnet7FeatureINS_8geometry7PolygonIdEEE12hasAttributeINS_15FieldDefinitionIxEEEEbRKT_ENKUlSA_E_clINS4_10FieldValueEEEDaSA_
FN:83,89,_ZNK7fishnet7FeatureINS_8geometry5Vec2DIdEEE12getAttributeINS_15FieldDefinitionINSt7__cxx1112basic_stringIcSt11char_traitsIcESaIcEEEEEEESt8optionalINT_10value_typeEERKSF_
FN:83,89,_ZNK7fishnet7FeatureINS_8geometry5Vec2DIdEEE12getAttributeINS_15FieldDefinitionIdEEEESt8optionalINT_10value_typeEERKS9_
FN:83,89,_ZNK7fishnet7FeatureINS_8geometry5Vec2DIdEEE12getAttributeINS_15FieldDefinitionIiEEEESt8optionalINT_10value_typeEERKS9_
FN:83,89,_ZNK7fishnet7FeatureINS_8geometry7PolygonIdEEE12getAttributeINS_15FieldDefinitionINSt7__cxx1112basic_stringIcSt11char_traitsIcESaIcEEEEEEESt8optionalINT_10value_typeEERKSF_
FN:83,89,_ZNK7fishnet7FeatureINS_8geometry7PolygonIdEEE12getAttributeINS_15FieldDefinitionIPKcEEEESt8optionalINT_10value_typeEERKSB_
FN:83,89,_ZNK7fishnet7FeatureINS_8geometry7PolygonIdEEE12getAttributeINS_15FieldDefinitionIdEEEESt8optionalINT_10value_typeEERKS9_
FN:83,89,_ZNK7fishnet7FeatureINS_8geometry7PolygonIdEEE12getAttributeINS_15FieldDefinitionIfEEEESt8optionalINT_10value_typeEERKS9_
FN:83,89,_ZNK7fishnet7FeatureINS_8geometry7PolygonIdEEE12getAttributeINS_15FieldDefinitionIiEEEESt8optionalINT_10value_typeEERKS9_
FN:83,89,_ZNK7fishnet7FeatureINS_8geometry7PolygonIdEEE12getAttributeINS_15FieldDefinitionIlEEEESt8optionalINT_10value_typeEERKS9_
FN:83,89,_ZNK7fishnet7FeatureINS_8geometry7PolygonIdEEE12getAttributeINS_15FieldDefinitionImEEEESt8optionalINT_10value_typeEERKS9_
FN:83,89,_ZNK7fishnet7FeatureINS_8geometry7PolygonIdEEE12getAttributeINS_15FieldDefinitionIxEEEESt8optionalINT_10value_typeEERKS9_
FN:92,96,_ZN7fishnet7FeatureINS_8geometry5Vec2DIdEEE12setAttributeINS_15FieldDefinitionIdEEdEEvRKT_T0_
FN:92,96,_ZN7fishnet7FeatureINS_8geometry5Vec2DIdEEE12setAttributeINS_15FieldDefinitionIiEEiEEvRKT_T0_
FN:98,100,_ZN7fishnet7FeatureINS_8geometry5Vec2DIdEEE15removeAttributeINS_15FieldDefinitionIdEEEEvT_
FN:98,100,_ZN7fishnet7FeatureINS_8geometry5Vec2DIdEEE15removeAttributeINS_15FieldDefinitionIiEEEEvT_
FN:99,99,_ZZN7fishnet7FeatureINS_8geometry5Vec2DIdEEE15removeAttributeINS_15FieldDefinitionIdEEEEvT_ENKUlRKS8_E_clINS4_10FieldValueEEEDaSA_
FN:99,99,_ZZN7fishnet7FeatureINS_8geometry5Vec2DIdEEE15removeAttributeINS_15FieldDefinitionIiEEEEvT_ENKUlRKS8_E_clINS4_10FieldValueEEEDaSA_
FNDA:28,_ZNK7fishnet7FeatureINS_8geometry5Vec2DIdEEE11getGeometryEv
FNDA:8366,_ZNK7fishnet7FeatureINS_8geometry7PolygonIdEEE11getGeometryEv
FNDA:3,_ZN7fishnet7FeatureINS_8geometry5Vec2DIdEEE11getGeometryEv
FNDA:12,_ZNK7fishnet7FeatureINS_8geometry5Vec2DIdEEEeqERKS4_
FNDA:1,_ZN7fishnet7FeatureINS_8geometry5Vec2DIdEEE10FieldValueC2INSt7__cxx1112basic_stringIcSt11char_traitsIcESaIcEEEEET_i
FNDA:8,_ZN7fishnet7FeatureINS_8geometry5Vec2DIdEEE10FieldValueC2IdEET_i
FNDA:10,_ZN7fishnet7FeatureINS_8geometry5Vec2DIdEEE10FieldValueC2IiEET_i
FNDA:1,_ZN7fishnet7FeatureINS_8geometry5Vec2DIdEEE10FieldValueC2IlEET_i
FNDA:0,_ZN7fishnet7FeatureINS_8geometry7PolygonIdEEE10FieldValueC2INSt7__cxx1112basic_stringIcSt11char_traitsIcESaIcEEEEET_i
FNDA:0,_ZN7fishnet7FeatureINS_8geometry7PolygonIdEEE10FieldValueC2IPKcEET_i
FNDA:0,_ZN7fishnet7FeatureINS_8geometry7PolygonIdEEE10FieldValueC2IdEET_i
FNDA:0,_ZN7fishnet7FeatureINS_8geometry7PolygonIdEEE10FieldValueC2IfEET_i
FNDA:4553,_ZN7fishnet7FeatureINS_8geometry7PolygonIdEEE10FieldValueC2IiEET_i
FNDA:0,_ZN7fishnet7FeatureINS_8geometry7PolygonIdEEE10FieldValueC2IlEET_i
FNDA:0,_ZN7fishnet7FeatureINS_8geometry7PolygonIdEEE10FieldValueC2ImEET_i
FNDA:0,_ZN7fishnet7FeatureINS_8geometry7PolygonIdEEE10FieldValueC2IxEET_i
FNDA:1,_ZNK7fishnet7FeatureINS_8geometry5Vec2DIdEEE10FieldValue8getValueINSt7__cxx1112basic_stringIcSt11char_traitsIcESaIcEEEEET_v
FNDA:5,_ZNK7fishnet7FeatureINS_8geometry5Vec2DIdEEE10FieldValue8getValueIdEET_v
FNDA:2,_ZNK7fishnet7FeatureINS_8geometry5Vec2DIdEEE10FieldValue8getValueIiEET_v
FNDA:0,_ZNK7fishnet7FeatureINS_8geometry7PolygonIdEEE10FieldValue8getValueINSt7__cxx1112basic_stringIcSt11char_traitsIcESaIcEEEEET_v
FNDA:0,_ZNK7fishnet7FeatureINS_8geometry7PolygonIdEEE10FieldValue8getValueIPKcEET_v
FNDA:0,_ZNK7fishnet7FeatureINS_8geometry7PolygonIdEEE10FieldValue8getValueIdEET_v
FNDA:0,_ZNK7fishnet7FeatureINS_8geometry7PolygonIdEEE10FieldValue8getValueIfEET_v
FNDA:492,_ZNK7fishnet7FeatureINS_8geometry7PolygonIdEEE10FieldValue8getValueIiEET_v
FNDA:0,_ZNK7fishnet7FeatureINS_8geometry7PolygonIdEEE10FieldValue8getValueIlEET_v
FNDA:0,_ZNK7fishnet7FeatureINS_8geometry7PolygonIdEEE10FieldValue8getValueImEET_v
FNDA:0,_ZNK7fishnet7FeatureINS_8geometry7PolygonIdEEE10FieldValue8getValueIxEET_v
FNDA:29,_ZNK7fishnet7FeatureINS_8geometry5Vec2DIdEEE10FieldValue10getFieldIDEv
FNDA:492,_ZNK7fishnet7FeatureINS_8geometry7PolygonIdEEE10FieldValue10getFieldIDEv
FNDA:9,_ZNK7fishnet7FeatureINS_8geometry5Vec2DIdEEE10FieldValueeqERKS5_
FNDA:1,_ZNK7fishnet7FeatureINS_8geometry5Vec2DIdEEE19getItPosOfAttributeINSt7__cxx1112basic_stringIcSt11char_traitsIcESaIcEEEEEDaRKNS_15FieldDefinitionIT_EE
FNDA:5,_ZNK7fishnet7FeatureINS_8geometry5Vec2DIdEEE19getItPosOfAttributeIdEEDaRKNS_15FieldDefinitionIT_EE
FNDA:3,_ZNK7fishnet7FeatureINS_8geometry5Vec2DIdEEE19getItPosOfAttributeIiEEDaRKNS_15FieldDefinitionIT_EE
FNDA:0,_ZNK7fishnet7FeatureINS_8geometry7PolygonIdEEE19getItPosOfAttributeINSt7__cxx1112basic_stringIcSt11char_traitsIcESaIcEEEEEDaRKNS_15FieldDefinitionIT_EE
FNDA:0,_ZNK7fishnet7FeatureINS_8geometry7PolygonIdEEE19getItPosOfAttributeIPKcEEDaRKNS_15FieldDefinitionIT_EE
FNDA:0,_ZNK7fishnet7FeatureINS_8geometry7PolygonIdEEE19getItPosOfAttributeIdEEDaRKNS_15FieldDefinitionIT_EE
FNDA:0,_ZNK7fishnet7FeatureINS_8geometry7PolygonIdEEE19getItPosOfAttributeIfEEDaRKNS_15FieldDefinitionIT_EE
FNDA:492,_ZNK7fishnet7FeatureINS_8geometry7PolygonIdEEE19getItPosOfAttributeIiEEDaRKNS_15FieldDefinitionIT_EE
FNDA:0,_ZNK7fishnet7FeatureINS_8geometry7PolygonIdEEE19getItPosOfAttributeIlEEDaRKNS_15FieldDefinitionIT_EE
FNDA:0,_ZNK7fishnet7FeatureINS_8geometry7PolygonIdEEE19getItPosOfAttributeImEEDaRKNS_15FieldDefinitionIT_EE
FNDA:0,_ZNK7fishnet7FeatureINS_8geometry7PolygonIdEEE19getItPosOfAttributeIxEEDaRKNS_15FieldDefinitionIT_EE
FNDA:2,_ZZNK7fishnet7FeatureINS_8geometry5Vec2DIdEEE19getItPosOfAttributeINSt7__cxx1112basic_stringIcSt11char_traitsIcESaIcEEEEEDaRKNS_15FieldDefinitionIT_EEENKUlRKSD_E_clINS4_10FieldValueEEEDaSI_
FNDA:5,_ZZNK7fishnet7FeatureINS_8geometry5Vec2DIdEEE19getItPosOfAttributeIdEEDaRKNS_15FieldDefinitionIT_EEENKUlRKS7_E_clINS4_10FieldValueEEEDaSC_
FNDA:2,_ZZNK7fishnet7FeatureINS_8geometry5Vec2DIdEEE19getItPosOfAttributeIiEEDaRKNS_15FieldDefinitionIT_EEENKUlRKS7_E_clINS4_10FieldValueEEEDaSC_
FNDA:0,_ZZNK7fishnet7FeatureINS_8geometry7PolygonIdEEE19getItPosOfAttributeINSt7__cxx1112basic_stringIcSt11char_traitsIcESaIcEEEEEDaRKNS_15FieldDefinitionIT_EEENKUlRKSD_E_clINS4_10FieldValueEEEDaSI_
FNDA:0,_ZZNK7fishnet7FeatureINS_8geometry7PolygonIdEEE19getItPosOfAttributeIPKcEEDaRKNS_15FieldDefinitionIT_EEENKUlRKS9_E_clINS4_10FieldValueEEEDaSE_
FNDA:0,_ZZNK7fishnet7FeatureINS_8geometry7PolygonIdEEE19getItPosOfAttributeIdEEDaRKNS_15FieldDefinitionIT_EEENKUlRKS7_E_clINS4_10FieldValueEEEDaSC_
FNDA:0,_ZZNK7fishnet7FeatureINS_8geometry7PolygonIdEEE19getItPosOfAttributeIfEEDaRKNS_15FieldDefinitionIT_EEENKUlRKS7_E_clINS4_10FieldValueEEEDaSC_
FNDA:492,_ZZNK7fishnet7FeatureINS_8geometry7PolygonIdEEE19getItPosOfAttributeIiEEDaRKNS_15FieldDefinitionIT_EEENKUlRKS7_E_clINS4_10FieldValueEEEDaSC_
FNDA:0,_ZZNK7fishnet7FeatureINS_8geometry7PolygonIdEEE19getItPosOfAttributeIlEEDaRKNS_15FieldDefinitionIT_EEENKUlRKS7_E_clINS4_10FieldValueEEEDaSC_
FNDA:0,_ZZNK7fishnet7FeatureINS_8geometry7PolygonIdEEE19getItPosOfAttributeImEEDaRKNS_15FieldDefinitionIT_EEENKUlRKS7_E_clINS4_10FieldValueEEEDaSC_
FNDA:0,_ZZNK7fishnet7FeatureINS_8geometry7PolygonIdEEE19getItPosOfAttributeIxEEDaRKNS_15FieldDefinitionIT_EEENKUlRKS7_E_clINS4_10FieldValueEEEDaSC_
FNDA:1,_ZN7fishnet7FeatureINS_8geometry5Vec2DIdEEE19getItPosOfAttributeIdEEDaRKNS_15FieldDefinitionIT_EE
FNDA:1,_ZN7fishnet7FeatureINS_8geometry5Vec2DIdEEE19getItPosOfAttributeIiEEDaRKNS_15FieldDefinitionIT_EE
FNDA:1,_ZZN7fishnet7FeatureINS_8geometry5Vec2DIdEEE19getItPosOfAttributeIdEEDaRKNS_15FieldDefinitionIT_EEENKUlRKS7_E_clINS4_10FieldValueEEEDaSC_
FNDA:1,_ZZN7fishnet7FeatureINS_8geometry5Vec2DIdEEE19getItPosOfAttributeIiEEDaRKNS_15FieldDefinitionIT_EEENKUlRKS7_E_clINS4_10FieldValueEEEDaSC_
FNDA:0,_ZN7fishnet7FeatureINS_8geometry5Vec2DIdEEEC1ERKS3_
FNDA:40,_ZN7fishnet7FeatureINS_8geometry5Vec2DIdEEEC2ERKS3_
FNDA:4553,_ZN7fishnet7FeatureINS_8geometry7PolygonIdEEEC2ERKS3_
FNDA:1,_ZN7fishnet7FeatureINS_8geometry4LineIdEEEC2EOS3_
FNDA:3,_ZN7fishnet7FeatureINS_8geometry5Vec2DIdEEEC1EOS3_
FNDA:1,_ZN7fishnet7FeatureINS_8geometry5Vec2DIdEEE12addAttributeINS_15FieldDefinitionINSt7__cxx1112basic_stringIcSt11char_traitsIcESaIcEEEEEPKcEEbRKT_T0_
FNDA:10,_ZN7fishnet7FeatureINS_8geometry5Vec2DIdEEE12addAttributeINS_15FieldDefinitionIdEEdEEbRKT_T0_
FNDA:10,_ZN7fishnet7FeatureINS_8geometry5Vec2DIdEEE12addAttributeINS_15FieldDefinitionIiEEiEEbRKT_T0_
FNDA:1,_ZN7fishnet7FeatureINS_8geometry5Vec2DIdEEE12addAttributeINS_15FieldDefinitionIlEEiEEbRKT_T0_
FNDA:0,_ZN7fishnet7FeatureINS_8geometry7PolygonIdEEE12addAttributeINS_15FieldDefinitionINSt7__cxx1112basic_stringIcSt11char_traitsIcESaIcEEEEEPKcEEbRKT_T0_
FNDA:0,_ZN7fishnet7FeatureINS_8geometry7PolygonIdEEE12addAttributeINS_15FieldDefinitionIPKcEES8_EEbRKT_T0_
FNDA:0,_ZN7fishnet7FeatureINS_8geometry7PolygonIdEEE12addAttributeINS_15FieldDefinitionIdEEdEEbRKT_T0_
FNDA:0,_ZN7fishnet7FeatureINS_8geometry7PolygonIdEEE12addAttributeINS_15FieldDefinitionIfEEfEEbRKT_T0_
FNDA:4553,_ZN7fishnet7FeatureINS_8geometry7PolygonIdEEE12addAttributeINS_15FieldDefinitionIiEEiEEbRKT_T0_
FNDA:0,_ZN7fishnet7FeatureINS_8geometry7PolygonIdEEE12addAttributeINS_15FieldDefinitionIlEElEEbRKT_T0_
FNDA:0,_ZN7fishnet7FeatureINS_8geometry7PolygonIdEEE12addAttributeINS_15FieldDefinitionImEEmEEbRKT_T0_
FNDA:0,_ZN7fishnet7FeatureINS_8geometry7PolygonIdEEE12addAttributeINS_15FieldDefinitionIxEExEEbRKT_T0_
FNDA:1,_ZNK7fishnet7FeatureINS_8geometry5Vec2DIdEEE12hasAttributeINS_15FieldDefinitionINSt7__cxx1112basic_stringIcSt11char_traitsIcESaIcEEEEEEEbRKT_
FNDA:13,_ZNK7fishnet7FeatureINS_8geometry5Vec2DIdEEE12hasAttributeINS_15FieldDefinitionIdEEEEbRKT_
FNDA:15,_ZNK7fishnet7FeatureINS_8geometry5Vec2DIdEEE12hasAttributeINS_15FieldDefinitionIiEEEEbRKT_
FNDA:1,_ZNK7fishnet7FeatureINS_8geometry5Vec2DIdEEE12hasAttributeINS_15FieldDefinitionIlEEEEbRKT_
FNDA:0,_ZNK7fishnet7FeatureINS_8geometry7PolygonIdEEE12hasAttributeINS_15FieldDefinitionINSt7__cxx1112basic_stringIcSt11char_traitsIcESaIcEEEEEEEbRKT_
FNDA:0,_ZNK7fishnet7FeatureINS_8geometry7PolygonIdEEE12hasAttributeINS_15FieldDefinitionIPKcEEEEbRKT_
FNDA:0,_ZNK7fishnet7FeatureINS_8geometry7PolygonIdEEE12hasAttributeINS_15FieldDefinitionIdEEEEbRKT_
FNDA:0,_ZNK7fishnet7FeatureINS_8geometry7PolygonIdEEE12hasAttributeINS_15FieldDefinitionIfEEEEbRKT_
FNDA:4553,_ZNK7fishnet7FeatureINS_8geometry7PolygonIdEEE12hasAttributeINS_15FieldDefinitionIiEEEEbRKT_
FNDA:0,_ZNK7fishnet7FeatureINS_8geometry7PolygonIdEEE12hasAttributeINS_15FieldDefinitionIlEEEEbRKT_
FNDA:0,_ZNK7fishnet7FeatureINS_8geometry7PolygonIdEEE12hasAttributeINS_15FieldDefinitionImEEEEbRKT_
FNDA:0,_ZNK7fishnet7FeatureINS_8geometry7PolygonIdEEE12hasAttributeINS_15FieldDefinitionIxEEEEbRKT_
FNDA:1,_ZZNK7fishnet7FeatureINS_8geometry5Vec2DIdEEE12hasAttributeINS_15FieldDefinitionINSt7__cxx1112basic_stringIcSt11char_traitsIcESaIcEEEEEEEbRKT_ENKUlSG_E_clINS4_10FieldValueEEEDaSG_
FNDA:8,_ZZNK7fishnet7FeatureINS_8geometry5Vec2DIdEEE12hasAttributeINS_15FieldDefinitionIdEEEEbRKT_ENKUlSA_E_clINS4_10FieldValueEEEDaSA_
FNDA:7,_ZZNK7fishnet7FeatureINS_8geometry5Vec2DIdEEE12hasAttributeINS_15FieldDefinitionIiEEEEbRKT_ENKUlSA_E_clINS4_10FieldValueEEEDaSA_
FNDA:0,_ZZNK7fishnet7FeatureINS_8geometry5Vec2DIdEEE12hasAttributeINS_15FieldDefinitionIlEEEEbRKT_ENKUlSA_E_clINS4_10FieldValueEEEDaSA_
FNDA:0,_ZZNK7fishnet7FeatureINS_8geometry7PolygonIdEEE12hasAttributeINS_15FieldDefinitionINSt7__cxx1112basic_stringIcSt11char_traitsIcESaIcEEEEEEEbRKT_ENKUlSG_E_clINS4_10FieldValueEEEDaSG_
FNDA:0,_ZZNK7fishnet7FeatureINS_8geometry7PolygonIdEEE12hasAttributeINS_15FieldDefinitionIPKcEEEEbRKT_ENKUlSC_E_clINS4_10FieldValueEEEDaSC_
FNDA:0,_ZZNK7fishnet7FeatureINS_8geometry7PolygonIdEEE12hasAttributeINS_15FieldDefinitionIdEEEEbRKT_ENKUlSA_E_clINS4_10FieldValueEEEDaSA_
FNDA:0,_ZZNK7fishnet7FeatureINS_8geometry7PolygonIdEEE12hasAttributeINS_15FieldDefinitionIfEEEEbRKT_ENKUlSA_E_clINS4_10FieldValueEEEDaSA_
FNDA:0,_ZZNK7fishnet7FeatureINS_8geometry7PolygonIdEEE12hasAttributeINS_15FieldDefinitionIiEEEEbRKT_ENKUlSA_E_clINS4_10FieldValueEEEDaSA_
FNDA:0,_ZZNK7fishnet7FeatureINS_8geometry7PolygonIdEEE12hasAttributeINS_15FieldDefinitionIlEEEEbRKT_ENKUlSA_E_clINS4_10FieldValueEEEDaSA_
FNDA:0,_ZZNK7fishnet7FeatureINS_8geometry7PolygonIdEEE12hasAttributeINS_15FieldDefinitionImEEEEbRKT_ENKUlSA_E_clINS4_10FieldValueEEEDaSA_
FNDA:0,_ZZNK7fishnet7FeatureINS_8geometry7PolygonIdEEE12hasAttributeINS_15FieldDefinitionIxEEEEbRKT_ENKUlSA_E_clINS4_10FieldValueEEEDaSA_
FNDA:1,_ZNK7fishnet7FeatureINS_8geometry5Vec2DIdEEE12getAttributeINS_15FieldDefinitionINSt7__cxx1112basic_stringIcSt11char_traitsIcESaIcEEEEEEESt8optionalINT_10value_typeEERKSF_
FNDA:5,_ZNK7fishnet7FeatureINS_8geometry5Vec2DIdEEE12getAttributeINS_15FieldDefinitionIdEEEESt8optionalINT_10value_typeEERKS9_
FNDA:3,_ZNK7fishnet7FeatureINS_8geometry5Vec2DIdEEE12getAttributeINS_15FieldDefinitionIiEEEESt8optionalINT_10value_typeEERKS9_
FNDA:0,_ZNK7fishnet7FeatureINS_8geometry7PolygonIdEEE12getAttributeINS_15FieldDefinitionINSt7__cxx1112basic_stringIcSt11char_traitsIcESaIcEEEEEEESt8optionalINT_10value_typeEERKSF_
FNDA:0,_ZNK7fishnet7FeatureINS_8geometry7PolygonIdEEE12getAttributeINS_15FieldDefinitionIPKcEEEESt8optionalINT_10value_typeEERKSB_
FNDA:0,_ZNK7fishnet7FeatureINS_8geometry7PolygonIdEEE12getAttributeINS_15FieldDefinitionIdEEEESt8optionalINT_10value_typeEERKS9_
FNDA:0,_ZNK7fishnet7FeatureINS_8geometry7PolygonIdEEE12getAttributeINS_15FieldDefinitionIfEEEESt8optionalINT_10value_typeEERKS9_
FNDA:492,_ZNK7fishnet7FeatureINS_8geometry7PolygonIdEEE12getAttributeINS_15FieldDefinitionIiEEEESt8optionalINT_10value_typeEERKS9_
FNDA:0,_ZNK7fishnet7FeatureINS_8geometry7PolygonIdEEE12getAttributeINS_15FieldDefinitionIlEEEESt8optionalINT_10value_typeEERKS9_
FNDA:0,_ZNK7fishnet7FeatureINS_8geometry7PolygonIdEEE12getAttributeINS_15FieldDefinitionImEEEESt8optionalINT_10value_typeEERKS9_
FNDA:0,_ZNK7fishnet7FeatureINS_8geometry7PolygonIdEEE12getAttributeINS_15FieldDefinitionIxEEEESt8optionalINT_10value_typeEERKS9_
FNDA:2,_ZN7fishnet7FeatureINS_8geometry5Vec2DIdEEE12setAttributeINS_15FieldDefinitionIdEEdEEvRKT_T0_
FNDA:2,_ZN7fishnet7FeatureINS_8geometry5Vec2DIdEEE12setAttributeINS_15FieldDefinitionIiEEiEEvRKT_T0_
FNDA:1,_ZN7fishnet7FeatureINS_8geometry5Vec2DIdEEE15removeAttributeINS_15FieldDefinitionIdEEEEvT_
FNDA:1,_ZN7fishnet7FeatureINS_8geometry5Vec2DIdEEE15removeAttributeINS_15FieldDefinitionIiEEEEvT_
FNDA:1,_ZZN7fishnet7FeatureINS_8geometry5Vec2DIdEEE15removeAttributeINS_15FieldDefinitionIdEEEEvT_ENKUlRKS8_E_clINS4_10FieldValueEEEDaSA_
FNDA:1,_ZZN7fishnet7FeatureINS_8geometry5Vec2DIdEEE15removeAttributeINS_15FieldDefinitionIiEEEEvT_ENKUlRKS8_E_clINS4_10FieldValueEEEDaSA_
FNF:114
FNH:55
DA:27,4573
DA:30,500
DA:31,500
DA:38,521
DA:39,521
DA:42,9
DA:43,9
DA:51,501
DA:52,1002
DA:53,0
DA:54,501
DA:58,2
DA:59,4
DA:60,2
DA:61,2
DA:65,4593
DA:66,4
DA:69,4575
DA:70,4575
DA:71,4
DA:72,4572
DA:73,4571
DA:76,4583
DA:77,4599
DA:78,0
DA:79,4583
DA:83,501
DA:85,501
DA:86,501
DA:87,1
DA:88,500
DA:92,4
DA:93,4
DA:94,2
DA:96,4
DA:98,2
DA:99,4
DA:100,2
DA:102,8394
DA:103,8394
DA:106,3
DA:107,3
DA:110,12
DA:111,21
DA:112,21
LF:45
LH:43
end_of_record
TN:
SF:/home/lolo/Documents/fishnet/lib/io/vector/include/fishnet/FieldDefinition.hpp
FN:18,20,_ZN7fishnet12FieldCounterclEv
FN:52,52,_ZN7fishnet15FieldDefinitionINSt7__cxx1112basic_stringIcSt11char_traitsIcESaIcEEEEC2ES6_
FN:52,52,_ZN7fishnet15FieldDefinitionIdEC2ENSt7__cxx1112basic_stringIcSt11char_traitsIcESaIcEEE
FN:52,52,_ZN7fishnet15FieldDefinitionIiEC2ENSt7__cxx1112basic_stringIcSt11char_traitsIcESaIcEEE
FN:52,52,_ZN7fishnet15FieldDefinitionIlEC2ENSt7__cxx1112basic_stringIcSt11char_traitsIcESaIcEEE
FN:52,52,_ZN7fishnet15FieldDefinitionImEC2ENSt7__cxx1112basic_stringIcSt11char_traitsIcESaIcEEE
FN:53,53,_ZN7fishnet15FieldDefinitionINSt7__cxx1112basic_stringIcSt11char_traitsIcESaIcEEEEC2ES6_i
FN:53,53,_ZN7fishnet15FieldDefinitionIdEC2ENSt7__cxx1112basic_stringIcSt11char_traitsIcESaIcEEEi
FN:53,53,_ZN7fishnet15FieldDefinitionIiEC2ENSt7__cxx1112basic_stringIcSt11char_traitsIcESaIcEEEi
FN:53,53,_ZN7fishnet15FieldDefinitionImEC2ENSt7__cxx1112basic_stringIcSt11char_traitsIcESaIcEEEi
FN:62,64,_ZNK7fishnet15FieldDefinitionINSt7__cxx1112basic_stringIcSt11char_traitsIcESaIcEEEE10getFieldIDEv
FN:62,64,_ZNK7fishnet15FieldDefinitionIPKcE10getFieldIDEv
FN:62,64,_ZNK7fishnet15FieldDefinitionIdE10getFieldIDEv
FN:62,64,_ZNK7fishnet15FieldDefinitionIfE10getFieldIDEv
FN:62,64,_ZNK7fishnet15FieldDefinitionIiE10getFieldIDEv
FN:62,64,_ZNK7fishnet15FieldDefinitionIlE10getFieldIDEv
FN:62,64,_ZNK7fishnet15FieldDefinitionImE10getFieldIDEv
FN:62,64,_ZNK7fishnet15FieldDefinitionIxE10getFieldIDEv
FNDA:18,_ZN7fishnet12FieldCounterclEv
FNDA:2,_ZN7fishnet15FieldDefinitionINSt7__cxx1112basic_stringIcSt11char_traitsIcESaIcEEEEC2ES6_
FNDA:8,_ZN7fishnet15FieldDefinitionIdEC2ENSt7__cxx1112basic_stringIcSt11char_traitsIcESaIcEEE
FNDA:7,_ZN7fishnet15FieldDefinitionIiEC2ENSt7__cxx1112basic_stringIcSt11char_traitsIcESaIcEEE
FNDA:1,_ZN7fishnet15FieldDefinitionIlEC2ENSt7__cxx1112basic_stringIcSt11char_traitsIcESaIcEEE
FNDA:0,_ZN7fishnet15FieldDefinitionImEC2ENSt7__cxx1112basic_stringIcSt11char_traitsIcESaIcEEE
FNDA:0,_ZN7fishnet15FieldDefinitionINSt7__cxx1112basic_stringIcSt11char_traitsIcESaIcEEEEC2ES6_i
FNDA:0,_ZN7fishnet15FieldDefinitionIdEC2ENSt7__cxx1112basic_stringIcSt11char_traitsIcESaIcEEEi
FNDA:38,_ZN7fishnet15FieldDefinitionIiEC2ENSt7__cxx1112basic_stringIcSt11char_traitsIcESaIcEEEi
FNDA:0,_ZN7fishnet15FieldDefinitionImEC2ENSt7__cxx1112basic_stringIcSt11char_traitsIcESaIcEEEi
FNDA:4,_ZNK7fishnet15FieldDefinitionINSt7__cxx1112basic_stringIcSt11char_traitsIcESaIcEEEE10getFieldIDEv
FNDA:0,_ZNK7fishnet15FieldDefinitionIPKcE10getFieldIDEv
FNDA:23,_ZNK7fishnet15FieldDefinitionIdE10getFieldIDEv
FNDA:0,_ZNK7fishnet15FieldDefinitionIfE10getFieldIDEv
FNDA:9619,_ZNK7fishnet15FieldDefinitionIiE10getFieldIDEv
FNDA:1,_ZNK7fishnet15FieldDefinitionIlE10getFieldIDEv
FNDA:0,_ZNK7fishnet15FieldDefinitionImE10getFieldIDEv
FNDA:0,_ZNK7fishnet15FieldDefinitionIxE10getFieldIDEv
FNF:18
FNH:10
DA:18,18
DA:19,18
DA:52,18
DA:53,38
DA:62,9647
DA:63,9647
LF:6
LH:6
end_of_record
TN:
SF:/home/lolo/Documents/fishnet/lib/io/vector/include/fishnet/VectorLayer.hpp
FN:108,145,_ZN7fishnet11VectorLayerINS_8geometry7PolygonIdEEEC2ERKNS_9ShapefileE
FN:152,154,_ZN7fishnet11VectorLayerINS_8geometry5Vec2DIdEEEC2E19OGRSpatialReference
FN:152,154,_ZN7fishnet11VectorLayerINS_8geometry7PolygonIdEEEC2E19OGRSpatialReference
FN:161,197,_ZNK7fishnet11VectorLayerINS_8geometry7PolygonIdEEE11writeToDiskERKNS_9ShapefileE
FN:169,169,_ZZNK7fishnet11VectorLayerINS_8geometry7PolygonIdEEE11writeToDiskERKNS_9ShapefileEENKUlOT_E_clIRKNS_15FieldDefinitionINSt7__cxx1112basic_stringIcSt11char_traitsIcESaIcEEEEEEEDaS9_
FN:169,169,_ZZNK7fishnet11VectorLayerINS_8geometry7PolygonIdEEE11writeToDiskERKNS_9ShapefileEENKUlOT_E_clIRKNS_15FieldDefinitionIPKcEEEEDaS9_
FN:169,169,_ZZNK7fishnet11VectorLayerINS_8geometry7PolygonIdEEE11writeToDiskERKNS_9ShapefileEENKUlOT_E_clIRKNS_15FieldDefinitionIdEEEEDaS9_
FN:169,169,_ZZNK7fishnet11VectorLayerINS_8geometry7PolygonIdEEE11writeToDiskERKNS_9ShapefileEENKUlOT_E_clIRKNS_15FieldDefinitionIfEEEEDaS9_
FN:169,169,_ZZNK7fishnet11VectorLayerINS_8geometry7PolygonIdEEE11writeToDiskERKNS_9ShapefileEENKUlOT_E_clIRKNS_15FieldDefinitionIiEEEEDaS9_
FN:169,169,_ZZNK7fishnet11VectorLayerINS_8geometry7PolygonIdEEE11writeToDiskERKNS_9ShapefileEENKUlOT_E_clIRKNS_15FieldDefinitionIlEEEEDaS9_
FN:169,169,_ZZNK7fishnet11VectorLayerINS_8geometry7PolygonIdEEE11writeToDiskERKNS_9ShapefileEENKUlOT_E_clIRKNS_15FieldDefinitionImEEEEDaS9_
FN:169,169,_ZZNK7fishnet11VectorLayerINS_8geometry7PolygonIdEEE11writeToDiskERKNS_9ShapefileEENKUlOT_E_clIRKNS_15FieldDefinitionIxEEEEDaS9_
FN:183,183,_ZZNK7fishnet11VectorLayerINS_8geometry7PolygonIdEEE11writeToDiskERKNS_9ShapefileEENKUlOT_E0_clIRKNS_15FieldDefinitionINSt7__cxx1112basic_stringIcSt11char_traitsIcESaIcEEEEEEEDaS9_
FN:183,183,_ZZNK7fishnet11VectorLayerINS_8geometry7PolygonIdEEE11writeToDiskERKNS_9ShapefileEENKUlOT_E0_clIRKNS_15FieldDefinitionIPKcEEEEDaS9_
FN:183,183,_ZZNK7fishnet11VectorLayerINS_8geometry7PolygonIdEEE11writeToDiskERKNS_9ShapefileEENKUlOT_E0_clIRKNS_15FieldDefinitionIdEEEEDaS9_
FN:183,183,_ZZNK7fishnet11VectorLayerINS_8geometry7PolygonIdEEE11writeToDiskERKNS_9ShapefileEENKUlOT_E0_clIRKNS_15FieldDefinitionIfEEEEDaS9_
FN:183,183,_ZZNK7fishnet11VectorLayerINS_8geometry7PolygonIdEEE11writeToDiskERKNS_9ShapefileEENKUlOT_E0_clIRKNS_15FieldDefinitionIiEEEEDaS9_
FN:183,183,_ZZNK7fishnet11VectorLayerINS_8geometry7PolygonIdEEE11writeToDiskERKNS_9ShapefileEENKUlOT_E0_clIRKNS_15FieldDefinitionIlEEEEDaS9_
FN:183,183,_ZZNK7fishnet11VectorLayerINS_8geometry7PolygonIdEEE11writeToDiskERKNS_9ShapefileEENKUlOT_E0_clIRKNS_15FieldDefinitionImEEEEDaS9_
FN:183,183,_ZZNK7fishnet11VectorLayerINS_8geometry7PolygonIdEEE11writeToDiskERKNS_9ShapefileEENKUlOT_E0_clIRKNS_15FieldDefinitionIxEEEEDaS9_
FN:204,207,_ZN7fishnet11VectorLayerINS_8geometry5Vec2DIdEEE6removeIZNS4_14removeGeometryERKS3_EUlRKT_E_EEvOS8_
FN:219,221,_ZN7fishnet11VectorLayerINS_8geometry5Vec2DIdEEE5emptyERK19OGRSpatialReference
FN:219,221,_ZN7fishnet11VectorLayerINS_8geometry7PolygonIdEEE5emptyERK19OGRSpatialReference
FN:243,247,_ZN7fishnet11VectorLayerINS_8geometry7PolygonIdEEE4readERKNS_9ShapefileE
FN:257,259,_ZNK7fishnet11VectorLayerINS_8geometry5Vec2DIdEEE13getGeometriesEv
FN:257,259,_ZNK7fishnet11VectorLayerINS_8geometry7PolygonIdEEE13getGeometriesEv
FN:258,258,_ZZNK7fishnet11VectorLayerINS_8geometry5Vec2DIdEEE13getGeometriesEvENKUlRKT_E_clINS_7FeatureIS3_EEEEDaS7_
FN:258,258,_ZZNK7fishnet11VectorLayerINS_8geometry7PolygonIdEEE13getGeometriesEvENKUlRKT_E_clINS_7FeatureIS3_EEEEDaS7_
FN:265,267,_ZN7fishnet11VectorLayerINS_8geometry5Vec2DIdEEE11getFeaturesEv
FN:265,267,_ZN7fishnet11VectorLayerINS_8geometry7PolygonIdEEE11getFeaturesEv
FN:269,271,_ZNK7fishnet11VectorLayerINS_8geometry5Vec2DIdEEE19getSpatialReferenceEv
FN:269,271,_ZNK7fishnet11VectorLayerINS_8geometry7PolygonIdEEE19getSpatialReferenceEv
FN:273,275,_ZN7fishnet11VectorLayerINS_8geometry5Vec2DIdEEE19setSpatialReferenceERK19OGRSpatialReference
FN:277,279,_ZN7fishnet11VectorLayerINS_8geometry5Vec2DIdEEE11addGeometryERKS3_
FN:281,283,_ZN7fishnet11VectorLayerINS_8geometry5Vec2DIdEEE11addGeometryEOS3_
FN:285,287,_ZN7fishnet11VectorLayerINS_8geometry5Vec2DIdEEE14addAllGeometryIRSt6vectorIS3_SaIS3_EEEEvOT_
FN:286,286,_ZZN7fishnet11VectorLayerINS_8geometry5Vec2DIdEEE14addAllGeometryIRSt6vectorIS3_SaIS3_EEEEvOT_ENKUlRKSA_E_clIS3_EEDaSD_
FN:296,298,_ZNK7fishnet11VectorLayerINS_8geometry5Vec2DIdEEE16containsGeometryERKS3_
FN:297,297,_ZZNK7fishnet11VectorLayerINS_8geometry5Vec2DIdEEE16containsGeometryERKS3_ENKUlRKT_E_clINS_7FeatureIS3_EEEEDaS9_
FN:301,303,_ZN7fishnet11VectorLayerINS_8geometry5Vec2DIdEEE14removeGeometryERKS3_
FN:302,302,_ZZN7fishnet11VectorLayerINS_8geometry5Vec2DIdEEE14removeGeometryERKS3_ENKUlRKT_E_clINS_7FeatureIS3_EEEEDaS9_
FN:305,307,_ZN7fishnet11VectorLayerINS_8geometry5Vec2DIdEEE10addFeatureEONS_7FeatureIS3_EE
FN:305,307,_ZN7fishnet11VectorLayerINS_8geometry7PolygonIdEEE10addFeatureEONS_7FeatureIS3_EE
FN:313,315,_ZN7fishnet11VectorLayerINS_8geometry5Vec2DIdEEE15containsFeatureERKNS_7FeatureIS3_EE
FN:322,331,_ZN7fishnet11VectorLayerINS_8geometry5Vec2DIdEEE8addFieldINSt7__cxx1112basic_stringIcSt11char_traitsIcESaIcEEEEESt8expectedINS_15FieldDefinitionIT_EESB_ERKSB_
FN:322,331,_ZN7fishnet11VectorLayerINS_8geometry5Vec2DIdEEE8addFieldIdEESt8expectedINS_15FieldDefinitionIT_EENSt7__cxx1112basic_stringIcSt11char_traitsIcESaIcEEEERKSF_
FN:322,331,_ZN7fishnet11VectorLayerINS_8geometry5Vec2DIdEEE8addFieldIiEESt8expectedINS_15FieldDefinitionIT_EENSt7__cxx1112basic_stringIcSt11char_traitsIcESaIcEEEERKSF_
FN:322,331,_ZN7fishnet11VectorLayerINS_8geometry5Vec2DIdEEE8addFieldImEESt8expectedINS_15FieldDefinitionIT_EENSt7__cxx1112basic_stringIcSt11char_traitsIcESaIcEEEERKSF_
FN:333,335,_ZN7fishnet11VectorLayerINS_8geometry5Vec2DIdEEE15addIntegerFieldERKNSt7__cxx1112basic_stringIcSt11char_traitsIcESaIcEEE
FN:337,339,_ZN7fishnet11VectorLayerINS_8geometry5Vec2DIdEEE14addDoubleFieldERKNSt7__cxx1112basic_stringIcSt11char_traitsIcESaIcEEE
FN:341,343,_ZN7fishnet11VectorLayerINS_8geometry5Vec2DIdEEE12addTextFieldERKNSt7__cxx1112basic_stringIcSt11char_traitsIcESaIcEEE
FN:345,347,_ZN7fishnet11VectorLayerINS_8geometry5Vec2DIdEEE12addSizeFieldERKNSt7__cxx1112basic_stringIcSt11char_traitsIcESaIcEEE
FN:349,351,_ZNK7fishnet11VectorLayerINS_8geometry5Vec2DIdEEE8hasFieldERKNSt7__cxx1112basic_stringIcSt11char_traitsIcESaIcEEE
FN:353,355,_ZN7fishnet11VectorLayerINS_8geometry5Vec2DIdEEE11removeFieldERKNSt7__cxx1112basic_stringIcSt11char_traitsIcESaIcEEE
FN:357,359,_ZN7fishnet11VectorLayerINS_8geometry5Vec2DIdEEE11clearFieldsEv
FN:369,382,_ZNK7fishnet11VectorLayerINS_8geometry5Vec2DIdEEE8getFieldINSt7__cxx1112basic_stringIcSt11char_traitsIcESaIcEEEEESt8optionalINS_15FieldDefinitionIT_EEERKSB_
FN:369,382,_ZNK7fishnet11VectorLayerINS_8geometry5Vec2DIdEEE8getFieldIdEESt8optionalINS_15FieldDefinitionIT_EEERKNSt7__cxx1112basic_stringIcSt11char_traitsIcESaIcEEE
FN:369,382,_ZNK7fishnet11VectorLayerINS_8geometry5Vec2DIdEEE8getFieldIiEESt8optionalINS_15FieldDefinitionIT_EEERKNSt7__cxx1112basic_stringIcSt11char_traitsIcESaIcEEE
FN:375,375,_ZZNK7fishnet11VectorLayerINS_8geometry5Vec2DIdEEE8getFieldINSt7__cxx1112basic_stringIcSt11char_traitsIcESaIcEEEEESt8optionalINS_15FieldDefinitionIT_EEERKSB_ENKUlOSE_E_clIRKNSD_IPKcEEEEDaSJ_
FN:375,375,_ZZNK7fishnet11VectorLayerINS_8geometry5Vec2DIdEEE8getFieldINSt7__cxx1112basic_stringIcSt11char_traitsIcESaIcEEEEESt8optionalINS_15FieldDefinitionIT_EEERKSB_ENKUlOSE_E_clIRKNSD_ISB_EEEEDaSJ_
FN:375,375,_ZZNK7fishnet11VectorLayerINS_8geometry5Vec2DIdEEE8getFieldINSt7__cxx1112basic_stringIcSt11char_traitsIcESaIcEEEEESt8optionalINS_15FieldDefinitionIT_EEERKSB_ENKUlOSE_E_clIRKNSD_IdEEEEDaSJ_
FN:375,375,_ZZNK7fishnet11VectorLayerINS_8geometry5Vec2DIdEEE8getFieldINSt7__cxx1112basic_stringIcSt11char_traitsIcESaIcEEEEESt8optionalINS_15FieldDefinitionIT_EEERKSB_ENKUlOSE_E_clIRKNSD_IfEEEEDaSJ_
FN:375,375,_ZZNK7fishnet11VectorLayerINS_8geometry5Vec2DIdEEE8getFieldINSt7__cxx1112basic_stringIcSt11char_traitsIcESaIcEEEEESt8optionalINS_15FieldDefinitionIT_EEERKSB_ENKUlOSE_E_clIRKNSD_IiEEEEDaSJ_
FN:375,375,_ZZNK7fishnet11VectorLayerINS_8geometry5Vec2DIdEEE8getFieldINSt7__cxx1112basic_stringIcSt11char_traitsIcESaIcEEEEESt8optionalINS_15FieldDefinitionIT_EEERKSB_ENKUlOSE_E_clIRKNSD_IlEEEEDaSJ_
FN:375,375,_ZZNK7fishnet11VectorLayerINS_8geometry5Vec2DIdEEE8getFieldINSt7__cxx1112basic_stringIcSt11char_traitsIcESaIcEEEEESt8optionalINS_15FieldDefinitionIT_EEERKSB_ENKUlOSE_E_clIRKNSD_ImEEEEDaSJ_
FN:375,375,_ZZNK7fishnet11VectorLayerINS_8geometry5Vec2DIdEEE8getFieldINSt7__cxx1112basic_stringIcSt11char_traitsIcESaIcEEEEESt8optionalINS_15FieldDefinitionIT_EEERKSB_ENKUlOSE_E_clIRKNSD_IxEEEEDaSJ_
FN:375,375,_ZZNK7fishnet11VectorLayerINS_8geometry5Vec2DIdEEE8getFieldIdEESt8optionalINS_15FieldDefinitionIT_EEERKNSt7__cxx1112basic_stringIcSt11char_traitsIcESaIcEEEENKUlOS8_E_clIRKNS7_IPKcEEEEDaSJ_
FN:375,375,_ZZNK7fishnet11VectorLayerINS_8geometry5Vec2DIdEEE8getFieldIdEESt8optionalINS_15FieldDefinitionIT_EEERKNSt7__cxx1112basic_stringIcSt11char_traitsIcESaIcEEEENKUlOS8_E_clIRKNS7_ISG_EEEEDaSJ_
FN:375,375,_ZZNK7fishnet11VectorLayerINS_8geometry5Vec2DIdEEE8getFieldIdEESt8optionalINS_15FieldDefinitionIT_EEERKNSt7__cxx1112basic_stringIcSt11char_traitsIcESaIcEEEENKUlOS8_E_clIRKNS7_IdEEEEDaSJ_
FN:375,375,_ZZNK7fishnet11VectorLayerINS_8geometry5Vec2DIdEEE8getFieldIdEESt8optionalINS_15FieldDefinitionIT_EEERKNSt7__cxx1112basic_stringIcSt11char_traitsIcESaIcEEEENKUlOS8_E_clIRKNS7_IfEEEEDaSJ_
FN:375,375,_ZZNK7fishnet11VectorLayerINS_8geometry5Vec2DIdEEE8getFieldIdEESt8optionalINS_15FieldDefinitionIT_EEERKNSt7__cxx1112basic_stringIcSt11char_traitsIcESaIcEEEENKUlOS8_E_clIRKNS7_IiEEEEDaSJ_
FN:375,375,_ZZNK7fishnet11VectorLayerINS_8geometry5Vec2DIdEEE8getFieldIdEESt8optionalINS_15FieldDefinitionIT_EEERKNSt7__cxx1112basic_stringIcSt11char_traitsIcESaIcEEEENKUlOS8_E_clIRKNS7_IlEEEEDaSJ_
FN:375,375,_ZZNK7fishnet11VectorLayerINS_8geometry5Vec2DIdEEE8getFieldIdEESt8optionalINS_15FieldDefinitionIT_EEERKNSt7__cxx1112basic_stringIcSt11char_traitsIcESaIcEEEENKUlOS8_E_clIRKNS7_ImEEEEDaSJ_
FN:375,375,_ZZNK7fishnet11VectorLayerINS_8geometry5Vec2DIdEEE8getFieldIdEESt8optionalINS_15FieldDefinitionIT_EEERKNSt7__cxx1112basic_stringIcSt11char_traitsIcESaIcEEEENKUlOS8_E_clIRKNS7_IxEEEEDaSJ_
FN:375,375,_ZZNK7fishnet11VectorLayerINS_8geometry5Vec2DIdEEE8getFieldIiEESt8optionalINS_15FieldDefinitionIT_EEERKNSt7__cxx1112basic_stringIcSt11char_traitsIcESaIcEEEENKUlOS8_E_clIRKNS7_IPKcEEEEDaSJ_
FN:375,375,_ZZNK7fishnet11VectorLayerINS_8geometry5Vec2DIdEEE8getFieldIiEESt8optionalINS_15FieldDefinitionIT_EEERKNSt7__cxx1112basic_stringIcSt11char_traitsIcESaIcEEEENKUlOS8_E_clIRKNS7_ISG_EEEEDaSJ_
FN:375,375,_ZZNK7fishnet11VectorLayerINS_8geometry5Vec2DIdEEE8getFieldIiEESt8optionalINS_15FieldDefinitionIT_EEERKNSt7__cxx1112basic_stringIcSt11char_traitsIcESaIcEEEENKUlOS8_E_clIRKNS7_IdEEEEDaSJ_
FN:375,375,_ZZNK7fishnet11VectorLayerINS_8geometry5Vec2DIdEEE8getFieldIiEESt8optionalINS_15FieldDefinitionIT_EEERKNSt7__cxx1112basic_stringIcSt11char_traitsIcESaIcEEEENKUlOS8_E_clIRKNS7_IfEEEEDaSJ_
FN:375,375,_ZZNK7fishnet11VectorLayerINS_8geometry5Vec2DIdEEE8getFieldIiEESt8optionalINS_15FieldDefinitionIT_EEERKNSt7__cxx1112basic_stringIcSt11char_traitsIcESaIcEEEENKUlOS8_E_clIRKNS7_IiEEEEDaSJ_
FN:375,375,_ZZNK7fishnet11VectorLayerINS_8geometry5Vec2DIdEEE8getFieldIiEESt8optionalINS_15FieldDefinitionIT_EEERKNSt7__cxx1112basic_stringIcSt11char_traitsIcESaIcEEEENKUlOS8_E_clIRKNS7_IlEEEEDaSJ_
FN:375,375,_ZZNK7fishnet11VectorLayerINS_8geometry5Vec2DIdEEE8getFieldIiEESt8optionalINS_15FieldDefinitionIT_EEERKNSt7__cxx1112basic_stringIcSt11char_traitsIcESaIcEEEENKUlOS8_E_clIRKNS7_ImEEEEDaSJ_
FN:375,375,_ZZNK7fishnet11VectorLayerINS_8geometry5Vec2DIdEEE8getFieldIiEESt8optionalINS_15FieldDefinitionIT_EEERKNSt7__cxx1112basic_stringIcSt11char_traitsIcESaIcEEEENKUlOS8_E_clIRKNS7_IxEEEEDaSJ_
FN:400,406,_ZNK7fishnet11VectorLayerINS_8geometry7PolygonIdEEE5writeERKNS_9ShapefileE
FN:408,410,_ZNK7fishnet11VectorLayerINS_8geometry7PolygonIdEEE9overwriteERKNS_9ShapefileE
FN:57,75,_ZN7fishnet11VectorLayerINS_8geometry7PolygonIdEEE11addOGRFieldEP12OGRFieldDefni
FN:86,98,_ZN7fishnet11VectorLayerINS_8geometry7PolygonIdEEE19AddAttributeVisitorclINSt7__cxx1112basic_stringIcSt11char_traitsIcESaIcEEEEEbRKNS_15FieldDefinitionIT_EE
FN:86,98,_ZN7fishnet11VectorLayerINS_8geometry7PolygonIdEEE19AddAttributeVisitorclIPKcEEbRKNS_15FieldDefinitionIT_EE
FN:86,98,_ZN7fishnet11VectorLayerINS_8geometry7PolygonIdEEE19AddAttributeVisitorclIdEEbRKNS_15FieldDefinitionIT_EE
FN:86,98,_ZN7fishnet11VectorLayerINS_8geometry7PolygonIdEEE19AddAttributeVisitorclIfEEbRKNS_15FieldDefinitionIT_EE
FN:86,98,_ZN7fishnet11VectorLayerINS_8geometry7PolygonIdEEE19AddAttributeVisitorclIiEEbRKNS_15FieldDefinitionIT_EE
FN:86,98,_ZN7fishnet11VectorLayerINS_8geometry7PolygonIdEEE19AddAttributeVisitorclIlEEbRKNS_15FieldDefinitionIT_EE
FN:86,98,_ZN7fishnet11VectorLayerINS_8geometry7PolygonIdEEE19AddAttributeVisitorclImEEbRKNS_15FieldDefinitionIT_EE
FN:86,98,_ZN7fishnet11VectorLayerINS_8geometry7PolygonIdEEE19AddAttributeVisitorclIxEEbRKNS_15FieldDefinitionIT_EE
FNDA:38,_ZN7fishnet11VectorLayerINS_8geometry7PolygonIdEEEC2ERKNS_9ShapefileE
FNDA:36,_ZN7fishnet11VectorLayerINS_8geometry5Vec2DIdEEEC2E19OGRSpatialReference
FNDA:3,_ZN7fishnet11VectorLayerINS_8geometry7PolygonIdEEEC2E19OGRSpatialReference
FNDA:4,_ZNK7fishnet11VectorLayerINS_8geometry7PolygonIdEEE11writeToDiskERKNS_9ShapefileE
FNDA:0,_ZZNK7fishnet11VectorLayerINS_8geometry7PolygonIdEEE11writeToDiskERKNS_9ShapefileEENKUlOT_E_clIRKNS_15FieldDefinitionINSt7__cxx1112basic_stringIcSt11char_traitsIcESaIcEEEEEEEDaS9_
FNDA:0,_ZZNK7fishnet11VectorLayerINS_8geometry7PolygonIdEEE11writeToDiskERKNS_9ShapefileEENKUlOT_E_clIRKNS_15FieldDefinitionIPKcEEEEDaS9_
FNDA:0,_ZZNK7fishnet11VectorLayerINS_8geometry7PolygonIdEEE11writeToDiskERKNS_9ShapefileEENKUlOT_E_clIRKNS_15FieldDefinitionIdEEEEDaS9_
FNDA:0,_ZZNK7fishnet11VectorLayerINS_8geometry7PolygonIdEEE11writeToDiskERKNS_9ShapefileEENKUlOT_E_clIRKNS_15FieldDefinitionIfEEEEDaS9_
FNDA:4,_ZZNK7fishnet11VectorLayerINS_8geometry7PolygonIdEEE11writeToDiskERKNS_9ShapefileEENKUlOT_E_clIRKNS_15FieldDefinitionIiEEEEDaS9_
FNDA:0,_ZZNK7fishnet11VectorLayerINS_8geometry7PolygonIdEEE11writeToDiskERKNS_9ShapefileEENKUlOT_E_clIRKNS_15FieldDefinitionIlEEEEDaS9_
FNDA:0,_ZZNK7fishnet11VectorLayerINS_8geometry7PolygonIdEEE11writeToDiskERKNS_9ShapefileEENKUlOT_E_clIRKNS_15FieldDefinitionImEEEEDaS9_
FNDA:0,_ZZNK7fishnet11VectorLayerINS_8geometry7PolygonIdEEE11writeToDiskERKNS_9ShapefileEENKUlOT_E_clIRKNS_15FieldDefinitionIxEEEEDaS9_
FNDA:0,_ZZNK7fishnet11VectorLayerINS_8geometry7PolygonIdEEE11writeToDiskERKNS_9ShapefileEENKUlOT_E0_clIRKNS_15FieldDefinitionINSt7__cxx1112basic_stringIcSt11char_traitsIcESaIcEEEEEEEDaS9_
FNDA:0,_ZZNK7fishnet11VectorLayerINS_8geometry7PolygonIdEEE11writeToDiskERKNS_9ShapefileEENKUlOT_E0_clIRKNS_15FieldDefinitionIPKcEEEEDaS9_
FNDA:0,_ZZNK7fishnet11VectorLayerINS_8geometry7PolygonIdEEE11writeToDiskERKNS_9ShapefileEENKUlOT_E0_clIRKNS_15FieldDefinitionIdEEEEDaS9_
FNDA:0,_ZZNK7fishnet11VectorLayerINS_8geometry7PolygonIdEEE11writeToDiskERKNS_9ShapefileEENKUlOT_E0_clIRKNS_15FieldDefinitionIfEEEEDaS9_
FNDA:492,_ZZNK7fishnet11VectorLayerINS_8geometry7PolygonIdEEE11writeToDiskERKNS_9ShapefileEENKUlOT_E0_clIRKNS_15FieldDefinitionIiEEEEDaS9_
FNDA:0,_ZZNK7fishnet11VectorLayerINS_8geometry7PolygonIdEEE11writeToDiskERKNS_9ShapefileEENKUlOT_E0_clIRKNS_15FieldDefinitionIlEEEEDaS9_
FNDA:0,_ZZNK7fishnet11VectorLayerINS_8geometry7PolygonIdEEE11writeToDiskERKNS_9ShapefileEENKUlOT_E0_clIRKNS_15FieldDefinitionImEEEEDaS9_
FNDA:0,_ZZNK7fishnet11VectorLayerINS_8geometry7PolygonIdEEE11writeToDiskERKNS_9ShapefileEENKUlOT_E0_clIRKNS_15FieldDefinitionIxEEEEDaS9_
FNDA:1,_ZN7fishnet11VectorLayerINS_8geometry5Vec2DIdEEE6removeIZNS4_14removeGeometryERKS3_EUlRKT_E_EEvOS8_
FNDA:36,_ZN7fishnet11VectorLayerINS_8geometry5Vec2DIdEEE5emptyERK19OGRSpatialReference
FNDA:3,_ZN7fishnet11VectorLayerINS_8geometry7PolygonIdEEE5emptyERK19OGRSpatialReference
FNDA:39,_ZN7fishnet11VectorLayerINS_8geometry7PolygonIdEEE4readERKNS_9ShapefileE
FNDA:10,_ZNK7fishnet11VectorLayerINS_8geometry5Vec2DIdEEE13getGeometriesEv
FNDA:6,_ZNK7fishnet11VectorLayerINS_8geometry7PolygonIdEEE13getGeometriesEv
FNDA:8,_ZZNK7fishnet11VectorLayerINS_8geometry5Vec2DIdEEE13getGeometriesEvENKUlRKT_E_clINS_7FeatureIS3_EEEEDaS7_
FNDA:7874,_ZZNK7fishnet11VectorLayerINS_8geometry7PolygonIdEEE13getGeometriesEvENKUlRKT_E_clINS_7FeatureIS3_EEEEDaS7_
FNDA:6,_ZN7fishnet11VectorLayerINS_8geometry5Vec2DIdEEE11getFeaturesEv
FNDA:1,_ZN7fishnet11VectorLayerINS_8geometry7PolygonIdEEE11getFeaturesEv
FNDA:3,_ZNK7fishnet11VectorLayerINS_8geometry5Vec2DIdEEE19getSpatialReferenceEv
FNDA:41,_ZNK7fishnet11VectorLayerINS_8geometry7PolygonIdEEE19getSpatialReferenceEv
FNDA:1,_ZN7fishnet11VectorLayerINS_8geometry5Vec2DIdEEE19setSpatialReferenceERK19OGRSpatialReference
FNDA:36,_ZN7fishnet11VectorLayerINS_8geometry5Vec2DIdEEE11addGeometryERKS3_
FNDA:2,_ZN7fishnet11VectorLayerINS_8geometry5Vec2DIdEEE11addGeometryEOS3_
FNDA:18,_ZN7fishnet11VectorLayerINS_8geometry5Vec2DIdEEE14addAllGeometryIRSt6vectorIS3_SaIS3_EEEEvOT_
FNDA:36,_ZZN7fishnet11VectorLayerINS_8geometry5Vec2DIdEEE14addAllGeometryIRSt6vectorIS3_SaIS3_EEEEvOT_ENKUlRKSA_E_clIS3_EEDaSD_
FNDA:2,_ZNK7fishnet11VectorLayerINS_8geometry5Vec2DIdEEE16containsGeometryERKS3_
FNDA:6,_ZZNK7fishnet11VectorLayerINS_8geometry5Vec2DIdEEE16containsGeometryERKS3_ENKUlRKT_E_clINS_7FeatureIS3_EEEEDaS9_
FNDA:1,_ZN7fishnet11VectorLayerINS_8geometry5Vec2DIdEEE14removeGeometryERKS3_
FNDA:2,_ZZN7fishnet11VectorLayerINS_8geometry5Vec2DIdEEE14removeGeometryERKS3_ENKUlRKT_E_clINS_7FeatureIS3_EEEEDaS9_
FNDA:38,_ZN7fishnet11VectorLayerINS_8geometry5Vec2DIdEEE10addFeatureEONS_7FeatureIS3_EE
FNDA:4553,_ZN7fishnet11VectorLayerINS_8geometry7PolygonIdEEE10addFeatureEONS_7FeatureIS3_EE
FNDA:1,_ZN7fishnet11VectorLayerINS_8geometry5Vec2DIdEEE15containsFeatureERKNS_7FeatureIS3_EE
FNDA:1,_ZN7fishnet11VectorLayerINS_8geometry5Vec2DIdEEE8addFieldINSt7__cxx1112basic_stringIcSt11char_traitsIcESaIcEEEEESt8expectedINS_15FieldDefinitionIT_EESB_ERKSB_
FNDA:4,_ZN7fishnet11VectorLayerINS_8geometry5Vec2DIdEEE8addFieldIdEESt8expectedINS_15FieldDefinitionIT_EENSt7__cxx1112basic_stringIcSt11char_traitsIcESaIcEEEERKSF_
FNDA:4,_ZN7fishnet11VectorLayerINS_8geometry5Vec2DIdEEE8addFieldIiEESt8expectedINS_15FieldDefinitionIT_EENSt7__cxx1112basic_stringIcSt11char_traitsIcESaIcEEEERKSF_
FNDA:1,_ZN7fishnet11VectorLayerINS_8geometry5Vec2DIdEEE8addFieldImEESt8expectedINS_15FieldDefinitionIT_EENSt7__cxx1112basic_stringIcSt11char_traitsIcESaIcEEEERKSF_
FNDA:3,_ZN7fishnet11VectorLayerINS_8geometry5Vec2DIdEEE15addIntegerFieldERKNSt7__cxx1112basic_stringIcSt11char_traitsIcESaIcEEE
FNDA:4,_ZN7fishnet11VectorLayerINS_8geometry5Vec2DIdEEE14addDoubleFieldERKNSt7__cxx1112basic_stringIcSt11char_traitsIcESaIcEEE
FNDA:1,_ZN7fishnet11VectorLayerINS_8geometry5Vec2DIdEEE12addTextFieldERKNSt7__cxx1112basic_stringIcSt11char_traitsIcESaIcEEE
FNDA:1,_ZN7fishnet11VectorLayerINS_8geometry5Vec2DIdEEE12addSizeFieldERKNSt7__cxx1112basic_stringIcSt11char_traitsIcESaIcEEE
FNDA:8,_ZNK7fishnet11VectorLayerINS_8geometry5Vec2DIdEEE8hasFieldERKNSt7__cxx1112basic_stringIcSt11char_traitsIcESaIcEEE
FNDA:2,_ZN7fishnet11VectorLayerINS_8geometry5Vec2DIdEEE11removeFieldERKNSt7__cxx1112basic_stringIcSt11char_traitsIcESaIcEEE
FNDA:1,_ZN7fishnet11VectorLayerINS_8geometry5Vec2DIdEEE11clearFieldsEv
FNDA:1,_ZNK7fishnet11VectorLayerINS_8geometry5Vec2DIdEEE8getFieldINSt7__cxx1112basic_stringIcSt11char_traitsIcESaIcEEEEESt8optionalINS_15FieldDefinitionIT_EEERKSB_
FNDA:1,_ZNK7fishnet11VectorLayerINS_8geometry5Vec2DIdEEE8getFieldIdEESt8optionalINS_15FieldDefinitionIT_EEERKNSt7__cxx1112basic_stringIcSt11char_traitsIcESaIcEEE
FNDA:1,_ZNK7fishnet11VectorLayerINS_8geometry5Vec2DIdEEE8getFieldIiEESt8optionalINS_15FieldDefinitionIT_EEERKNSt7__cxx1112basic_stringIcSt11char_traitsIcESaIcEEE
FNDA:0,_ZZNK7fishnet11VectorLayerINS_8geometry5Vec2DIdEEE8getFieldINSt7__cxx1112basic_stringIcSt11char_traitsIcESaIcEEEEESt8optionalINS_15FieldDefinitionIT_EEERKSB_ENKUlOSE_E_clIRKNSD_IPKcEEEEDaSJ_
FNDA:0,_ZZNK7fishnet11VectorLayerINS_8geometry5Vec2DIdEEE8getFieldINSt7__cxx1112basic_stringIcSt11char_traitsIcESaIcEEEEESt8optionalINS_15FieldDefinitionIT_EEERKSB_ENKUlOSE_E_clIRKNSD_ISB_EEEEDaSJ_
FNDA:0,_ZZNK7fishnet11VectorLayerINS_8geometry5Vec2DIdEEE8getFieldINSt7__cxx1112basic_stringIcSt11char_traitsIcESaIcEEEEESt8optionalINS_15FieldDefinitionIT_EEERKSB_ENKUlOSE_E_clIRKNSD_IdEEEEDaSJ_
FNDA:0,_ZZNK7fishnet11VectorLayerINS_8geometry5Vec2DIdEEE8getFieldINSt7__cxx1112basic_stringIcSt11char_traitsIcESaIcEEEEESt8optionalINS_15FieldDefinitionIT_EEERKSB_ENKUlOSE_E_clIRKNSD_IfEEEEDaSJ_
FNDA:1,_ZZNK7fishnet11VectorLayerINS_8geometry5Vec2DIdEEE8getFieldINSt7__cxx1112basic_stringIcSt11char_traitsIcESaIcEEEEESt8optionalINS_15FieldDefinitionIT_EEERKSB_ENKUlOSE_E_clIRKNSD_IiEEEEDaSJ_
FNDA:0,_ZZNK7fishnet11VectorLayerINS_8geometry5Vec2DIdEEE8getFieldINSt7__cxx1112basic_stringIcSt11char_traitsIcESaIcEEEEESt8optionalINS_15FieldDefinitionIT_EEERKSB_ENKUlOSE_E_clIRKNSD_IlEEEEDaSJ_
FNDA:0,_ZZNK7fishnet11VectorLayerINS_8geometry5Vec2DIdEEE8getFieldINSt7__cxx1112basic_stringIcSt11char_traitsIcESaIcEEEEESt8optionalINS_15FieldDefinitionIT_EEERKSB_ENKUlOSE_E_clIRKNSD_ImEEEEDaSJ_
FNDA:0,_ZZNK7fishnet11VectorLayerINS_8geometry5Vec2DIdEEE8getFieldINSt7__cxx1112basic_stringIcSt11char_traitsIcESaIcEEEEESt8optionalINS_15FieldDefinitionIT_EEERKSB_ENKUlOSE_E_clIRKNSD_IxEEEEDaSJ_
FNDA:0,_ZZNK7fishnet11VectorLayerINS_8geometry5Vec2DIdEEE8getFieldIdEESt8optionalINS_15FieldDefinitionIT_EEERKNSt7__cxx1112basic_stringIcSt11char_traitsIcESaIcEEEENKUlOS8_E_clIRKNS7_IPKcEEEEDaSJ_
FNDA:0,_ZZNK7fishnet11VectorLayerINS_8geometry5Vec2DIdEEE8getFieldIdEESt8optionalINS_15FieldDefinitionIT_EEERKNSt7__cxx1112basic_stringIcSt11char_traitsIcESaIcEEEENKUlOS8_E_clIRKNS7_ISG_EEEEDaSJ_
FNDA:0,_ZZNK7fishnet11VectorLayerINS_8geometry5Vec2DIdEEE8getFieldIdEESt8optionalINS_15FieldDefinitionIT_EEERKNSt7__cxx1112basic_stringIcSt11char_traitsIcESaIcEEEENKUlOS8_E_clIRKNS7_IdEEEEDaSJ_
FNDA:0,_ZZNK7fishnet11VectorLayerINS_8geometry5Vec2DIdEEE8getFieldIdEESt8optionalINS_15FieldDefinitionIT_EEERKNSt7__cxx1112basic_stringIcSt11char_traitsIcESaIcEEEENKUlOS8_E_clIRKNS7_IfEEEEDaSJ_
FNDA:0,_ZZNK7fishnet11VectorLayerINS_8geometry5Vec2DIdEEE8getFieldIdEESt8optionalINS_15FieldDefinitionIT_EEERKNSt7__cxx1112basic_stringIcSt11char_traitsIcESaIcEEEENKUlOS8_E_clIRKNS7_IiEEEEDaSJ_
FNDA:0,_ZZNK7fishnet11VectorLayerINS_8geometry5Vec2DIdEEE8getFieldIdEESt8optionalINS_15FieldDefinitionIT_EEERKNSt7__cxx1112basic_stringIcSt11char_traitsIcESaIcEEEENKUlOS8_E_clIRKNS7_IlEEEEDaSJ_
FNDA:0,_ZZNK7fishnet11VectorLayerINS_8geometry5Vec2DIdEEE8getFieldIdEESt8optionalINS_15FieldDefinitionIT_EEERKNSt7__cxx1112basic_stringIcSt11char_traitsIcESaIcEEEENKUlOS8_E_clIRKNS7_ImEEEEDaSJ_
FNDA:0,_ZZNK7fishnet11VectorLayerINS_8geometry5Vec2DIdEEE8getFieldIdEESt8optionalINS_15FieldDefinitionIT_EEERKNSt7__cxx1112basic_stringIcSt11char_traitsIcESaIcEEEENKUlOS8_E_clIRKNS7_IxEEEEDaSJ_
FNDA:0,_ZZNK7fishnet11VectorLayerINS_8geometry5Vec2DIdEEE8getFieldIiEESt8optionalINS_15FieldDefinitionIT_EEERKNSt7__cxx1112basic_stringIcSt11char_traitsIcESaIcEEEENKUlOS8_E_clIRKNS7_IPKcEEEEDaSJ_
FNDA:0,_ZZNK7fishnet11VectorLayerINS_8geometry5Vec2DIdEEE8getFieldIiEESt8optionalINS_15FieldDefinitionIT_EEERKNSt7__cxx1112basic_stringIcSt11char_traitsIcESaIcEEEENKUlOS8_E_clIRKNS7_ISG_EEEEDaSJ_
FNDA:0,_ZZNK7fishnet11VectorLayerINS_8geometry5Vec2DIdEEE8getFieldIiEESt8optionalINS_15FieldDefinitionIT_EEERKNSt7__cxx1112basic_stringIcSt11char_traitsIcESaIcEEEENKUlOS8_E_clIRKNS7_IdEEEEDaSJ_
FNDA:0,_ZZNK7fishnet11VectorLayerINS_8geometry5Vec2DIdEEE8getFieldIiEESt8optionalINS_15FieldDefinitionIT_EEERKNSt7__cxx1112basic_stringIcSt11char_traitsIcESaIcEEEENKUlOS8_E_clIRKNS7_IfEEEEDaSJ_
FNDA:1,_ZZNK7fishnet11VectorLayerINS_8geometry5Vec2DIdEEE8getFieldIiEESt8optionalINS_15FieldDefinitionIT_EEERKNSt7__cxx1112basic_stringIcSt11char_traitsIcESaIcEEEENKUlOS8_E_clIRKNS7_IiEEEEDaSJ_
FNDA:0,_ZZNK7fishnet11VectorLayerINS_8geometry5Vec2DIdEEE8getFieldIiEESt8optionalINS_15FieldDefinitionIT_EEERKNSt7__cxx1112basic_stringIcSt11char_traitsIcESaIcEEEENKUlOS8_E_clIRKNS7_IlEEEEDaSJ_
FNDA:0,_ZZNK7fishnet11VectorLayerINS_8geometry5Vec2DIdEEE8getFieldIiEESt8optionalINS_15FieldDefinitionIT_EEERKNSt7__cxx1112basic_stringIcSt11char_traitsIcESaIcEEEENKUlOS8_E_clIRKNS7_ImEEEEDaSJ_
FNDA:0,_ZZNK7fishnet11VectorLayerINS_8geometry5Vec2DIdEEE8getFieldIiEESt8optionalINS_15FieldDefinitionIT_EEERKNSt7__cxx1112basic_stringIcSt11char_traitsIcESaIcEEEENKUlOS8_E_clIRKNS7_IxEEEEDaSJ_
FNDA:2,_ZNK7fishnet11VectorLayerINS_8geometry7PolygonIdEEE5writeERKNS_9ShapefileE
FNDA:2,_ZNK7fishnet11VectorLayerINS_8geometry7PolygonIdEEE9overwriteERKNS_9ShapefileE
FNDA:38,_ZN7fishnet11VectorLayerINS_8geometry7PolygonIdEEE11addOGRFieldEP12OGRFieldDefni
FNDA:0,_ZN7fishnet11VectorLayerINS_8geometry7PolygonIdEEE19AddAttributeVisitorclINSt7__cxx1112basic_stringIcSt11char_traitsIcESaIcEEEEEbRKNS_15FieldDefinitionIT_EE
FNDA:0,_ZN7fishnet11VectorLayerINS_8geometry7PolygonIdEEE19AddAttributeVisitorclIPKcEEbRKNS_15FieldDefinitionIT_EE
FNDA:0,_ZN7fishnet11VectorLayerINS_8geometry7PolygonIdEEE19AddAttributeVisitorclIdEEbRKNS_15FieldDefinitionIT_EE
FNDA:0,_ZN7fishnet11VectorLayerINS_8geometry7PolygonIdEEE19AddAttributeVisitorclIfEEbRKNS_15FieldDefinitionIT_EE
FNDA:4553,_ZN7fishnet11VectorLayerINS_8geometry7PolygonIdEEE19AddAttributeVisitorclIiEEbRKNS_15FieldDefinitionIT_EE
FNDA:0,_ZN7fishnet11VectorLayerINS_8geometry7PolygonIdEEE19AddAttributeVisitorclIlEEbRKNS_15FieldDefinitionIT_EE
FNDA:0,_ZN7fishnet11VectorLayerINS_8geometry7PolygonIdEEE19AddAttributeVisitorclImEEbRKNS_15FieldDefinitionIT_EE
FNDA:0,_ZN7fishnet11VectorLayerINS_8geometry7PolygonIdEEE19AddAttributeVisitorclIxEEbRKNS_15FieldDefinitionIT_EE
FNF:93
FNH:50
DA:57,38
DA:58,38
DA:59,38
DA:60,0
DA:61,0
DA:62,0
DA:63,38
DA:64,38
DA:65,38
DA:66,0
DA:67,0
DA:68,0
DA:69,0
DA:70,0
DA:71,0
DA:72,0
DA:73,0
DA:75,38
DA:86,4553
DA:88,4553
DA:91,0
DA:94,0
DA:97,0
DA:108,38
DA:109,38
DA:110,38
DA:111,0
DA:112,38
DA:113,38
DA:114,38
DA:115,76
DA:116,38
DA:118,9182
DA:119,4553
DA:132,4553
DA:133,4553
DA:134,4553
DA:135,0
DA:136,4553
DA:137,9106
DA:138,4553
DA:140,4553
DA:141,4553
DA:143,38
DA:144,38
DA:145,0
DA:152,39
DA:153,39
DA:154,39
DA:161,4
DA:162,4
DA:163,4
DA:164,4
DA:165,4
DA:166,8
DA:169,12
DA:171,0
DA:173,4
DA:174,4
DA:175,4
DA:177,496
DA:178,492
DA:179,492
DA:181,984
DA:183,984
DA:184,0
DA:185,492
DA:186,492
DA:187,0
DA:190,492
DA:191,492
DA:192,0
DA:195,4
DA:196,4
DA:197,4
DA:204,1
DA:205,1
DA:206,1
DA:207,1
DA:219,39
DA:220,39
DA:243,39
DA:244,39
DA:245,1
DA:246,38
DA:257,16
DA:258,7898
DA:265,7
DA:266,7
DA:269,44
DA:270,44
DA:273,1
DA:274,1
DA:275,1
DA:277,36
DA:278,36
DA:279,36
DA:281,2
DA:282,2
DA:283,2
DA:285,18
DA:286,54
DA:287,18
DA:296,2
DA:297,8
DA:301,1
DA:302,3
DA:303,1
DA:305,4591
DA:306,4591
DA:307,4591
DA:313,1
DA:314,1
DA:322,10
DA:323,10
DA:324,1
DA:326,9
DA:327,1
DA:328,8
DA:329,8
DA:330,8
DA:331,8
DA:333,3
DA:334,3
DA:337,4
DA:338,4
DA:341,1
DA:342,1
DA:345,1
DA:346,1
DA:349,8
DA:350,8
DA:353,2
DA:354,2
DA:355,2
DA:357,1
DA:358,1
DA:359,1
DA:369,3
DA:370,3
DA:371,3
DA:372,1
DA:375,7
DA:378,0
DA:380,2
DA:381,2
DA:382,3
DA:400,2
DA:401,2
DA:402,1
DA:404,1
DA:406,2
DA:408,2
DA:409,2
DA:410,2
LF:155
LH:133
end_of_record
TN:
SF:/home/lolo/Documents/fishnet/lib/math/include/fishnet/Angle.hpp
FN:100,102,_ZNK7fishnet4math6__impl13AbstractAngleINS0_7DegreesEE13getAngleValueEv
FN:100,102,_ZNK7fishnet4math6__impl13AbstractAngleINS0_7RadiansEE13getAngleValueEv
FN:16,18,_ZN7fishnet4math6__impl13AbstractAngleINS0_7DegreesEE4implEv
FN:16,18,_ZN7fishnet4math6__impl13AbstractAngleINS0_7RadiansEE4implEv
FN:20,22,_ZNK7fishnet4math6__impl13AbstractAngleINS0_7DegreesEE4implEv
FN:20,22,_ZNK7fishnet4math6__impl13AbstractAngleINS0_7RadiansEE4implEv
FN:27,29,_ZNK7fishnet4math6__impl13AbstractAngleINS0_7DegreesEE15normalizedAngleEd
FN:27,29,_ZNK7fishnet4math6__impl13AbstractAngleINS0_7RadiansEE15normalizedAngleEd
FN:31,35,_ZN7fishnet4math6__impl13AbstractAngleINS0_7DegreesEE8setAngleEd
FN:31,35,_ZN7fishnet4math6__impl13AbstractAngleINS0_7RadiansEE8setAngleEd
FN:57,59,_ZNK7fishnet4math6__impl13AbstractAngleINS0_7DegreesEEngEv
FN:57,59,_ZNK7fishnet4math6__impl13AbstractAngleINS0_7RadiansEEngEv
FN:61,63,_ZNK7fishnet4math6__impl13AbstractAngleINS0_7DegreesEEplERKS3_
FN:61,63,_ZNK7fishnet4math6__impl13AbstractAngleINS0_7RadiansEEplERKS3_
FN:65,67,_ZNK7fishnet4math6__impl13AbstractAngleINS0_7DegreesEEmiERKS3_
FN:65,67,_ZNK7fishnet4math6__impl13AbstractAngleINS0_7RadiansEEmiERKS3_
FN:69,72,_ZN7fishnet4math6__impl13AbstractAngleINS0_7DegreesEEpLERKS3_
FN:69,72,_ZN7fishnet4math6__impl13AbstractAngleINS0_7RadiansEEpLERKS3_
FN:74,77,_ZN7fishnet4math6__impl13AbstractAngleINS0_7DegreesEEmIERKS3_
FN:74,77,_ZN7fishnet4math6__impl13AbstractAngleINS0_7RadiansEEmIERKS3_
FN:79,81,_ZNK7fishnet4math6__impl13AbstractAngleINS0_7DegreesEEeqERKS3_
FN:79,81,_ZNK7fishnet4math6__impl13AbstractAngleINS0_7RadiansEEeqERKS3_
FN:83,86,_ZNK7fishnet4math6__impl13AbstractAngleINS0_7DegreesEEltERKS3_
FN:83,86,_ZNK7fishnet4math6__impl13AbstractAngleINS0_7RadiansEEltERKS3_
FNDA:31,_ZNK7fishnet4math6__impl13AbstractAngleINS0_7DegreesEE13getAngleValueEv
FNDA:38,_ZNK7fishnet4math6__impl13AbstractAngleINS0_7RadiansEE13getAngleValueEv
FNDA:3,_ZN7fishnet4math6__impl13AbstractAngleINS0_7DegreesEE4implEv
FNDA:3,_ZN7fishnet4math6__impl13AbstractAngleINS0_7RadiansEE4implEv
FNDA:102,_ZNK7fishnet4math6__impl13AbstractAngleINS0_7DegreesEE4implEv
FNDA:128,_ZNK7fishnet4math6__impl13AbstractAngleINS0_7RadiansEE4implEv
FNDA:102,_ZNK7fishnet4math6__impl13AbstractAngleINS0_7DegreesEE15normalizedAngleEd
FNDA:128,_ZNK7fishnet4math6__impl13AbstractAngleINS0_7RadiansEE15normalizedAngleEd
FNDA:105,_ZN7fishnet4math6__impl13AbstractAngleINS0_7DegreesEE8setAngleEd
FNDA:131,_ZN7fishnet4math6__impl13AbstractAngleINS0_7RadiansEE8setAngleEd
FNDA:2,_ZNK7fishnet4math6__impl13AbstractAngleINS0_7DegreesEEngEv
FNDA:2,_ZNK7fishnet4math6__impl13AbstractAngleINS0_7RadiansEEngEv
FNDA:3,_ZNK7fishnet4math6__impl13AbstractAngleINS0_7DegreesEEplERKS3_
FNDA:5,_ZNK7fishnet4math6__impl13AbstractAngleINS0_7RadiansEEplERKS3_
FNDA:2,_ZNK7fishnet4math6__impl13AbstractAngleINS0_7DegreesEEmiERKS3_
FNDA:2,_ZNK7fishnet4math6__impl13AbstractAngleINS0_7RadiansEEmiERKS3_
FNDA:2,_ZN7fishnet4math6__impl13AbstractAngleINS0_7DegreesEEpLERKS3_
FNDA:2,_ZN7fishnet4math6__impl13AbstractAngleINS0_7RadiansEEpLERKS3_
FNDA:1,_ZN7fishnet4math6__impl13AbstractAngleINS0_7DegreesEEmIERKS3_
FNDA:1,_ZN7fishnet4math6__impl13AbstractAngleINS0_7RadiansEEmIERKS3_
FNDA:20,_ZNK7fishnet4math6__impl13AbstractAngleINS0_7DegreesEEeqERKS3_
FNDA:25,_ZNK7fishnet4math6__impl13AbstractAngleINS0_7RadiansEEeqERKS3_
FNDA:4,_ZNK7fishnet4math6__impl13AbstractAngleINS0_7DegreesEEltERKS3_
FNDA:4,_ZNK7fishnet4math6__impl13AbstractAngleINS0_7RadiansEEltERKS3_
FNF:24
FNH:24
DA:16,6
DA:17,6
DA:20,230
DA:21,230
DA:27,230
DA:28,230
DA:31,236
DA:32,236
DA:33,6
DA:34,230
DA:35,230
DA:57,4
DA:58,4
DA:61,8
DA:62,8
DA:65,4
DA:66,4
DA:69,4
DA:70,4
DA:71,4
DA:74,2
DA:75,2
DA:76,2
DA:79,45
DA:80,45
DA:83,8
DA:84,8
DA:85,6
DA:100,69
DA:101,69
LF:30
LH:30
end_of_record
TN:
SF:/home/lolo/Documents/fishnet/lib/math/include/fishnet/Constants.hpp
FN:23,28,_ZN7fishnet4math6isZeroIdEEbT_
FN:23,28,_ZN7fishnet4math6isZeroIfEEbT_
FN:23,28,_ZN7fishnet4math6isZeroIiEEbT_
FN:23,28,_ZN7fishnet4math6isZeroIlEEbT_
FN:31,36,_ZN7fishnet4math8areEqualIddEEbT_T0_
FN:31,36,_ZN7fishnet4math8areEqualIdfEEbT_T0_
FN:31,36,_ZN7fishnet4math8areEqualIdiEEbT_T0_
FN:31,36,_ZN7fishnet4math8areEqualIdlEEbT_T0_
FN:31,36,_ZN7fishnet4math8areEqualIffEEbT_T0_
FN:31,36,_ZN7fishnet4math8areEqualIfiEEbT_T0_
FN:31,36,_ZN7fishnet4math8areEqualIidEEbT_T0_
FN:31,36,_ZN7fishnet4math8areEqualIifEEbT_T0_
FN:31,36,_ZN7fishnet4math8areEqualIiiEEbT_T0_
FN:31,36,_ZN7fishnet4math8areEqualIilEEbT_T0_
FNDA:30714382,_ZN7fishnet4math6isZeroIdEEbT_
FNDA:32,_ZN7fishnet4math6isZeroIfEEbT_
FNDA:21508,_ZN7fishnet4math6isZeroIiEEbT_
FNDA:8,_ZN7fishnet4math6isZeroIlEEbT_
FNDA:5467367,_ZN7fishnet4math8areEqualIddEEbT_T0_
FNDA:6,_ZN7fishnet4math8areEqualIdfEEbT_T0_
FNDA:5114,_ZN7fishnet4math8areEqualIdiEEbT_T0_
FNDA:2,_ZN7fishnet4math8areEqualIdlEEbT_T0_
FNDA:3,_ZN7fishnet4math8areEqualIffEEbT_T0_
FNDA:5,_ZN7fishnet4math8areEqualIfiEEbT_T0_
FNDA:1296,_ZN7fishnet4math8areEqualIidEEbT_T0_
FNDA:4,_ZN7fishnet4math8areEqualIifEEbT_T0_
FNDA:3652,_ZN7fishnet4math8areEqualIiiEEbT_T0_
FNDA:2,_ZN7fishnet4math8areEqualIilEEbT_T0_
FNF:14
FNH:14
DA:23,30735930
DA:24,21516
DA:25,30714382
DA:26,32
DA:31,5477451
DA:32,3654
DA:33,1300
DA:34,5121
DA:35,5467376
LF:9
LH:9
end_of_record
TN:
SF:/home/lolo/Documents/fishnet/lib/math/include/fishnet/Degrees.hpp
FN:29,32,_ZN7fishnet4mathlsERSoRKNS0_7DegreesE
FN:39,41,_ZNKSt4hashIN7fishnet4math7DegreesEEclERKS2_
FNDA:0,_ZN7fishnet4mathlsERSoRKNS0_7DegreesE
FNDA:1,_ZNKSt4hashIN7fishnet4math7DegreesEEclERKS2_
FNF:2
FNH:1
DA:29,0
DA:30,0
DA:31,0
DA:39,1
DA:40,1
LF:5
LH:2
end_of_record
TN:
SF:/home/lolo/Documents/fishnet/lib/math/include/fishnet/Normalize.hpp
FN:19,36,_ZN7fishnet4mathL9normalizeIddEEDaT_T0_
FN:19,36,_ZN7fishnet4mathL9normalizeIidEEDaT_T0_
FN:46,53,_ZN7fishnet4mathL9normalizeIdddEEDaT_T0_T1_
FN:46,53,_ZN7fishnet4mathL9normalizeIiddEEDaT_T0_T1_
FNDA:33,_ZN7fishnet4mathL9normalizeIddEEDaT_T0_
FNDA:1,_ZN7fishnet4mathL9normalizeIidEEDaT_T0_
FNDA:11,_ZN7fishnet4mathL9normalizeIdddEEDaT_T0_T1_
FNDA:1,_ZN7fishnet4mathL9normalizeIiddEEDaT_T0_T1_
FNF:4
FNH:4
DA:19,34
DA:20,34
DA:21,0
DA:30,34
DA:31,34
DA:32,10
DA:34,24
DA:46,12
DA:47,12
DA:48,0
DA:50,12
DA:51,12
DA:52,12
LF:13
LH:11
end_of_record
TN:
SF:/home/lolo/Documents/fishnet/lib/math/include/fishnet/Radians.hpp
FN:31,34,_ZN7fishnet4mathlsERSoRKNS0_7RadiansE
FN:41,44,_ZNKSt4hashIN7fishnet4math7RadiansEEclERKS2_
FNDA:0,_ZN7fishnet4mathlsERSoRKNS0_7RadiansE
FNDA:1,_ZNKSt4hashIN7fishnet4math7RadiansEEclERKS2_
FNF:2
FNH:1
DA:31,0
DA:32,0
DA:33,0
DA:41,1
DA:42,1
DA:43,1
LF:6
LH:3
end_of_record
TN:
SF:/home/lolo/Documents/fishnet/lib/util/collections/include/fishnet/AlternativeKeyMap.hpp
FN:102,107,_ZN7fishnet4util17AlternativeKeyMapIiNSt7__cxx1112basic_stringIcSt11char_traitsIcESaIcEEEdE12eraseFromKeyERKi
FN:102,107,_ZN7fishnet4util17AlternativeKeyMapImiNSt7__cxx1112basic_stringIcSt11char_traitsIcESaIcEEEE12eraseFromKeyERKm
FN:109,114,_ZN7fishnet4util17AlternativeKeyMapIiNSt7__cxx1112basic_stringIcSt11char_traitsIcESaIcEEEdE20eraseFromAlternativeERKS7_
FN:109,114,_ZN7fishnet4util17AlternativeKeyMapImiNSt7__cxx1112basic_stringIcSt11char_traitsIcESaIcEEEE20eraseFromAlternativeERKi
FN:120,122,_ZN7fishnet4util17AlternativeKeyMapIiNSt7__cxx1112basic_stringIcSt11char_traitsIcESaIcEEEdE5eraseERKS7_
FN:124,126,_ZN7fishnet4util17AlternativeKeyMapImiNSt7__cxx1112basic_stringIcSt11char_traitsIcESaIcEEEE5beginEv
FN:128,130,_ZN7fishnet4util17AlternativeKeyMapImiNSt7__cxx1112basic_stringIcSt11char_traitsIcESaIcEEEE3endEv
FN:152,154,_ZNK7fishnet4util17AlternativeKeyMapIiNSt7__cxx1112basic_stringIcSt11char_traitsIcESaIcEEEdE4sizeEv
FN:152,154,_ZNK7fishnet4util17AlternativeKeyMapImiNSt7__cxx1112basic_stringIcSt11char_traitsIcESaIcEEEE4sizeEv
FN:152,154,_ZNK7fishnet4util17AlternativeKeyMapImidE4sizeEv
FN:156,159,_ZN7fishnet4util17AlternativeKeyMapImiNSt7__cxx1112basic_stringIcSt11char_traitsIcESaIcEEEE5clearEv
FN:21,23,_ZNK7fishnet4util17AlternativeKeyMapImiNSt7__cxx1112basic_stringIcSt11char_traitsIcESaIcEEEE14getAlternativeERKm
FN:25,27,_ZNK7fishnet4util17AlternativeKeyMapImiNSt7__cxx1112basic_stringIcSt11char_traitsIcESaIcEEEE6getKeyERKi
FN:29,33,_ZNK7fishnet4util17AlternativeKeyMapIiNSt7__cxx1112basic_stringIcSt11char_traitsIcESaIcEEEdE10getFromKeyERKi
FN:29,33,_ZNK7fishnet4util17AlternativeKeyMapImiNSt7__cxx1112basic_stringIcSt11char_traitsIcESaIcEEEE10getFromKeyERKm
FN:35,40,_ZNK7fishnet4util17AlternativeKeyMapIiNSt7__cxx1112basic_stringIcSt11char_traitsIcESaIcEEEdE18getFromAlternativeERKS7_
FN:35,40,_ZNK7fishnet4util17AlternativeKeyMapImiNSt7__cxx1112basic_stringIcSt11char_traitsIcESaIcEEEE18getFromAlternativeERKi
FN:42,46,_ZNK7fishnet4util17AlternativeKeyMapIiNSt7__cxx1112basic_stringIcSt11char_traitsIcESaIcEEEdE16getFromKeyOrElseERKid
FN:42,46,_ZNK7fishnet4util17AlternativeKeyMapImiNSt7__cxx1112basic_stringIcSt11char_traitsIcESaIcEEEE16getFromKeyOrElseERKmS7_
FN:48,53,_ZNK7fishnet4util17AlternativeKeyMapIiNSt7__cxx1112basic_stringIcSt11char_traitsIcESaIcEEEdE24getFromAlternativeOrElseERKS7_d
FN:48,53,_ZNK7fishnet4util17AlternativeKeyMapImiNSt7__cxx1112basic_stringIcSt11char_traitsIcESaIcEEEE24getFromAlternativeOrElseERKiS7_
FN:55,57,_ZNK7fishnet4util17AlternativeKeyMapIiNSt7__cxx1112basic_stringIcSt11char_traitsIcESaIcEEEdE3getERKi
FN:59,61,_ZNK7fishnet4util17AlternativeKeyMapIiNSt7__cxx1112basic_stringIcSt11char_traitsIcESaIcEEEdE3getERKS7_
FN:63,65,_ZNK7fishnet4util17AlternativeKeyMapIiNSt7__cxx1112basic_stringIcSt11char_traitsIcESaIcEEEdE9getOrElseERKid
FN:67,69,_ZNK7fishnet4util17AlternativeKeyMapIiNSt7__cxx1112basic_stringIcSt11char_traitsIcESaIcEEEdE9getOrElseERKS7_d
FN:87,93,_ZN7fishnet4util17AlternativeKeyMapIiNSt7__cxx1112basic_stringIcSt11char_traitsIcESaIcEEEdE6insertERKiRKS7_d
FN:87,93,_ZN7fishnet4util17AlternativeKeyMapImiNSt7__cxx1112basic_stringIcSt11char_traitsIcESaIcEEEE6insertERKmRKiS7_
FN:87,93,_ZN7fishnet4util17AlternativeKeyMapImidE6insertERKmRKid
FN:95,100,_ZN7fishnet4util17AlternativeKeyMapImiNSt7__cxx1112basic_stringIcSt11char_traitsIcESaIcEEEE17updateAlternativeERKmRKi
FNDA:1,_ZN7fishnet4util17AlternativeKeyMapIiNSt7__cxx1112basic_stringIcSt11char_traitsIcESaIcEEEdE12eraseFromKeyERKi
FNDA:4,_ZN7fishnet4util17AlternativeKeyMapImiNSt7__cxx1112basic_stringIcSt11char_traitsIcESaIcEEEE12eraseFromKeyERKm
FNDA:1,_ZN7fishnet4util17AlternativeKeyMapIiNSt7__cxx1112basic_stringIcSt11char_traitsIcESaIcEEEdE20eraseFromAlternativeERKS7_
FNDA:1,_ZN7fishnet4util17AlternativeKeyMapImiNSt7__cxx1112basic_stringIcSt11char_traitsIcESaIcEEEE20eraseFromAlternativeERKi
FNDA:1,_ZN7fishnet4util17AlternativeKeyMapIiNSt7__cxx1112basic_stringIcSt11char_traitsIcESaIcEEEdE5eraseERKS7_
FNDA:1,_ZN7fishnet4util17AlternativeKeyMapImiNSt7__cxx1112basic_stringIcSt11char_traitsIcESaIcEEEE5beginEv
FNDA:1,_ZN7fishnet4util17AlternativeKeyMapImiNSt7__cxx1112basic_stringIcSt11char_traitsIcESaIcEEEE3endEv
FNDA:2,_ZNK7fishnet4util17AlternativeKeyMapIiNSt7__cxx1112basic_stringIcSt11char_traitsIcESaIcEEEdE4sizeEv
FNDA:11,_ZNK7fishnet4util17AlternativeKeyMapImiNSt7__cxx1112basic_stringIcSt11char_traitsIcESaIcEEEE4sizeEv
FNDA:1,_ZNK7fishnet4util17AlternativeKeyMapImidE4sizeEv
FNDA:1,_ZN7fishnet4util17AlternativeKeyMapImiNSt7__cxx1112basic_stringIcSt11char_traitsIcESaIcEEEE5clearEv
FNDA:1,_ZNK7fishnet4util17AlternativeKeyMapImiNSt7__cxx1112basic_stringIcSt11char_traitsIcESaIcEEEE14getAlternativeERKm
FNDA:1,_ZNK7fishnet4util17AlternativeKeyMapImiNSt7__cxx1112basic_stringIcSt11char_traitsIcESaIcEEEE6getKeyERKi
FNDA:2,_ZNK7fishnet4util17AlternativeKeyMapIiNSt7__cxx1112basic_stringIcSt11char_traitsIcESaIcEEEdE10getFromKeyERKi
FNDA:13,_ZNK7fishnet4util17AlternativeKeyMapImiNSt7__cxx1112basic_stringIcSt11char_traitsIcESaIcEEEE10getFromKeyERKm
FNDA:1,_ZNK7fishnet4util17AlternativeKeyMapIiNSt7__cxx1112basic_stringIcSt11char_traitsIcESaIcEEEdE18getFromAlternativeERKS7_
FNDA:9,_ZNK7fishnet4util17AlternativeKeyMapImiNSt7__cxx1112basic_stringIcSt11char_traitsIcESaIcEEEE18getFromAlternativeERKi
FNDA:2,_ZNK7fishnet4util17AlternativeKeyMapIiNSt7__cxx1112basic_stringIcSt11char_traitsIcESaIcEEEdE16getFromKeyOrElseERKid
FNDA:4,_ZNK7fishnet4util17AlternativeKeyMapImiNSt7__cxx1112basic_stringIcSt11char_traitsIcESaIcEEEE16getFromKeyOrElseERKmS7_
FNDA:1,_ZNK7fishnet4util17AlternativeKeyMapIiNSt7__cxx1112basic_stringIcSt11char_traitsIcESaIcEEEdE24getFromAlternativeOrElseERKS7_d
FNDA:2,_ZNK7fishnet4util17AlternativeKeyMapImiNSt7__cxx1112basic_stringIcSt11char_traitsIcESaIcEEEE24getFromAlternativeOrElseERKiS7_
FNDA:1,_ZNK7fishnet4util17AlternativeKeyMapIiNSt7__cxx1112basic_stringIcSt11char_traitsIcESaIcEEEdE3getERKi
FNDA:1,_ZNK7fishnet4util17AlternativeKeyMapIiNSt7__cxx1112basic_stringIcSt11char_traitsIcESaIcEEEdE3getERKS7_
FNDA:2,_ZNK7fishnet4util17AlternativeKeyMapIiNSt7__cxx1112basic_stringIcSt11char_traitsIcESaIcEEEdE9getOrElseERKid
FNDA:1,_ZNK7fishnet4util17AlternativeKeyMapIiNSt7__cxx1112basic_stringIcSt11char_traitsIcESaIcEEEdE9getOrElseERKS7_d
FNDA:10,_ZN7fishnet4util17AlternativeKeyMapIiNSt7__cxx1112basic_stringIcSt11char_traitsIcESaIcEEEdE6insertERKiRKS7_d
FNDA:33,_ZN7fishnet4util17AlternativeKeyMapImiNSt7__cxx1112basic_stringIcSt11char_traitsIcESaIcEEEE6insertERKmRKiS7_
FNDA:2,_ZN7fishnet4util17AlternativeKeyMapImidE6insertERKmRKid
FNDA:3,_ZN7fishnet4util17AlternativeKeyMapImiNSt7__cxx1112basic_stringIcSt11char_traitsIcESaIcEEEE17updateAlternativeERKmRKi
FNF:29
FNH:29
DA:21,1
DA:22,1
DA:25,1
DA:26,1
DA:29,15
DA:30,15
DA:31,3
DA:32,12
DA:35,10
DA:36,10
DA:37,10
DA:38,4
DA:39,6
DA:42,6
DA:43,6
DA:44,2
DA:45,4
DA:48,3
DA:49,3
DA:50,3
DA:51,2
DA:52,1
DA:55,1
DA:56,1
DA:59,1
DA:60,1
DA:63,2
DA:64,2
DA:67,1
DA:68,1
DA:87,45
DA:88,45
DA:89,45
DA:90,2
DA:91,43
DA:92,43
DA:95,3
DA:96,3
DA:97,2
DA:98,1
DA:99,1
DA:102,5
DA:103,5
DA:104,5
DA:105,1
DA:106,4
DA:109,2
DA:110,2
DA:111,2
DA:112,0
DA:113,2
DA:120,1
DA:121,1
DA:124,1
DA:125,1
DA:128,1
DA:129,1
DA:152,14
DA:153,14
DA:156,1
DA:157,1
DA:158,1
DA:159,1
LF:63
LH:62
end_of_record
TN:
SF:/home/lolo/Documents/fishnet/lib/util/collections/include/fishnet/BidirectionalMap.hpp
FN:149,152,_ZN7fishnet4util16BidirectionalMapImiE5clearEv
FN:27,27,_ZN7fishnet4util16BidirectionalMapIiNSt7__cxx1112basic_stringIcSt11char_traitsIcESaIcEEEEC2Ev
FN:27,27,_ZN7fishnet4util16BidirectionalMapImiEC2Ev
FN:29,33,_ZNK7fishnet4util16BidirectionalMapImiE5getToERKm
FN:35,39,_ZNK7fishnet4util16BidirectionalMapIiNSt7__cxx1112basic_stringIcSt11char_traitsIcESaIcEEEE7getFromERKS7_
FN:35,39,_ZNK7fishnet4util16BidirectionalMapImiE7getFromERKi
FN:53,55,_ZNK7fishnet4util16BidirectionalMapImiE10containsToERKi
FN:73,82,_ZN7fishnet4util16BidirectionalMapIiNSt7__cxx1112basic_stringIcSt11char_traitsIcESaIcEEEE6insertERKiS7_
FN:73,82,_ZN7fishnet4util16BidirectionalMapImiE6insertERKmi
FN:85,91,_ZN7fishnet4util16BidirectionalMapIiNSt7__cxx1112basic_stringIcSt11char_traitsIcESaIcEEEE9eraseFromERKi
FN:85,91,_ZN7fishnet4util16BidirectionalMapImiE9eraseFromERKm
FN:93,99,_ZN7fishnet4util16BidirectionalMapIiNSt7__cxx1112basic_stringIcSt11char_traitsIcESaIcEEEE7eraseToERKS7_
FN:93,99,_ZN7fishnet4util16BidirectionalMapImiE7eraseToERKi
FNDA:1,_ZN7fishnet4util16BidirectionalMapImiE5clearEv
FNDA:20,_ZN7fishnet4util16BidirectionalMapIiNSt7__cxx1112basic_stringIcSt11char_traitsIcESaIcEEEEC2Ev
FNDA:21,_ZN7fishnet4util16BidirectionalMapImiEC2Ev
FNDA:1,_ZNK7fishnet4util16BidirectionalMapImiE5getToERKm
FNDA:3,_ZNK7fishnet4util16BidirectionalMapIiNSt7__cxx1112basic_stringIcSt11char_traitsIcESaIcEEEE7getFromERKS7_
FNDA:13,_ZNK7fishnet4util16BidirectionalMapImiE7getFromERKi
FNDA:3,_ZNK7fishnet4util16BidirectionalMapImiE10containsToERKi
FNDA:10,_ZN7fishnet4util16BidirectionalMapIiNSt7__cxx1112basic_stringIcSt11char_traitsIcESaIcEEEE6insertERKiS7_
FNDA:34,_ZN7fishnet4util16BidirectionalMapImiE6insertERKmi
FNDA:1,_ZN7fishnet4util16BidirectionalMapIiNSt7__cxx1112basic_stringIcSt11char_traitsIcESaIcEEEE9eraseFromERKi
FNDA:4,_ZN7fishnet4util16BidirectionalMapImiE9eraseFromERKm
FNDA:0,_ZN7fishnet4util16BidirectionalMapIiNSt7__cxx1112basic_stringIcSt11char_traitsIcESaIcEEEE7eraseToERKS7_
